	.cpu generic+fp+simd
	.file	"vdm_hal_mpeg2.c"
	.text
.Ltext0:
	.cfi_sections	.debug_frame
#APP
	.irp	num,0,1,2,3,4,5,6,7,8,9,10,11,12,13,14,15,16,17,18,19,20,21,22,23,24,25,26,27,28,29,30
	.equ	.L__reg_num_x\num, \num
	.endr
	.equ	.L__reg_num_xzr, 31

	.macro	mrs_s, rt, sreg
	.inst	0xd5200000|(\sreg)|(.L__reg_num_\rt)
	.endm

	.macro	msr_s, sreg, rt
	.inst	0xd5000000|(\sreg)|(.L__reg_num_\rt)
	.endm

#NO_APP
	.align	2
	.global	MP2HAL_InitHal
	.type	MP2HAL_InitHal, %function
MP2HAL_InitHal:
.LFB2315:
	.file 1 "/home/jenkins1/slave_49/workspace/CHICAGO_B100_chipset_component/opensource/component_code/vendor/huawei/extra/build/build_script/kirin_kernel_release/kernel/drivers/vcodec/hi_vcodec/vdec/vfmw/vfmw_v4.0/firmware/driver/HiVDHV400R004/vdm_hal_mpeg2.c"
	.loc 1 35 0
	.cfi_startproc
.LVL0:
	.loc 1 37 0
	mov	w0, 0
.LVL1:
	ret
	.cfi_endproc
.LFE2315:
	.size	MP2HAL_InitHal, .-MP2HAL_InitHal
	.align	2
	.global	MP2HAL_WriteSliceMsg
	.type	MP2HAL_WriteSliceMsg, %function
MP2HAL_WriteSliceMsg:
.LFB2317:
	.loc 1 78 0
	.cfi_startproc
.LVL2:
	stp	x29, x30, [sp, -144]!
	.cfi_def_cfa_offset 144
	.cfi_offset 29, -144
	.cfi_offset 30, -136
	.loc 1 81 0
	add	x4, x0, 45056
	.loc 1 78 0
	add	x29, sp, 0
	.cfi_def_cfa_register 29
	stp	x25, x26, [sp,64]
	.cfi_offset 25, -80
	.cfi_offset 26, -72
	.loc 1 82 0
	add	x26, x0, 232
	.loc 1 78 0
	str	x0, [x29,104]
	adrp	x0, __stack_chk_guard
.LVL3:
	stp	x19, x20, [sp,16]
	stp	x21, x22, [sp,32]
	stp	x27, x28, [sp,80]
	stp	x23, x24, [sp,48]
	.cfi_offset 19, -128
	.cfi_offset 20, -120
	.cfi_offset 21, -112
	.cfi_offset 22, -104
	.cfi_offset 27, -64
	.cfi_offset 28, -56
	.cfi_offset 23, -96
	.cfi_offset 24, -88
	.loc 1 78 0
	mov	x20, x1
	ldr	x1, [x0,#:lo12:__stack_chk_guard]
.LVL4:
	.loc 1 88 0
	ldr	w0, [x26,32]
	.loc 1 78 0
	mov	w27, w2
	.loc 1 80 0
	str	wzr, [x29,132]
.LVL5:
	.loc 1 78 0
	mov	w22, w3
	str	x1, [x29,136]
	.loc 1 86 0
	str	wzr, [x29,124]
	.loc 1 81 0
	ldr	w28, [x4,232]
	.loc 1 88 0
	cbnz	w0, .L30
.L3:
.LVL6:
	.loc 1 160 0 discriminator 1
	cmp	w28, wzr
	ble	.L17
	ldr	w0, [x29,124]
	.loc 1 174 0
	adrp	x25, .LC0
	.loc 1 180 0
	adrp	x24, .LC1
	.loc 1 189 0
	adrp	x23, .LC2
	.loc 1 174 0
	add	x25, x25, :lo12:.LC0
	.loc 1 180 0
	add	x24, x24, :lo12:.LC1
.LVL7:
	add	w0, w27, w0, lsl 5
.LVL8:
	.loc 1 235 0
	mov	w27, 0
.LVL9:
	str	w0, [x29,120]
	.loc 1 189 0
	add	x0, x23, :lo12:.LC2
	str	x0, [x29,112]
.L16:
	.loc 1 162 0
	cbz	w27, .L31
	.loc 1 162 0 is_stmt 0 discriminator 1
	mov	w21, 44
	sxtw	x19, w27
	smaddl	x21, w27, w21, x26
	ldr	w1, [x21,32]
	ldr	w0, [x21,-12]
	cmp	w1, w0
	bls	.L8
.L7:
	.loc 1 169 0 is_stmt 1
	ldr	w23, [x21]
	.loc 1 171 0
	mov	w2, 0
.LVL10:
	ldr	w7, [x21,8]
	.loc 1 172 0
	mov	w1, 0
	.loc 1 170 0
	ldr	w0, [x21,16]
	ubfiz	w8, w23, 3, 4
	.loc 1 171 0
	bfi	w2, w7, 0, 24
	str	w2, [x29,132]
	.loc 1 170 0
	add	w0, w8, w0
	.loc 1 173 0
	ldr	w3, [x29,124]
	.loc 1 172 0
	bfi	w1, w0, 0, 7
	strb	w1, [x29,135]
.LVL11:
	.loc 1 173 0
	add	x19, x19, x3, sxtw 2
	lsl	x19, x19, 5
	ldr	w7, [x29,132]
	.loc 1 174 0
	mov	x1, x25
	mov	w0, 4
	mov	w2, w7
	.loc 1 173 0
	str	w7, [x20,x19]
	.loc 1 174 0
	bl	dprint_linux_kernel
.LVL12:
	.loc 1 179 0
	add	x8, x19, 4
	.loc 1 169 0
	and	w6, w23, -16
	.loc 1 178 0
	sub	w6, w6, w22
	mov	w7, 0
	bfi	w7, w6, 0, 24
	.loc 1 180 0
	mov	x1, x24
	.loc 1 179 0
	str	w7, [x20,x8]
	.loc 1 180 0
	mov	w2, w7
	mov	w0, 4
	.loc 1 178 0
	str	w7, [x29,132]
	.loc 1 180 0
	bl	dprint_linux_kernel
.LVL13:
	.loc 1 184 0
	ldr	w23, [x21,4]
	.loc 1 186 0
	ldr	w2, [x21,12]
	mov	w1, 0
	.loc 1 185 0
	ldr	w7, [x21,20]
	ubfiz	w6, w23, 3, 4
	.loc 1 186 0
	bfi	w1, w2, 0, 24
	.loc 1 187 0
	mov	w0, 0
	.loc 1 186 0
	str	w1, [x29,132]
	.loc 1 185 0
	add	w6, w6, w7
	.loc 1 187 0
	bfi	w0, w6, 0, 7
	.loc 1 188 0
	add	x6, x19, 8
	.loc 1 187 0
	strb	w0, [x29,135]
	.loc 1 189 0
	mov	w0, 4
	ldr	x1, [x29,112]
	.loc 1 188 0
	ldr	w2, [x29,132]
	str	w2, [x20,x6]
	.loc 1 189 0
	bl	dprint_linux_kernel
.LVL14:
	.loc 1 192 0
	str	wzr, [x29,132]
	.loc 1 194 0
	ldr	w0, [x21,4]
	.loc 1 200 0
	mov	w1, 0
	.loc 1 194 0
	cbz	w0, .L9
	.loc 1 184 0
	and	w8, w23, -16
	.loc 1 196 0
	sub	w1, w8, w22
	and	w1, w1, 16777215
.L9:
	ldr	w6, [x29,132]
	.loc 1 203 0
	add	x7, x19, 12
	.loc 1 204 0
	mov	w0, 4
	.loc 1 219 0
	add	w27, w27, 1
.LVL15:
	bfi	w6, w1, 0, 24
	.loc 1 204 0
	adrp	x1, .LC3
	.loc 1 203 0
	str	w6, [x20,x7]
	.loc 1 204 0
	mov	w2, w6
	add	x1, x1, :lo12:.LC3
	str	w6, [x29,132]
	bl	dprint_linux_kernel
.LVL16:
	.loc 1 207 0
	str	wzr, [x29,132]
	.loc 1 208 0
	ldr	w2, [x21,40]
	mov	w0, 0
	.loc 1 209 0
	ldr	w1, [x21,36]
	.loc 1 210 0
	add	x6, x19, 16
	.loc 1 208 0
	bfi	w0, w2, 0, 6
	.loc 1 209 0
	bfi	w0, w1, 6, 1
	strb	w0, [x29,132]
	.loc 1 211 0
	adrp	x1, .LC4
	mov	w0, 4
	.loc 1 210 0
	ldr	w2, [x29,132]
	.loc 1 211 0
	add	x1, x1, :lo12:.LC4
	.loc 1 210 0
	str	w2, [x20,x6]
	.loc 1 211 0
	bl	dprint_linux_kernel
.LVL17:
	.loc 1 215 0
	ldr	w0, [x21,32]
	.loc 1 216 0
	add	x2, x19, 20
	.loc 1 215 0
	mov	w6, 0
	.loc 1 217 0
	adrp	x1, .LC5
	.loc 1 215 0
	bfi	w6, w0, 0, 20
	.loc 1 217 0
	add	x1, x1, :lo12:.LC5
	.loc 1 216 0
	str	w6, [x20,x2]
	.loc 1 217 0
	mov	w0, 4
	mov	w2, w6
	.loc 1 215 0
	str	w6, [x29,132]
	.loc 1 217 0
	bl	dprint_linux_kernel
.LVL18:
	.loc 1 219 0 discriminator 1
	cmp	w28, w27
	ble	.L10
	.loc 1 221 0
	mov	w1, 44
	ldr	w2, [x21,32]
	nop // between mem op and mult-accumulate
	smaddl	x0, w27, w1, x26
	ldr	w0, [x0,32]
	cmp	w2, w0
	bcs	.L12
	b	.L10
.L13:
	smaddl	x0, w27, w1, x26
	ldr	w0, [x0,32]
	cmp	w2, w0
	bcc	.L10
.L12:
	.loc 1 219 0 discriminator 2
	add	w27, w27, 1
	.loc 1 219 0 is_stmt 0 discriminator 1
	cmp	w28, w27
	bgt	.L13
.L10:
	.loc 1 227 0 is_stmt 1
	cmp	w27, w28
	beq	.L32
	.loc 1 235 0
	ldr	w0, [x29,120]
	add	w23, w0, w27, lsl 5
	.loc 1 234 0
	mov	w0, 44
	mov	w21, w23
	smaddl	x0, w27, w0, x26
	ldr	w0, [x0,32]
	sub	w0, w0, #1
.LVL19:
.L15:
	.loc 1 241 0
	add	x8, x19, 24
	.loc 1 240 0
	mov	w6, 0
	bfi	w6, w0, 0, 20
	.loc 1 242 0
	adrp	x1, .LC6
	add	x1, x1, :lo12:.LC6
	mov	w2, w6
	.loc 1 241 0
	str	w6, [x20,x8]
	.loc 1 242 0
	mov	w0, 4
.LVL20:
	.loc 1 246 0
	add	x19, x19, 28
	.loc 1 240 0
	str	w6, [x29,132]
	.loc 1 242 0
	bl	dprint_linux_kernel
.LVL21:
	.loc 1 249 0
	sub	w27, w27, #1
.LVL22:
	.loc 1 247 0
	adrp	x1, .LC7
	mov	w0, 4
	add	x1, x1, :lo12:.LC7
	mov	w2, w23
	.loc 1 246 0
	str	w21, [x20,x19]
	.loc 1 245 0
	str	w23, [x29,132]
	.loc 1 247 0
	bl	dprint_linux_kernel
.LVL23:
.L8:
	.loc 1 160 0 discriminator 2
	add	w27, w27, 1
	.loc 1 160 0 is_stmt 0 discriminator 1
	cmp	w28, w27
	bgt	.L16
.L17:
	.loc 1 253 0 is_stmt 1
	adrp	x1, __stack_chk_guard
	ldr	x2, [x29,136]
.LVL24:
	mov	w0, 0
	ldr	x1, [x1,#:lo12:__stack_chk_guard]
	cmp	x2, x1
	bne	.L33
	ldp	x19, x20, [sp,16]
	.cfi_remember_state
	.cfi_restore 20
	.cfi_restore 19
.LVL25:
	ldp	x21, x22, [sp,32]
	.cfi_restore 22
	.cfi_restore 21
	ldp	x23, x24, [sp,48]
	.cfi_restore 24
	.cfi_restore 23
	ldp	x25, x26, [sp,64]
	.cfi_restore 26
	.cfi_restore 25
	ldp	x27, x28, [sp,80]
	.cfi_restore 28
	.cfi_restore 27
.LVL26:
	ldp	x29, x30, [sp], 144
	.cfi_restore 30
	.cfi_restore 29
	.cfi_def_cfa 31, 0
	ret
.LVL27:
.L32:
	.cfi_restore_state
	.loc 1 229 0
	ldr	x1, [x29,104]
.LVL28:
	mov	w21, 0
	.loc 1 230 0
	mov	w23, 0
	.loc 1 229 0
	ldrh	w0, [x1,150]
	ldrh	w1, [x1,146]
.LVL29:
	mul	w0, w0, w1
	sub	w0, w0, #1
.LVL30:
	b	.L15
.LVL31:
.L31:
	.loc 1 162 0
	mov	x21, x26
	mov	x19, 0
	b	.L7
.LVL32:
.L30:
	.loc 1 95 0
	ldr	x0, [x29,104]
.LVL33:
	.loc 1 97 0
	mov	w3, 1
	.loc 1 98 0
	mov	w1, 0
	.loc 1 95 0
	ldr	w19, [x0,232]
	.loc 1 96 0
	ldr	w0, [x26,16]
.LVL34:
	ubfiz	w2, w19, 3, 4
	.loc 1 97 0
	str	w3, [x29,132]
	.loc 1 96 0
	add	w0, w2, w0
	.loc 1 95 0
	and	w19, w19, -16
	.loc 1 98 0
	bfi	w1, w0, 0, 7
	strb	w1, [x29,135]
	.loc 1 100 0
	adrp	x1, .LC0
	mov	w0, 4
	.loc 1 99 0
	ldr	w2, [x29,132]
	.loc 1 100 0
	add	x1, x1, :lo12:.LC0
	.loc 1 99 0
	str	w2, [x20]
	.loc 1 104 0
	sub	w19, w19, w22
	.loc 1 100 0
	bl	dprint_linux_kernel
.LVL35:
	.loc 1 104 0
	mov	w3, 0
	.loc 1 106 0
	adrp	x1, .LC1
	.loc 1 104 0
	bfi	w3, w19, 0, 24
	.loc 1 106 0
	add	x1, x1, :lo12:.LC1
	mov	w2, w3
	.loc 1 105 0
	str	w3, [x20,4]
	.loc 1 106 0
	mov	w0, 4
	.loc 1 104 0
	str	w3, [x29,132]
	.loc 1 106 0
	bl	dprint_linux_kernel
.LVL36:
	.loc 1 110 0
	ldr	w19, [x26,4]
	.loc 1 111 0
	ldr	w0, [x26,20]
	.loc 1 113 0
	mov	w1, 0
	.loc 1 111 0
	ubfiz	w3, w19, 3, 4
	.loc 1 112 0
	str	wzr, [x29,132]
	.loc 1 111 0
	add	w3, w3, w0
	.loc 1 115 0
	mov	w0, 4
	.loc 1 113 0
	bfi	w1, w3, 0, 7
	strb	w1, [x29,135]
	.loc 1 115 0
	adrp	x1, .LC2
	.loc 1 114 0
	ldr	w2, [x29,132]
	.loc 1 115 0
	add	x1, x1, :lo12:.LC2
	.loc 1 114 0
	str	w2, [x20,8]
	.loc 1 115 0
	bl	dprint_linux_kernel
.LVL37:
	.loc 1 118 0
	str	wzr, [x29,132]
	.loc 1 120 0
	ldr	w0, [x26,4]
	.loc 1 126 0
	mov	w2, 0
	.loc 1 120 0
	cbz	w0, .L4
	.loc 1 110 0
	and	w19, w19, -16
	.loc 1 122 0
	sub	w2, w19, w22
	and	w2, w2, 16777215
.L4:
	ldr	w3, [x29,132]
	.loc 1 130 0
	adrp	x1, .LC3
	add	x1, x1, :lo12:.LC3
	mov	w0, 4
	bfi	w3, w2, 0, 24
	.loc 1 129 0
	str	w3, [x20,12]
	.loc 1 130 0
	mov	w2, w3
	str	w3, [x29,132]
	.loc 1 157 0
	mov	w3, 1
.LVL38:
	str	w3, [x29,124]
	.loc 1 130 0
	bl	dprint_linux_kernel
.LVL39:
	.loc 1 133 0
	str	wzr, [x29,132]
	.loc 1 134 0
	ldr	w2, [x26,40]
	mov	w0, 0
	.loc 1 135 0
	ldr	w1, [x26,36]
	.loc 1 134 0
	bfi	w0, w2, 0, 6
	.loc 1 135 0
	bfi	w0, w1, 6, 1
	strb	w0, [x29,132]
	.loc 1 137 0
	adrp	x1, .LC4
	mov	w0, 4
	.loc 1 136 0
	ldr	w2, [x29,132]
	.loc 1 137 0
	add	x1, x1, :lo12:.LC4
	.loc 1 136 0
	str	w2, [x20,16]
	.loc 1 137 0
	bl	dprint_linux_kernel
.LVL40:
	.loc 1 142 0
	str	wzr, [x20,20]
	.loc 1 143 0
	adrp	x1, .LC5
	mov	w2, 0
	add	x1, x1, :lo12:.LC5
	mov	w0, 4
	.loc 1 141 0
	str	wzr, [x29,132]
	.loc 1 143 0
	bl	dprint_linux_kernel
.LVL41:
	.loc 1 147 0
	ldr	w1, [x26,32]
	.loc 1 148 0
	mov	w3, 0
	.loc 1 150 0
	mov	w0, 4
	.loc 1 147 0
	sub	w1, w1, #1
	.loc 1 148 0
	bfi	w3, w1, 0, 20
	.loc 1 150 0
	adrp	x1, .LC6
	.loc 1 149 0
	str	w3, [x20,24]
	.loc 1 150 0
	add	x1, x1, :lo12:.LC6
	mov	w2, w3
	.loc 1 148 0
	str	w3, [x29,132]
	.loc 1 150 0
	bl	dprint_linux_kernel
.LVL42:
	.loc 1 153 0
	add	w0, w27, 32
	.loc 1 154 0
	str	w0, [x29,132]
	.loc 1 155 0
	str	w0, [x20,28]
	b	.L3
.LVL43:
.L33:
	.loc 1 253 0
	bl	__stack_chk_fail
.LVL44:
	.cfi_endproc
.LFE2317:
	.size	MP2HAL_WriteSliceMsg, .-MP2HAL_WriteSliceMsg
	.align	2
	.global	MP2HAL_CfgReg
	.type	MP2HAL_CfgReg, %function
MP2HAL_CfgReg:
.LFB2318:
	.loc 1 256 0
	.cfi_startproc
.LVL45:
	stp	x29, x30, [sp, -96]!
	.cfi_def_cfa_offset 96
	.cfi_offset 29, -96
	.cfi_offset 30, -88
	add	x29, sp, 0
	.cfi_def_cfa_register 29
	stp	x19, x20, [sp,16]
	.cfi_offset 19, -80
	.cfi_offset 20, -72
	adrp	x20, __stack_chk_guard
	sxtw	x19, w2
	stp	x21, x22, [sp,32]
	.cfi_offset 21, -64
	.cfi_offset 22, -56
	.loc 1 265 0
	lsl	x21, x19, 6
	.loc 1 256 0
	str	x23, [sp,48]
	.cfi_offset 23, -48
	.loc 1 256 0
	ldr	x2, [x20,#:lo12:__stack_chk_guard]
.LVL46:
	.loc 1 265 0
	sub	x21, x21, x19, lsl 4
	.loc 1 256 0
	str	x2, [x29,88]
	.loc 1 265 0
	adrp	x2, g_VdmDrvParam
	add	x2, x2, :lo12:g_VdmDrvParam
	.loc 1 258 0
	str	wzr, [x29,84]
.LVL47:
	.loc 1 265 0
	add	x2, x2, x21
	.loc 1 267 0
	cmp	w19, wzr
	.loc 1 256 0
	mov	x21, x0
	.loc 1 265 0
	ldr	w23, [x2,8]
	.loc 1 267 0
	bgt	.L64
	.loc 1 273 0
	ldr	x0, [x1]
	cbz	x0, .L65
.LVL48:
.L37:
	.loc 1 287 0
	ldrh	w4, [x21,150]
	.loc 1 298 0 discriminator 1
	lsl	x0, x19, 4
.LVL49:
	.loc 1 287 0
	ldrh	w6, [x21,146]
	.loc 1 298 0 discriminator 1
	add	x0, x0, x19, lsl 2
	.loc 1 287 0
	ldr	w2, [x29,84]
	.loc 1 298 0 discriminator 1
	adrp	x22, g_HwMem
	sub	x0, x0, x19
	add	x5, x22, :lo12:g_HwMem
	.loc 1 287 0
	mul	w4, w4, w6
	.loc 1 298 0 discriminator 1
	lsl	x0, x0, 6
	.loc 1 287 0
	sub	w4, w4, #1
	bfi	w2, w4, 0, 20
	str	w2, [x29,84]
	.loc 1 288 0
	lsr	w4, w2, 24
	.loc 1 289 0
	ubfx	x2, x2, 16, 6
	.loc 1 288 0
	orr	w4, w4, 64
	.loc 1 298 0 discriminator 1
	ldr	x0, [x5,x0]
	.loc 1 292 0
	and	w4, w4, 124
	.loc 1 290 0
	orr	w2, w2, 64
	.loc 1 296 0
	orr	w4, w4, 1
	.loc 1 290 0
	strb	w2, [x29,86]
	.loc 1 296 0
	strb	w4, [x29,87]
	.loc 1 298 0 discriminator 1
	ldr	w2, [x29,84]
	str	w2, [x0,8]
	.loc 1 301 0
	adrp	x0, s_pstVfmwChan
	add	x0, x0, :lo12:s_pstVfmwChan
.LVL50:
	ldr	x0, [x0,w23,sxtw 3]
	cbz	x0, .L53
	.loc 1 303 0
	ldrb	w0, [x0,40]
	cmp	w0, 1
	cset	w10, eq
.L39:
	.loc 1 309 0
	str	wzr, [x29,84]
	.loc 1 310 0
	mov	w9, 3
	.loc 1 311 0
	ldr	w2, [x21,216]
	.loc 1 320 0 discriminator 1
	lsl	x0, x19, 4
	.loc 1 315 0
	ldrb	w4, [x29,87]
	.loc 1 319 0
	add	x8, x21, 45056
	.loc 1 310 0
	strb	w9, [x29,84]
	.loc 1 320 0 discriminator 1
	add	x0, x0, x19, lsl 2
	.loc 1 315 0
	orr	w4, w4, 32
	strb	w4, [x29,87]
	.loc 1 311 0
	ldrh	w7, [x29,84]
	lsr	w2, w2, 6
	.loc 1 316 0
	ldrh	w6, [x29,86]
	.loc 1 320 0 discriminator 1
	sub	x0, x0, x19
	lsl	x0, x0, 6
	add	x5, x22, :lo12:g_HwMem
	.loc 1 316 0
	bfi	w6, w9, 0, 12
	.loc 1 311 0
	bfi	w7, w2, 4, 9
	.loc 1 319 0
	ldr	w9, [x8,236]
	.loc 1 317 0
	ubfx	x2, x6, 8, 7
	.loc 1 312 0
	lsr	x4, x7, 8
	.loc 1 316 0
	strh	w6, [x29,86]
	.loc 1 311 0
	strh	w7, [x29,84]
	.loc 1 318 0
	and	w2, w2, -17
	.loc 1 314 0
	orr	w4, w4, -64
	.loc 1 320 0 discriminator 1
	ldr	x6, [x5,x0]
	.loc 1 314 0
	bfi	w4, w10, 5, 1
	.loc 1 319 0
	bfi	w2, w9, 6, 1
	.loc 1 314 0
	strb	w4, [x29,85]
	.loc 1 319 0
	strb	w2, [x29,87]
	.loc 1 320 0 discriminator 1
	ldr	w2, [x29,84]
	str	w2, [x6,12]
	.loc 1 330 0
	str	wzr, [x29,84]
	.loc 1 324 0 discriminator 1
	ldr	x4, [x5,x0]
	.loc 1 323 0
	ldr	w2, [x1,52]
	and	w2, w2, -16
	.loc 1 324 0 discriminator 1
	str	w2, [x4,16]
	.loc 1 328 0 discriminator 1
	ldr	x2, [x5,x0]
	.loc 1 327 0
	ldr	w0, [x1,36]
	and	w0, w0, -16
	.loc 1 328 0 discriminator 1
	str	w0, [x2,20]
	.loc 1 331 0 discriminator 1
	ldr	w1, [x8,232]
.LVL51:
	cbz	w1, .L40
	sub	w1, w1, #1
	mov	x4, 276
	mov	w5, 44
	add	x0, x21, 232
	mov	w2, -1
.LVL52:
	umaddl	x4, w1, w5, x4
	add	x4, x21, x4
.L41:
	.loc 1 336 0
	ldr	w1, [x0]
	cbz	w1, .L44
	.loc 1 336 0 is_stmt 0 discriminator 1
	ldr	w5, [x0,8]
	cmp	w5, wzr
	ble	.L44
	.loc 1 338 0 is_stmt 1
	and	w1, w1, -16
	.loc 1 339 0
	cmp	w2, w1
	csel	w2, w2, w1, ls
.L44:
	.loc 1 336 0
	ldr	w1, [x0,4]
	cbz	w1, .L42
	.loc 1 336 0 is_stmt 0 discriminator 1
	ldr	w5, [x0,12]
	cmp	w5, wzr
	ble	.L42
	.loc 1 338 0 is_stmt 1
	and	w1, w1, -16
	.loc 1 339 0
	cmp	w2, w1
	csel	w2, w2, w1, ls
.L42:
	add	x0, x0, 44
	.loc 1 331 0 discriminator 1
	cmp	x0, x4
	bne	.L41
	.loc 1 344 0
	cmn	w2, #1
	beq	.L40
	.loc 1 356 0 discriminator 1
	lsl	x0, x19, 4
	.loc 1 353 0
	str	w2, [x3]
	.loc 1 356 0 discriminator 1
	add	x0, x0, x19, lsl 2
	add	x1, x22, :lo12:g_HwMem
	sub	x0, x0, x19
	lsl	x3, x0, 6
.LVL53:
	ldr	x0, [x1,x3]
	str	w2, [x0,24]
	.loc 1 359 0
	ldrh	w0, [x21,150]
	cmp	w0, 120
	bhi	.L47
	.loc 1 368 0
	adrp	x23, gScdRegBaseAddr
.LVL54:
	ldr	w0, [x23,#:lo12:gScdRegBaseAddr]
	add	w0, w0, 4
	bl	MEM_ReadPhyWord
.LVL55:
	.loc 1 375 0
	orr	w1, w0, 65536
.L51:
	.loc 1 377 0
	ldr	w0, [x23,#:lo12:gScdRegBaseAddr]
	add	w0, w0, 4
	bl	MEM_WritePhyWord
.LVL56:
	.loc 1 381 0 discriminator 1
	lsl	x0, x19, 4
	add	x1, x22, :lo12:g_HwMem
	add	x0, x0, x19, lsl 2
	mov	w2, 3075
	sub	x0, x0, x19
	movk	w2, 0x30, lsl 16
	lsl	x0, x0, 6
	.loc 1 382 0 discriminator 1
	mov	w7, 3075
	.loc 1 383 0 discriminator 1
	mov	w6, w7
	.loc 1 382 0 discriminator 1
	movk	w7, 0x30, lsl 16
	.loc 1 383 0 discriminator 1
	movk	w6, 0x30, lsl 16
	.loc 1 384 0 discriminator 1
	mov	w5, 3075
	.loc 1 381 0 discriminator 1
	ldr	x8, [x1,x0]
	.loc 1 384 0 discriminator 1
	movk	w5, 0x30, lsl 16
	.loc 1 385 0 discriminator 1
	mov	w4, 3075
	.loc 1 386 0 discriminator 1
	mov	w3, 3075
	.loc 1 385 0 discriminator 1
	movk	w4, 0x30, lsl 16
	.loc 1 386 0 discriminator 1
	movk	w3, 0x30, lsl 16
	.loc 1 381 0 discriminator 1
	str	w2, [x8,60]
	.loc 1 387 0 discriminator 1
	mov	w2, 3075
	movk	w2, 0x30, lsl 16
	.loc 1 382 0 discriminator 1
	ldr	x8, [x1,x0]
	str	w7, [x8,64]
	.loc 1 383 0 discriminator 1
	ldr	x7, [x1,x0]
	str	w6, [x7,68]
	.loc 1 384 0 discriminator 1
	ldr	x6, [x1,x0]
	str	w5, [x6,72]
	.loc 1 385 0 discriminator 1
	ldr	x5, [x1,x0]
	str	w4, [x5,76]
	.loc 1 386 0 discriminator 1
	ldr	x4, [x1,x0]
	str	w3, [x4,80]
	.loc 1 387 0 discriminator 1
	ldr	x3, [x1,x0]
	str	w2, [x3,84]
	.loc 1 391 0 discriminator 1
	ldr	x1, [x1,x0]
	.loc 1 390 0
	ldr	w0, [x21,188]
	and	w0, w0, -16
	.loc 1 391 0 discriminator 1
	str	w0, [x1,96]
	.loc 1 393 0
	ldrb	w1, [x21,3]
	ldrh	w0, [x21,146]
	sub	w1, w1, #1
	uxtb	w1, w1
	cmp	w1, 1
	bls	.L49
	.loc 1 394 0
	ldr	w6, [x21,216]
.LVL57:
.L50:
	.loc 1 395 0 discriminator 1
	lsl	x4, x19, 4
	add	x22, x22, :lo12:g_HwMem
	add	x4, x4, x19, lsl 2
	.loc 1 400 0
	add	w3, w0, 1
	.loc 1 395 0 discriminator 1
	sub	x4, x4, x19
	.loc 1 400 0
	lsr	w3, w3, 1
	.loc 1 395 0 discriminator 1
	lsl	x4, x4, 6
	.loc 1 405 0
	mov	w5, 0
	.loc 1 404 0
	str	wzr, [x29,84]
	.loc 1 416 0
	adrp	x1, .LC11
	mov	w0, 3
.LVL58:
	add	x1, x1, :lo12:.LC11
	.loc 1 395 0 discriminator 1
	ldr	x7, [x22,x4]
	.loc 1 416 0
	mov	w2, 0
	.loc 1 395 0 discriminator 1
	str	w6, [x7,100]
	ldr	w6, [x21,216]
	.loc 1 402 0 discriminator 1
	ldr	x7, [x22,x4]
	lsl	w6, w6, 1
	.loc 1 401 0
	mul	w3, w6, w3
	.loc 1 402 0 discriminator 1
	str	w3, [x7,104]
	.loc 1 405 0
	ldr	w3, [x21,196]
	.loc 1 406 0
	ldr	w6, [x21,192]
	.loc 1 405 0
	bfi	w5, w3, 0, 2
	.loc 1 407 0 discriminator 1
	ldr	x3, [x22,x4]
	.loc 1 406 0
	bfi	w5, w6, 2, 2
	strb	w5, [x29,84]
	.loc 1 407 0 discriminator 1
	ldr	w5, [x29,84]
	str	w5, [x3,148]
	.loc 1 409 0
	str	wzr, [x29,84]
	.loc 1 411 0 discriminator 1
	ldr	x3, [x22,x4]
	.loc 1 410 0
	strb	wzr, [x29,84]
	.loc 1 411 0 discriminator 1
	ldr	w5, [x29,84]
	str	w5, [x3,152]
	.loc 1 415 0 discriminator 1
	ldr	x3, [x22,x4]
	str	wzr, [x3,108]
	.loc 1 416 0
	bl	dprint_linux_kernel
.LVL59:
	.loc 1 418 0
	mov	w0, 0
.LVL60:
.L36:
	.loc 1 419 0
	ldr	x2, [x29,88]
	ldr	x1, [x20,#:lo12:__stack_chk_guard]
	cmp	x2, x1
	bne	.L66
	ldp	x19, x20, [sp,16]
	.cfi_remember_state
	.cfi_restore 20
	.cfi_restore 19
.LVL61:
	ldp	x21, x22, [sp,32]
	.cfi_restore 22
	.cfi_restore 21
.LVL62:
	ldr	x23, [sp,48]
	.cfi_restore 23
.LVL63:
	ldp	x29, x30, [sp], 96
	.cfi_restore 30
	.cfi_restore 29
	.cfi_def_cfa 31, 0
	ret
.LVL64:
.L47:
	.cfi_restore_state
	.loc 1 368 0
	adrp	x23, gScdRegBaseAddr
.LVL65:
	ldr	w0, [x23,#:lo12:gScdRegBaseAddr]
	add	w0, w0, 4
	bl	MEM_ReadPhyWord
.LVL66:
	.loc 1 371 0
	and	w1, w0, -65537
	b	.L51
.LVL67:
.L53:
	mov	w10, 0
	b	.L39
.LVL68:
.L65:
	.loc 1 275 0
	adrp	x0, gVdhRegBaseAddr
	str	x3, [x29,64]
	str	x1, [x29,72]
	ldr	w0, [x0,#:lo12:gVdhRegBaseAddr]
	bl	MEM_Phy2Vir
.LVL69:
	cbz	x0, .L38
	.loc 1 277 0
	ldr	x1, [x29,72]
.LVL70:
	ldr	x3, [x29,64]
.LVL71:
	str	x0, [x1]
	b	.L37
.LVL72:
.L64:
	.loc 1 269 0
	adrp	x1, .LC8
.LVL73:
	adrp	x2, .LANCHOR0
	mov	w0, 0
	add	x1, x1, :lo12:.LC8
	add	x2, x2, :lo12:.LANCHOR0
	mov	w3, w19
.LVL74:
	mov	w4, 0
	bl	dprint_linux_kernel
.LVL75:
	.loc 1 270 0
	mov	w0, -1
	b	.L36
.LVL76:
.L40:
	.loc 1 346 0
	adrp	x1, .LC10
	mov	w0, 0
	add	x1, x1, :lo12:.LC10
	mov	w2, -1
.LVL77:
	str	x3, [x29,72]
	bl	dprint_linux_kernel
.LVL78:
	.loc 1 347 0
	ldr	x3, [x29,72]
.LVL79:
	.loc 1 348 0
	mov	w0, -1
	.loc 1 347 0
	str	wzr, [x3]
	.loc 1 348 0
	b	.L36
.L66:
	.loc 1 419 0
	bl	__stack_chk_fail
.LVL80:
.L38:
	.loc 1 281 0
	adrp	x1, .LC9
	mov	w0, 0
.LVL81:
	add	x1, x1, :lo12:.LC9
	bl	dprint_linux_kernel
.LVL82:
	.loc 1 282 0
	mov	w0, -1
	b	.L36
.L49:
	.loc 1 393 0 discriminator 4
	lsl	w0, w0, 1
.LVL83:
	.loc 1 394 0
	ldr	w6, [x21,216]
	b	.L50
	.cfi_endproc
.LFE2318:
	.size	MP2HAL_CfgReg, .-MP2HAL_CfgReg
	.align	2
	.global	MP2HAL_CfgDnMsg
	.type	MP2HAL_CfgDnMsg, %function
MP2HAL_CfgDnMsg:
.LFB2319:
	.loc 1 423 0
	.cfi_startproc
.LVL84:
	sub	sp, sp, #112
	.cfi_def_cfa_offset 112
	stp	x29, x30, [sp,16]
	.cfi_offset 29, -96
	.cfi_offset 30, -88
	add	x29, sp, 16
	.cfi_def_cfa 29, 96
	stp	x21, x22, [sp,48]
	.cfi_offset 21, -64
	.cfi_offset 22, -56
	adrp	x21, __stack_chk_guard
	mov	x22, x1
	stp	x19, x20, [sp,32]
	stp	x23, x24, [sp,64]
	stp	x25, x26, [sp,80]
	.cfi_offset 19, -80
	.cfi_offset 20, -72
	.cfi_offset 23, -48
	.cfi_offset 24, -40
	.cfi_offset 25, -32
	.cfi_offset 26, -24
	.loc 1 423 0
	mov	x20, x0
	mov	w23, w3
	.loc 1 432 0
	ldr	w0, [x1,52]
.LVL85:
	.loc 1 423 0
	ldr	x1, [x21,#:lo12:__stack_chk_guard]
.LVL86:
	.loc 1 425 0
	str	wzr, [x29,84]
.LVL87:
	.loc 1 423 0
	str	x1, [x29,88]
	.loc 1 432 0
	bl	MEM_Phy2Vir
.LVL88:
	mov	x19, x0
.LVL89:
	.loc 1 433 0
	cbz	x0, .L93
	.loc 1 435 0
	ldrh	w0, [x20,150]
	cmp	w0, 512
	bhi	.L94
	.loc 1 436 0
	ldrh	w1, [x20,146]
	cmp	w1, 512
	bhi	.L95
	.loc 1 440 0
	ldrh	w2, [x29,86]
	sub	w1, w1, #1
	.loc 1 441 0
	ldr	w4, [x20,176]
	.loc 1 439 0
	sub	w0, w0, #1
	ldrh	w3, [x29,84]
	.loc 1 440 0
	bfi	w2, w1, 0, 9
	.loc 1 441 0
	lsr	x1, x2, 8
	.loc 1 440 0
	strh	w2, [x29,86]
	.loc 1 439 0
	bfi	w3, w0, 0, 9
	.loc 1 441 0
	bfi	w1, w4, 1, 1
	.loc 1 439 0
	strh	w3, [x29,84]
	.loc 1 449 0
	mov	w0, 0
	.loc 1 441 0
	strb	w1, [x29,87]
	.loc 1 446 0
	mov	w2, 0
	.loc 1 445 0
	mov	w9, 0
	.loc 1 448 0
	mov	w8, 0
	.loc 1 442 0
	ldr	w3, [x29,84]
	.loc 1 458 0
	mov	w1, 0
	.loc 1 442 0
	str	w3, [x19]
	.loc 1 455 0
	mov	w7, 0
	.loc 1 456 0
	mov	w6, 0
	.loc 1 457 0
	mov	w5, 0
	.loc 1 449 0
	ldrb	w12, [x20]
	.loc 1 463 0
	mov	w4, 0
	.loc 1 446 0
	ldrb	w11, [x20,3]
	.loc 1 464 0
	mov	w3, 0
	.loc 1 450 0
	ldrb	w10, [x20,2]
	.loc 1 449 0
	bfi	w0, w12, 0, 3
	.loc 1 445 0
	ldrb	w13, [x20,5]
	.loc 1 446 0
	bfi	w2, w11, 0, 2
	.loc 1 447 0
	ldrb	w12, [x20,4]
	.loc 1 450 0
	bfi	w0, w10, 3, 1
	.loc 1 448 0
	ldrb	w11, [x20,7]
	.loc 1 445 0
	bfi	w9, w13, 0, 1
	.loc 1 451 0
	ldrb	w10, [x20,1]
	.loc 1 447 0
	bfi	w2, w12, 2, 1
	.loc 1 445 0
	strb	w9, [x29,84]
	.loc 1 448 0
	bfi	w8, w11, 0, 1
	.loc 1 447 0
	strb	w2, [x29,85]
	.loc 1 451 0
	bfi	w0, w10, 4, 1
	.loc 1 448 0
	strb	w8, [x29,86]
	.loc 1 465 0
	mov	w2, 0
	.loc 1 451 0
	strb	w0, [x29,87]
	.loc 1 466 0
	mov	w0, 0
	.loc 1 452 0
	ldr	w8, [x29,84]
	str	w8, [x19,4]
	.loc 1 458 0
	ldrb	w8, [x20,12]
	.loc 1 455 0
	ldrb	w11, [x20,15]
	.loc 1 456 0
	ldrb	w10, [x20,14]
	.loc 1 458 0
	bfi	w1, w8, 0, 4
	.loc 1 457 0
	ldrb	w9, [x20,13]
	.loc 1 455 0
	bfi	w7, w11, 0, 4
	.loc 1 459 0
	ldrb	w8, [x20,6]
	.loc 1 456 0
	bfi	w6, w10, 0, 4
	.loc 1 455 0
	strb	w7, [x29,84]
	.loc 1 457 0
	bfi	w5, w9, 0, 4
	.loc 1 456 0
	strb	w6, [x29,85]
	.loc 1 459 0
	bfi	w1, w8, 7, 1
	.loc 1 457 0
	strb	w5, [x29,86]
	.loc 1 459 0
	strb	w1, [x29,87]
	.loc 1 460 0
	ldr	w1, [x29,84]
	str	w1, [x19,8]
	.loc 1 463 0
	ldrb	w1, [x20,11]
	bfi	w4, w1, 0, 2
	strb	w4, [x29,84]
	.loc 1 464 0
	ldrb	w5, [x20,10]
	.loc 1 465 0
	ldrb	w4, [x20,9]
	.loc 1 466 0
	ldrb	w1, [x20,8]
	.loc 1 464 0
	bfi	w3, w5, 0, 1
	.loc 1 465 0
	bfi	w2, w4, 0, 1
	.loc 1 464 0
	strb	w3, [x29,85]
	.loc 1 465 0
	strb	w2, [x29,86]
	.loc 1 466 0
	bfi	w0, w1, 0, 1
	strb	w0, [x29,87]
	.loc 1 467 0
	ldr	w0, [x29,84]
	str	w0, [x19,12]
	.loc 1 470 0
	ldr	w0, [x20,180]
	add	w0, w0, 15
	and	w0, w0, -16
	.loc 1 471 0
	str	w0, [x19,16]
	.loc 1 474 0
	ldr	w0, [x20,184]
	add	w0, w0, 15
	and	w0, w0, -16
	.loc 1 475 0
	str	w0, [x19,20]
	.loc 1 478 0
	ldr	w0, [x20,212]
	add	w0, w0, 15
	and	w0, w0, -16
	.loc 1 479 0
	str	w0, [x19,24]
	.loc 1 482 0
	ldr	w0, [x20,220]
	add	w0, w0, 15
	and	w0, w0, -16
	.loc 1 483 0
	str	w0, [x19,28]
	.loc 1 482 0
	str	w0, [x29,84]
	.loc 1 485 0
	ldr	w0, [x20,152]
	bl	MEM_Phy2Vir
.LVL90:
	mov	x24, x0
	.loc 1 486 0
	ldr	w0, [x20,156]
	bl	MEM_Phy2Vir
.LVL91:
	mov	x26, x0
	.loc 1 488 0
	ldr	w0, [x20,172]
	cbz	w0, .L96
	.loc 1 523 0
	ldr	w25, [x20,164]
	.loc 1 528 0
	mov	w4, 0
	.loc 1 525 0
	ldr	w0, [x20,160]
	.loc 1 532 0
	mov	w3, 0
	.loc 1 523 0
	ldr	w5, [x20,156]
	.loc 1 533 0
	mov	w2, 0
	.loc 1 525 0
	ldr	w1, [x20,152]
	.loc 1 523 0
	add	w25, w5, w25, lsr 3
.LVL92:
	.loc 1 525 0
	add	w0, w1, w0, lsr 3
	.loc 1 524 0
	and	w5, w25, -16
.LVL93:
	.loc 1 528 0
	and	w1, w0, -16
	.loc 1 533 0
	and	w0, w0, 15
	.loc 1 528 0
	sub	w1, w1, w5
	bfi	w4, w1, 0, 24
	.loc 1 529 0
	str	w4, [x19,32]
	.loc 1 533 0
	ldr	w1, [x20,160]
	.loc 1 532 0
	ldr	w4, [x20,168]
	.loc 1 533 0
	and	w1, w1, 7
	add	w0, w1, w0, lsl 3
	.loc 1 532 0
	bfi	w3, w4, 0, 24
	str	w3, [x29,84]
	.loc 1 533 0
	bfi	w2, w0, 0, 7
	strb	w2, [x29,87]
	.loc 1 534 0
	ldr	w0, [x29,84]
	str	w0, [x19,36]
	.loc 1 536 0
	cbz	x24, .L75
.LBB2:
	.loc 1 538 0
	ldr	w2, [x20,160]
	.loc 1 539 0
	adrp	x1, .LC18
	add	x1, x1, :lo12:.LC18
	mov	w0, 8
	.loc 1 538 0
	ubfx	x2, x2, 3, 29
	add	x8, x24, x2
	.loc 1 539 0
	ldrb	w2, [x24,x2]
	ldrb	w9, [x8,6]
	ldrb	w3, [x8,1]
	ldrb	w4, [x8,2]
	ldrb	w5, [x8,3]
.LVL94:
	ldrb	w6, [x8,4]
	ldrb	w7, [x8,5]
	str	w9, [sp]
	ldrb	w8, [x8,7]
	str	w8, [sp,8]
	bl	dprint_linux_kernel
.LVL95:
	.loc 1 541 0
	ldr	w1, [x20,168]
	ldr	w2, [x20,160]
	cmp	w1, wzr
	add	w0, w1, 7
	csel	w0, w0, w1, lt
	ubfx	x2, x2, 3, 29
	asr	w0, w0, 3
	add	x2, x2, x0, sxtw
	sub	x2, x2, #8
	.loc 1 542 0
	adrp	x1, .LC19
	.loc 1 541 0
	add	x8, x24, x2
	.loc 1 542 0
	add	x1, x1, :lo12:.LC19
	mov	w0, 9
	ldrb	w2, [x24,x2]
	ldrb	w9, [x8,6]
	ldrb	w3, [x8,1]
	ldrb	w4, [x8,2]
	ldrb	w5, [x8,3]
	ldrb	w6, [x8,4]
	ldrb	w7, [x8,5]
	str	w9, [sp]
	ldrb	w8, [x8,7]
	str	w8, [sp,8]
	bl	dprint_linux_kernel
.LVL96:
	.loc 1 544 0
	ldr	w3, [x20,168]
	adrp	x1, .LC20
	ldr	w2, [x20,152]
	mov	w0, 22
	add	x1, x1, :lo12:.LC20
	add	w2, w3, w2
	bl	dprint_linux_kernel
.LVL97:
.L75:
.LBE2:
	.loc 1 549 0
	str	wzr, [x19,40]
	.loc 1 553 0
	and	w25, w25, 15
.LVL98:
	.loc 1 552 0
	mov	w3, 0
	.loc 1 553 0
	mov	w2, 0
	.loc 1 552 0
	ldr	w1, [x20,172]
	.loc 1 553 0
	ldr	w0, [x20,164]
	.loc 1 552 0
	add	w1, w1, 24
	.loc 1 553 0
	and	w0, w0, 7
	.loc 1 552 0
	bfi	w3, w1, 0, 24
	.loc 1 553 0
	add	w25, w0, w25, lsl 3
	.loc 1 552 0
	str	w3, [x29,84]
	.loc 1 553 0
	bfi	w2, w25, 0, 7
	strb	w2, [x29,87]
	.loc 1 554 0
	ldr	w0, [x29,84]
	str	w0, [x19,44]
	.loc 1 556 0
	cbz	x26, .L76
.LBB3:
	.loc 1 558 0
	ldr	w2, [x20,164]
	.loc 1 559 0
	adrp	x1, .LC21
	add	x1, x1, :lo12:.LC21
	mov	w0, 8
	.loc 1 558 0
	ubfx	x2, x2, 3, 29
	add	x8, x26, x2
	.loc 1 559 0
	ldrb	w2, [x26,x2]
	ldrb	w9, [x8,6]
	ldrb	w3, [x8,1]
	ldrb	w4, [x8,2]
	ldrb	w5, [x8,3]
.LVL99:
	ldrb	w6, [x8,4]
	ldrb	w7, [x8,5]
	str	w9, [sp]
	ldrb	w8, [x8,7]
	str	w8, [sp,8]
	bl	dprint_linux_kernel
.LVL100:
	.loc 1 561 0
	ldr	w1, [x20,172]
	ldr	w2, [x20,164]
	add	w0, w1, 7
	cmp	w1, wzr
	csel	w0, w0, w1, lt
	ubfx	x2, x2, 3, 29
	asr	w0, w0, 3
	add	x2, x2, x0, sxtw
	sub	x2, x2, #8
	.loc 1 562 0
	adrp	x1, .LC22
	.loc 1 561 0
	add	x8, x26, x2
	.loc 1 562 0
	add	x1, x1, :lo12:.LC22
	mov	w0, 9
	ldrb	w2, [x26,x2]
	ldrb	w9, [x8,6]
	ldrb	w3, [x8,1]
	ldrb	w4, [x8,2]
	ldrb	w5, [x8,3]
	ldrb	w6, [x8,4]
	ldrb	w7, [x8,5]
	str	w9, [sp]
	ldrb	w8, [x8,7]
	str	w8, [sp,8]
	bl	dprint_linux_kernel
.LVL101:
.L76:
	add	x0, x20, 16
	add	x1, x19, 64
	add	x6, x20, 24
.L74:
.LBE3:
	.loc 1 571 0
	ldrb	w5, [x0,64]
.LVL102:
	add	x0, x0, 1
	strb	w5, [x29,84]
	add	x1, x1, 8
	.loc 1 567 0 discriminator 1
	cmp	x0, x6
	.loc 1 572 0
	ldrb	w4, [x0,79]
	.loc 1 573 0
	ldrb	w3, [x0,95]
	.loc 1 574 0
	ldrb	w2, [x0,111]
	.loc 1 572 0
	strb	w4, [x29,85]
	.loc 1 573 0
	strb	w3, [x29,86]
	.loc 1 574 0
	strb	w2, [x29,87]
	.loc 1 576 0
	ldr	w2, [x29,84]
	str	w2, [x1,-8]
	.loc 1 578 0
	ldrb	w5, [x0,-1]
	.loc 1 579 0
	ldrb	w4, [x0,15]
	.loc 1 580 0
	ldrb	w3, [x0,31]
	.loc 1 581 0
	ldrb	w2, [x0,47]
	.loc 1 578 0
	strb	w5, [x29,84]
	.loc 1 579 0
	strb	w4, [x29,85]
	.loc 1 580 0
	strb	w3, [x29,86]
	.loc 1 581 0
	strb	w2, [x29,87]
	.loc 1 583 0
	ldr	w2, [x29,84]
	str	w2, [x1,56]
	.loc 1 573 0
	ldrb	w3, [x0,103]
	.loc 1 574 0
	ldrb	w2, [x0,119]
	.loc 1 571 0
	ldrb	w5, [x0,71]
	.loc 1 572 0
	ldrb	w4, [x0,87]
	.loc 1 571 0
	strb	w5, [x29,84]
	.loc 1 573 0
	strb	w3, [x29,86]
	.loc 1 572 0
	strb	w4, [x29,85]
	.loc 1 574 0
	strb	w2, [x29,87]
	.loc 1 576 0
	ldr	w2, [x29,84]
	str	w2, [x1,-4]
	.loc 1 578 0
	ldrb	w3, [x0,7]
	.loc 1 579 0
	ldrb	w2, [x0,23]
	.loc 1 578 0
	strb	w3, [x29,84]
	.loc 1 579 0
	strb	w2, [x29,85]
	.loc 1 581 0
	ldrb	w2, [x0,55]
	.loc 1 580 0
	ldrb	w3, [x0,39]
	strb	w3, [x29,86]
	.loc 1 581 0
	strb	w2, [x29,87]
	.loc 1 583 0
	ldr	w2, [x29,84]
	str	w2, [x1,60]
	.loc 1 567 0 discriminator 1
	bne	.L74
	.loc 1 588 0
	ldr	w0, [x22,1140]
	add	w0, w0, 15
	and	w0, w0, -16
	.loc 1 589 0
	str	w0, [x19,192]
	.loc 1 588 0
	str	w0, [x29,84]
	.loc 1 592 0
	ldr	w24, [x22,52]
	and	w24, w24, -16
	add	w24, w24, 256
.LVL103:
	.loc 1 593 0
	mov	w0, w24
	bl	MEM_Phy2Vir
.LVL104:
	mov	x1, x0
.LVL105:
	.loc 1 594 0
	cbz	x0, .L97
	.loc 1 598 0
	str	w24, [x19,252]
	.loc 1 601 0
	mov	x0, x20
	mov	w2, w24
	mov	w3, w23
	.loc 1 597 0
	str	w24, [x29,84]
	.loc 1 601 0
	bl	MP2HAL_WriteSliceMsg
.LVL106:
.LBB4:
	.loc 1 606 0
	adrp	x1, g_PrintEnable
.LBE4:
	.loc 1 620 0
	mov	w0, 0
.LBB5:
	.loc 1 606 0
	ldr	w1, [x1,#:lo12:g_PrintEnable]
	tbnz	x1, 4, .L98
.LVL107:
.L69:
.LBE5:
	.loc 1 621 0
	ldr	x2, [x29,88]
	ldr	x1, [x21,#:lo12:__stack_chk_guard]
	cmp	x2, x1
	bne	.L99
	sub	sp, x29, #16
	.cfi_remember_state
	.cfi_def_cfa 31, 112
	ldp	x19, x20, [sp,32]
	.cfi_restore 20
	.cfi_restore 19
.LVL108:
	ldp	x21, x22, [sp,48]
	.cfi_restore 22
	.cfi_restore 21
.LVL109:
	ldp	x23, x24, [sp,64]
	.cfi_restore 24
	.cfi_restore 23
.LVL110:
	ldp	x25, x26, [sp,80]
	.cfi_restore 26
	.cfi_restore 25
	ldp	x29, x30, [sp,16]
	.cfi_restore 30
	.cfi_restore 29
	add	sp, sp, 112
	.cfi_def_cfa_offset 0
	ret
.LVL111:
.L96:
	.cfi_restore_state
	.loc 1 490 0
	ldr	w0, [x20,160]
	.loc 1 498 0
	mov	w4, 0
	.loc 1 490 0
	ldr	w1, [x20,152]
	.loc 1 499 0
	mov	w3, 0
	.loc 1 495 0
	str	wzr, [x19,32]
	.loc 1 490 0
	add	w1, w1, w0, lsr 3
	.loc 1 498 0
	ldr	w2, [x20,168]
	.loc 1 499 0
	and	w1, w1, 15
	ldr	w0, [x20,160]
	.loc 1 498 0
	add	w2, w2, 24
	.loc 1 499 0
	and	w0, w0, 7
	.loc 1 498 0
	bfi	w4, w2, 0, 24
	.loc 1 499 0
	add	w0, w0, w1, lsl 3
	.loc 1 498 0
	str	w4, [x29,84]
	.loc 1 499 0
	bfi	w3, w0, 0, 7
	strb	w3, [x29,87]
	.loc 1 500 0
	ldr	w0, [x29,84]
	str	w0, [x19,36]
	.loc 1 502 0
	cbz	x24, .L73
.LBB6:
	.loc 1 504 0
	ldr	w2, [x20,160]
	.loc 1 505 0
	adrp	x1, .LC16
	add	x1, x1, :lo12:.LC16
	mov	w0, 8
	.loc 1 504 0
	ubfx	x2, x2, 3, 29
	add	x8, x24, x2
	.loc 1 505 0
	ldrb	w2, [x24,x2]
	ldrb	w9, [x8,6]
	ldrb	w3, [x8,1]
	ldrb	w4, [x8,2]
	ldrb	w5, [x8,3]
	ldrb	w6, [x8,4]
	ldrb	w7, [x8,5]
	str	w9, [sp]
	ldrb	w8, [x8,7]
	str	w8, [sp,8]
	bl	dprint_linux_kernel
.LVL112:
	.loc 1 507 0
	ldr	w1, [x20,168]
	ldr	w2, [x20,160]
	add	w0, w1, 7
	cmp	w1, wzr
	csel	w0, w0, w1, lt
	ubfx	x2, x2, 3, 29
	asr	w0, w0, 3
	add	x2, x2, x0, sxtw
	sub	x2, x2, #8
	.loc 1 508 0
	adrp	x1, .LC17
	.loc 1 507 0
	add	x8, x24, x2
	.loc 1 508 0
	mov	w0, 9
	add	x1, x1, :lo12:.LC17
	ldrb	w2, [x24,x2]
	ldrb	w9, [x8,6]
	ldrb	w3, [x8,1]
	ldrb	w4, [x8,2]
	ldrb	w5, [x8,3]
	ldrb	w6, [x8,4]
	ldrb	w7, [x8,5]
	str	w9, [sp]
	ldrb	w8, [x8,7]
	str	w8, [sp,8]
	bl	dprint_linux_kernel
.LVL113:
.L73:
.LBE6:
	.loc 1 514 0
	str	wzr, [x19,40]
	.loc 1 517 0
	str	wzr, [x29,84]
	.loc 1 518 0
	strb	wzr, [x29,87]
	.loc 1 519 0
	ldr	w0, [x29,84]
	str	w0, [x19,44]
	b	.L76
.LVL114:
.L98:
.LBB7:
	.loc 1 608 0
	adrp	x4, .LANCHOR1
	.loc 1 609 0
	ldr	w3, [x22,52]
	adrp	x1, .LC24
	adrp	x22, .LC25
.LVL115:
	mov	w0, 4
	add	x1, x1, :lo12:.LC24
	.loc 1 608 0
	ldr	w2, [x4,#:lo12:.LANCHOR1]
	.loc 1 611 0
	mov	w20, 0
.LVL116:
	.loc 1 613 0
	add	x22, x22, :lo12:.LC25
	.loc 1 608 0
	add	w2, w2, 1
	str	w2, [x4,#:lo12:.LANCHOR1]
	.loc 1 609 0
	bl	dprint_linux_kernel
.LVL117:
.L78:
	.loc 1 613 0
	ldr	w3, [x19]
.LVL118:
	mov	w2, w20
	ldr	w4, [x19,4]
	mov	w0, 4
	ldr	w5, [x19,8]
	mov	x1, x22
	ldr	w6, [x19,12]
	.loc 1 611 0 discriminator 3
	add	w20, w20, w0
	add	x19, x19, 16
	.loc 1 613 0
	bl	dprint_linux_kernel
.LVL119:
	.loc 1 611 0 discriminator 1
	cmp	w20, 64
	bne	.L78
	.loc 1 617 0
	adrp	x1, .LC26
	mov	w0, 4
	add	x1, x1, :lo12:.LC26
	bl	dprint_linux_kernel
.LVL120:
.LBE7:
	.loc 1 620 0
	mov	w0, 0
	b	.L69
.LVL121:
.L95:
	.loc 1 436 0 discriminator 1
	adrp	x2, .LANCHOR0
	adrp	x1, .LC12
	add	x2, x2, :lo12:.LANCHOR0
	adrp	x4, .LC15
	mov	w0, 0
	add	x1, x1, :lo12:.LC12
	add	x2, x2, 16
	mov	w3, 436
	add	x4, x4, :lo12:.LC15
	bl	dprint_linux_kernel
.LVL122:
	mov	w0, -1
	.loc 1 436 0 is_stmt 0
	b	.L69
.L94:
	.loc 1 435 0 is_stmt 1 discriminator 1
	adrp	x2, .LANCHOR0
	adrp	x1, .LC12
	add	x2, x2, :lo12:.LANCHOR0
	adrp	x4, .LC14
	mov	w0, 0
	add	x1, x1, :lo12:.LC12
	add	x2, x2, 16
	mov	w3, 435
	add	x4, x4, :lo12:.LC14
	bl	dprint_linux_kernel
.LVL123:
	mov	w0, -1
	.loc 1 435 0 is_stmt 0
	b	.L69
.LVL124:
.L97:
	.loc 1 594 0 is_stmt 1 discriminator 1
	adrp	x2, .LANCHOR0
	adrp	x1, .LC12
	add	x2, x2, :lo12:.LANCHOR0
	adrp	x4, .LC23
	mov	w0, 0
.LVL125:
	add	x1, x1, :lo12:.LC12
	add	x2, x2, 16
	mov	w3, 594
	add	x4, x4, :lo12:.LC23
	bl	dprint_linux_kernel
.LVL126:
	mov	w0, -1
	.loc 1 594 0 is_stmt 0
	b	.L69
.LVL127:
.L93:
	.loc 1 433 0 is_stmt 1 discriminator 1
	adrp	x2, .LANCHOR0
	adrp	x1, .LC12
	add	x2, x2, :lo12:.LANCHOR0
	adrp	x4, .LC13
	mov	w0, 0
.LVL128:
	add	x1, x1, :lo12:.LC12
	add	x2, x2, 16
	mov	w3, 433
	add	x4, x4, :lo12:.LC13
	bl	dprint_linux_kernel
.LVL129:
	mov	w0, -1
	.loc 1 433 0 is_stmt 0
	b	.L69
.LVL130:
.L99:
	.loc 1 621 0 is_stmt 1
	bl	__stack_chk_fail
.LVL131:
	.cfi_endproc
.LFE2319:
	.size	MP2HAL_CfgDnMsg, .-MP2HAL_CfgDnMsg
	.align	2
	.global	MP2HAL_StartDec
	.type	MP2HAL_StartDec, %function
MP2HAL_StartDec:
.LFB2316:
	.loc 1 40 0
	.cfi_startproc
.LVL132:
	stp	x29, x30, [sp, -80]!
	.cfi_def_cfa_offset 80
	.cfi_offset 29, -80
	.cfi_offset 30, -72
	sxtw	x1, w1
.LVL133:
	add	x29, sp, 0
	.cfi_def_cfa_register 29
	stp	x21, x22, [sp,32]
	.cfi_offset 21, -48
	.cfi_offset 22, -40
	adrp	x22, __stack_chk_guard
.LVL134:
	.loc 1 45 0
	cmp	w1, wzr
	.loc 1 40 0
	stp	x19, x20, [sp,16]
	.cfi_offset 19, -64
	.cfi_offset 20, -56
	.loc 1 41 0
	lsl	x19, x1, 4
	adrp	x20, g_HwMem
	.loc 1 40 0
	ldr	x2, [x22,#:lo12:__stack_chk_guard]
	.loc 1 41 0
	add	x19, x19, x1, lsl 2
	.loc 1 40 0
	stp	x23, x24, [sp,48]
	.cfi_offset 23, -32
	.cfi_offset 24, -24
	.loc 1 41 0
	sub	x19, x19, x1
	.loc 1 40 0
	str	x2, [x29,72]
	.loc 1 41 0
	add	x20, x20, :lo12:g_HwMem
	lsl	x19, x19, 6
	.loc 1 40 0
	mov	x21, x1
.LVL135:
	mov	x24, x0
	.loc 1 41 0
	add	x23, x19, x20
.LVL136:
	.loc 1 45 0
	bgt	.L107
	.loc 1 51 0
	ldr	x0, [x20,x19]
	cbz	x0, .L108
.LVL137:
.L103:
	.loc 1 64 0
	adrp	x5, .LANCHOR2
	.loc 1 66 0
	mov	x0, x24
.LVL138:
	mov	x1, x23
.LVL139:
	mov	w2, w21
	add	x3, x29, 68
	.loc 1 64 0
	ldr	w4, [x5,#:lo12:.LANCHOR2]
	add	w4, w4, 1
	str	w4, [x5,#:lo12:.LANCHOR2]
	.loc 1 66 0
	bl	MP2HAL_CfgReg
.LVL140:
	mov	w19, w0
	cbnz	w0, .L109
.LVL141:
	.loc 1 72 0
	ldr	w3, [x29,68]
	mov	x0, x24
	mov	x1, x23
	mov	w2, w21
	bl	MP2HAL_CfgDnMsg
.LVL142:
.L102:
	.loc 1 75 0
	ldr	x2, [x29,72]
	mov	w0, w19
	ldr	x1, [x22,#:lo12:__stack_chk_guard]
	cmp	x2, x1
	bne	.L110
	ldp	x19, x20, [sp,16]
	.cfi_remember_state
	.cfi_restore 20
	.cfi_restore 19
	ldp	x21, x22, [sp,32]
	.cfi_restore 22
	.cfi_restore 21
.LVL143:
	ldp	x23, x24, [sp,48]
	.cfi_restore 24
	.cfi_restore 23
.LVL144:
	ldp	x29, x30, [sp], 80
	.cfi_restore 30
	.cfi_restore 29
	.cfi_def_cfa 31, 0
	ret
.LVL145:
.L108:
	.cfi_restore_state
	.loc 1 53 0
	adrp	x0, gVdhRegBaseAddr
	ldr	w0, [x0,#:lo12:gVdhRegBaseAddr]
	bl	MEM_Phy2Vir
.LVL146:
	cbz	x0, .L104
	.loc 1 55 0
	str	x0, [x20,x19]
	b	.L103
.LVL147:
.L107:
	.loc 1 47 0
	adrp	x2, .LANCHOR0
	adrp	x1, .LC8
	add	x2, x2, :lo12:.LANCHOR0
	add	x1, x1, :lo12:.LC8
	add	x2, x2, 32
.LVL148:
	mov	w3, w21
	mov	w4, 0
	mov	w0, 0
	.loc 1 48 0
	mov	w19, -1
	.loc 1 47 0
	bl	dprint_linux_kernel
.LVL149:
	.loc 1 48 0
	b	.L102
.L109:
	.loc 1 68 0
	adrp	x1, .LC27
	mov	w0, 1
	add	x1, x1, :lo12:.LC27
	.loc 1 69 0
	mov	w19, -1
	.loc 1 68 0
	bl	dprint_linux_kernel
.LVL150:
	.loc 1 69 0
	b	.L102
.LVL151:
.L104:
	.loc 1 59 0
	adrp	x1, .LC9
	mov	w0, 0
.LVL152:
	add	x1, x1, :lo12:.LC9
	.loc 1 60 0
	mov	w19, -1
	.loc 1 59 0
	bl	dprint_linux_kernel
.LVL153:
	.loc 1 60 0
	b	.L102
.LVL154:
.L110:
	.loc 1 75 0
	bl	__stack_chk_fail
.LVL155:
	.cfi_endproc
.LFE2316:
	.size	MP2HAL_StartDec, .-MP2HAL_StartDec
	.section	.rodata
	.align	3
.LANCHOR0 = . + 0
	.type	__func__.39276, %object
	.size	__func__.39276, 14
__func__.39276:
	.string	"MP2HAL_CfgReg"
	.zero	2
	.type	__func__.39299, %object
	.size	__func__.39299, 16
__func__.39299:
	.string	"MP2HAL_CfgDnMsg"
	.type	__func__.39233, %object
	.size	__func__.39233, 16
__func__.39233:
	.string	"MP2HAL_StartDec"
	.data
	.align	2
.LANCHOR2 = . + 0
	.type	FrameNum, %object
	.size	FrameNum, 4
FrameNum:
	.word	-1
	.section	.rodata.str1.8,"aMS",%progbits,1
	.align	3
.LC0:
	.string	"D0 = %#x \n"
	.zero	5
.LC1:
	.string	"D1 = %#x \n"
	.zero	5
.LC2:
	.string	"D2 = %#x \n"
	.zero	5
.LC3:
	.string	"D3 = %#x \n"
	.zero	5
.LC4:
	.string	"D4 = %#x \n"
	.zero	5
.LC5:
	.string	"D5 = %#x \n"
	.zero	5
.LC6:
	.string	"D6 = %#x \n"
	.zero	5
.LC7:
	.string	"D7 = %#x \n"
	.zero	5
.LC8:
	.string	"%s: VdhId(%d) > %d\n"
	.zero	4
.LC9:
	.string	"vdm register virtual address not mapped, reset failed!\n"
.LC10:
	.string	"stream_base_addr = %#x\n"
.LC11:
	.string	"HEAD_INF_OFFSET = 0x%x\n"
.LC12:
	.string	"%s %d: %s\n"
	.zero	5
.LC13:
	.string	"can not map down msg virtual address!"
	.zero	2
.LC14:
	.string	"picture width out of range"
	.zero	5
.LC15:
	.string	"picture height out of range"
	.zero	4
.LC16:
	.string	"Stream Head (8bytes): 0x%02x 0x%02x 0x%02x 0x%02x 0x%02x 0x%02x 0x%02x 0x%02x\n"
	.zero	1
.LC17:
	.string	"Stream Tail (8bytes): 0x%02x 0x%02x 0x%02x 0x%02x 0x%02x 0x%02x 0x%02x 0x%02x\n"
	.zero	1
.LC18:
	.string	"1p Stream Head (8bytes): 0x%02x 0x%02x 0x%02x 0x%02x 0x%02x 0x%02x 0x%02x 0x%02x\n"
	.zero	6
.LC19:
	.string	"1p Stream Tail (8bytes): 0x%02x 0x%02x 0x%02x 0x%02x 0x%02x 0x%02x 0x%02x 0x%02x\n"
	.zero	6
.LC20:
	.string	"1p last phy addr = 0x%x\n"
	.zero	7
.LC21:
	.string	"2p Stream Head (8bytes): 0x%02x 0x%02x 0x%02x 0x%02x 0x%02x 0x%02x 0x%02x 0x%02x\n"
	.zero	6
.LC22:
	.string	"2p Stream Tail (8bytes): 0x%02x 0x%02x 0x%02x 0x%02x 0x%02x 0x%02x 0x%02x 0x%02x\n"
	.zero	6
.LC23:
	.string	"can not map a valid SlcDnMsgVirAddr address"
	.zero	4
.LC24:
	.string	"\n*****No.%2d Down Msg (phy addr: %#8x) *****\n"
	.zero	2
.LC25:
	.string	"\n0x%02x 0x%08x 0x%08x 0x%08x 0x%08x\n"
	.zero	3
.LC26:
	.string	"\n***** Down Msg print finished *****\n"
	.zero	2
.LC27:
	.string	"MP2HAL_CfgReg ERROR!\n"
	.bss
	.align	2
.LANCHOR1 = . + 0
	.type	num.39310, %object
	.size	num.39310, 4
num.39310:
	.zero	4
	.text
.Letext0:
	.file 2 "/home/jenkins1/slave_49/workspace/CHICAGO_B100_chipset_component/opensource/component_code/vendor/huawei/extra/build/build_script/kirin_kernel_release/kernel/drivers/vcodec/hi_vcodec/vdec/include/hi_type.h"
	.file 3 "/home/jenkins1/slave_49/workspace/CHICAGO_B100_chipset_component/opensource/component_code/vendor/huawei/extra/build/build_script/kirin_kernel_release/kernel/drivers/vcodec/hi_vcodec/vdec/vfmw/vfmw_v4.0/vfmw.h"
	.file 4 "/home/jenkins1/slave_49/workspace/CHICAGO_B100_chipset_component/opensource/component_code/vendor/huawei/extra/build/build_script/kirin_kernel_release/kernel/include/uapi/asm-generic/int-ll64.h"
	.file 5 "/home/jenkins1/slave_49/workspace/CHICAGO_B100_chipset_component/opensource/component_code/vendor/huawei/extra/build/build_script/kirin_kernel_release/kernel/include/asm-generic/int-ll64.h"
	.file 6 "/home/jenkins1/slave_49/workspace/CHICAGO_B100_chipset_component/opensource/component_code/vendor/huawei/extra/build/build_script/kirin_kernel_release/kernel/include/uapi/asm-generic/posix_types.h"
	.file 7 "/home/jenkins1/slave_49/workspace/CHICAGO_B100_chipset_component/opensource/component_code/vendor/huawei/extra/build/build_script/kirin_kernel_release/kernel/include/linux/export.h"
	.file 8 "/home/jenkins1/slave_49/workspace/CHICAGO_B100_chipset_component/opensource/component_code/vendor/huawei/extra/build/build_script/kirin_kernel_release/kernel/include/linux/types.h"
	.file 9 "/home/jenkins1/slave_49/workspace/CHICAGO_B100_chipset_component/opensource/component_code/vendor/huawei/extra/build/build_script/kirin_kernel_release/kernel/include/asm-generic/bug.h"
	.file 10 "/home/jenkins1/slave_49/workspace/CHICAGO_B100_chipset_component/opensource/component_code/vendor/huawei/extra/build/build_script/kirin_kernel_release/kernel/include/linux/thread_info.h"
	.file 11 "/home/jenkins1/slave_49/workspace/CHICAGO_B100_chipset_component/opensource/component_code/vendor/huawei/extra/build/build_script/kirin_kernel_release/kernel/include/uapi/linux/time.h"
	.file 12 "/home/jenkins1/slave_49/workspace/CHICAGO_B100_chipset_component/opensource/component_code/vendor/huawei/extra/build/build_script/kirin_kernel_release/kernel/arch/arm64/include/asm/compat.h"
	.file 13 "/home/jenkins1/slave_49/workspace/CHICAGO_B100_chipset_component/opensource/component_code/vendor/huawei/extra/build/build_script/kirin_kernel_release/kernel/include/uapi/asm-generic/poll.h"
	.file 14 "/home/jenkins1/slave_49/workspace/CHICAGO_B100_chipset_component/opensource/component_code/vendor/huawei/extra/build/build_script/kirin_kernel_release/kernel/include/linux/sched.h"
	.file 15 "/home/jenkins1/slave_49/workspace/CHICAGO_B100_chipset_component/opensource/component_code/vendor/huawei/extra/build/build_script/kirin_kernel_release/kernel/arch/arm64/include/uapi/asm/ptrace.h"
	.file 16 "/home/jenkins1/slave_49/workspace/CHICAGO_B100_chipset_component/opensource/component_code/vendor/huawei/extra/build/build_script/kirin_kernel_release/kernel/arch/arm64/include/asm/ptrace.h"
	.file 17 "/home/jenkins1/slave_49/workspace/CHICAGO_B100_chipset_component/opensource/component_code/vendor/huawei/extra/build/build_script/kirin_kernel_release/kernel/arch/arm64/include/asm/spinlock_types.h"
	.file 18 "/home/jenkins1/slave_49/workspace/CHICAGO_B100_chipset_component/opensource/component_code/vendor/huawei/extra/build/build_script/kirin_kernel_release/kernel/include/linux/spinlock_types.h"
	.file 19 "/home/jenkins1/slave_49/workspace/CHICAGO_B100_chipset_component/opensource/component_code/vendor/huawei/extra/build/build_script/kirin_kernel_release/kernel/include/linux/rwlock_types.h"
	.file 20 "/home/jenkins1/slave_49/workspace/CHICAGO_B100_chipset_component/opensource/component_code/vendor/huawei/extra/build/build_script/kirin_kernel_release/kernel/arch/arm64/include/asm/fpsimd.h"
	.file 21 "/home/jenkins1/slave_49/workspace/CHICAGO_B100_chipset_component/opensource/component_code/vendor/huawei/extra/build/build_script/kirin_kernel_release/kernel/arch/arm64/include/asm/hw_breakpoint.h"
	.file 22 "/home/jenkins1/slave_49/workspace/CHICAGO_B100_chipset_component/opensource/component_code/vendor/huawei/extra/build/build_script/kirin_kernel_release/kernel/arch/arm64/include/asm/processor.h"
	.file 23 "/home/jenkins1/slave_49/workspace/CHICAGO_B100_chipset_component/opensource/component_code/vendor/huawei/extra/build/build_script/kirin_kernel_release/kernel/include/linux/perf_event.h"
	.file 24 "/home/jenkins1/slave_49/workspace/CHICAGO_B100_chipset_component/opensource/component_code/vendor/huawei/extra/build/build_script/kirin_kernel_release/kernel/include/asm-generic/atomic-long.h"
	.file 25 "/home/jenkins1/slave_49/workspace/CHICAGO_B100_chipset_component/opensource/component_code/vendor/huawei/extra/build/build_script/kirin_kernel_release/kernel/include/linux/wait.h"
	.file 26 "/home/jenkins1/slave_49/workspace/CHICAGO_B100_chipset_component/opensource/component_code/vendor/huawei/extra/build/build_script/kirin_kernel_release/kernel/include/linux/seqlock.h"
	.file 27 "/home/jenkins1/slave_49/workspace/CHICAGO_B100_chipset_component/opensource/component_code/vendor/huawei/extra/build/build_script/kirin_kernel_release/kernel/include/linux/nodemask.h"
	.file 28 "/home/jenkins1/slave_49/workspace/CHICAGO_B100_chipset_component/opensource/component_code/vendor/huawei/extra/build/build_script/kirin_kernel_release/kernel/include/linux/cpumask.h"
	.file 29 "/home/jenkins1/slave_49/workspace/CHICAGO_B100_chipset_component/opensource/component_code/vendor/huawei/extra/build/build_script/kirin_kernel_release/kernel/include/linux/completion.h"
	.file 30 "/home/jenkins1/slave_49/workspace/CHICAGO_B100_chipset_component/opensource/component_code/vendor/huawei/extra/build/build_script/kirin_kernel_release/kernel/include/linux/ktime.h"
	.file 31 "/home/jenkins1/slave_49/workspace/CHICAGO_B100_chipset_component/opensource/component_code/vendor/huawei/extra/build/build_script/kirin_kernel_release/kernel/include/linux/rbtree.h"
	.file 32 "/home/jenkins1/slave_49/workspace/CHICAGO_B100_chipset_component/opensource/component_code/vendor/huawei/extra/build/build_script/kirin_kernel_release/kernel/include/linux/osq_lock.h"
	.file 33 "/home/jenkins1/slave_49/workspace/CHICAGO_B100_chipset_component/opensource/component_code/vendor/huawei/extra/build/build_script/kirin_kernel_release/kernel/include/linux/rwsem.h"
	.file 34 "/home/jenkins1/slave_49/workspace/CHICAGO_B100_chipset_component/opensource/component_code/vendor/huawei/extra/build/build_script/kirin_kernel_release/kernel/include/linux/mm_types.h"
	.file 35 "/home/jenkins1/slave_49/workspace/CHICAGO_B100_chipset_component/opensource/component_code/vendor/huawei/extra/build/build_script/kirin_kernel_release/kernel/include/linux/lockdep.h"
	.file 36 "/home/jenkins1/slave_49/workspace/CHICAGO_B100_chipset_component/opensource/component_code/vendor/huawei/extra/build/build_script/kirin_kernel_release/kernel/include/linux/uprobes.h"
	.file 37 "/home/jenkins1/slave_49/workspace/CHICAGO_B100_chipset_component/opensource/component_code/vendor/huawei/extra/build/build_script/kirin_kernel_release/kernel/arch/arm64/include/asm/pgtable-types.h"
	.file 38 "/home/jenkins1/slave_49/workspace/CHICAGO_B100_chipset_component/opensource/component_code/vendor/huawei/extra/build/build_script/kirin_kernel_release/kernel/arch/arm64/include/asm/mmu.h"
	.file 39 "/home/jenkins1/slave_49/workspace/CHICAGO_B100_chipset_component/opensource/component_code/vendor/huawei/extra/build/build_script/kirin_kernel_release/kernel/include/linux/fs.h"
	.file 40 "/home/jenkins1/slave_49/workspace/CHICAGO_B100_chipset_component/opensource/component_code/vendor/huawei/extra/build/build_script/kirin_kernel_release/kernel/include/linux/mm.h"
	.file 41 "/home/jenkins1/slave_49/workspace/CHICAGO_B100_chipset_component/opensource/component_code/vendor/huawei/extra/build/build_script/kirin_kernel_release/kernel/include/linux/mmzone.h"
	.file 42 "/home/jenkins1/slave_49/workspace/CHICAGO_B100_chipset_component/opensource/component_code/vendor/huawei/extra/build/build_script/kirin_kernel_release/kernel/include/linux/mutex.h"
	.file 43 "/home/jenkins1/slave_49/workspace/CHICAGO_B100_chipset_component/opensource/component_code/vendor/huawei/extra/build/build_script/kirin_kernel_release/kernel/include/linux/timer.h"
	.file 44 "/home/jenkins1/slave_49/workspace/CHICAGO_B100_chipset_component/opensource/component_code/vendor/huawei/extra/build/build_script/kirin_kernel_release/kernel/include/linux/nsproxy.h"
	.file 45 "/home/jenkins1/slave_49/workspace/CHICAGO_B100_chipset_component/opensource/component_code/vendor/huawei/extra/build/build_script/kirin_kernel_release/kernel/include/linux/workqueue.h"
	.file 46 "/home/jenkins1/slave_49/workspace/CHICAGO_B100_chipset_component/opensource/component_code/vendor/huawei/extra/build/build_script/kirin_kernel_release/kernel/include/linux/llist.h"
	.file 47 "/home/jenkins1/slave_49/workspace/CHICAGO_B100_chipset_component/opensource/component_code/vendor/huawei/extra/build/build_script/kirin_kernel_release/kernel/arch/arm64/include/asm/smp.h"
	.file 48 "/home/jenkins1/slave_49/workspace/CHICAGO_B100_chipset_component/opensource/component_code/vendor/huawei/extra/build/build_script/kirin_kernel_release/kernel/include/linux/percpu.h"
	.file 49 "/home/jenkins1/slave_49/workspace/CHICAGO_B100_chipset_component/opensource/component_code/vendor/huawei/extra/build/build_script/kirin_kernel_release/kernel/include/linux/shrinker.h"
	.file 50 "/home/jenkins1/slave_49/workspace/CHICAGO_B100_chipset_component/opensource/component_code/vendor/huawei/extra/build/build_script/kirin_kernel_release/kernel/include/uapi/linux/resource.h"
	.file 51 "/home/jenkins1/slave_49/workspace/CHICAGO_B100_chipset_component/opensource/component_code/vendor/huawei/extra/build/build_script/kirin_kernel_release/kernel/include/linux/vm_event_item.h"
	.file 52 "/home/jenkins1/slave_49/workspace/CHICAGO_B100_chipset_component/opensource/component_code/vendor/huawei/extra/build/build_script/kirin_kernel_release/kernel/include/linux/vmstat.h"
	.file 53 "/home/jenkins1/slave_49/workspace/CHICAGO_B100_chipset_component/opensource/component_code/vendor/huawei/extra/build/build_script/kirin_kernel_release/kernel/include/linux/capability.h"
	.file 54 "/home/jenkins1/slave_49/workspace/CHICAGO_B100_chipset_component/opensource/component_code/vendor/huawei/extra/build/build_script/kirin_kernel_release/kernel/include/linux/plist.h"
	.file 55 "/home/jenkins1/slave_49/workspace/CHICAGO_B100_chipset_component/opensource/component_code/vendor/huawei/extra/build/build_script/kirin_kernel_release/kernel/include/asm-generic/cputime_jiffies.h"
	.file 56 "/home/jenkins1/slave_49/workspace/CHICAGO_B100_chipset_component/opensource/component_code/vendor/huawei/extra/build/build_script/kirin_kernel_release/kernel/include/linux/uidgid.h"
	.file 57 "/home/jenkins1/slave_49/workspace/CHICAGO_B100_chipset_component/opensource/component_code/vendor/huawei/extra/build/build_script/kirin_kernel_release/kernel/include/uapi/asm-generic/signal.h"
	.file 58 "/home/jenkins1/slave_49/workspace/CHICAGO_B100_chipset_component/opensource/component_code/vendor/huawei/extra/build/build_script/kirin_kernel_release/kernel/include/uapi/asm-generic/signal-defs.h"
	.file 59 "/home/jenkins1/slave_49/workspace/CHICAGO_B100_chipset_component/opensource/component_code/vendor/huawei/extra/build/build_script/kirin_kernel_release/kernel/include/uapi/asm-generic/siginfo.h"
	.file 60 "/home/jenkins1/slave_49/workspace/CHICAGO_B100_chipset_component/opensource/component_code/vendor/huawei/extra/build/build_script/kirin_kernel_release/kernel/include/linux/signal.h"
	.file 61 "/home/jenkins1/slave_49/workspace/CHICAGO_B100_chipset_component/opensource/component_code/vendor/huawei/extra/build/build_script/kirin_kernel_release/kernel/include/linux/pid.h"
	.file 62 "/home/jenkins1/slave_49/workspace/CHICAGO_B100_chipset_component/opensource/component_code/vendor/huawei/extra/build/build_script/kirin_kernel_release/kernel/include/linux/pid_namespace.h"
	.file 63 "/home/jenkins1/slave_49/workspace/CHICAGO_B100_chipset_component/opensource/component_code/vendor/huawei/extra/build/build_script/kirin_kernel_release/kernel/include/linux/percpu_counter.h"
	.file 64 "/home/jenkins1/slave_49/workspace/CHICAGO_B100_chipset_component/opensource/component_code/vendor/huawei/extra/build/build_script/kirin_kernel_release/kernel/include/linux/seccomp.h"
	.file 65 "/home/jenkins1/slave_49/workspace/CHICAGO_B100_chipset_component/opensource/component_code/vendor/huawei/extra/build/build_script/kirin_kernel_release/kernel/include/linux/timerqueue.h"
	.file 66 "/home/jenkins1/slave_49/workspace/CHICAGO_B100_chipset_component/opensource/component_code/vendor/huawei/extra/build/build_script/kirin_kernel_release/kernel/include/linux/hrtimer.h"
	.file 67 "/home/jenkins1/slave_49/workspace/CHICAGO_B100_chipset_component/opensource/component_code/vendor/huawei/extra/build/build_script/kirin_kernel_release/kernel/include/linux/task_io_accounting.h"
	.file 68 "/home/jenkins1/slave_49/workspace/CHICAGO_B100_chipset_component/opensource/component_code/vendor/huawei/extra/build/build_script/kirin_kernel_release/kernel/include/linux/assoc_array.h"
	.file 69 "/home/jenkins1/slave_49/workspace/CHICAGO_B100_chipset_component/opensource/component_code/vendor/huawei/extra/build/build_script/kirin_kernel_release/kernel/include/linux/key.h"
	.file 70 "/home/jenkins1/slave_49/workspace/CHICAGO_B100_chipset_component/opensource/component_code/vendor/huawei/extra/build/build_script/kirin_kernel_release/kernel/include/linux/cred.h"
	.file 71 "/home/jenkins1/slave_49/workspace/CHICAGO_B100_chipset_component/opensource/component_code/vendor/huawei/extra/build/build_script/kirin_kernel_release/kernel/include/linux/idr.h"
	.file 72 "/home/jenkins1/slave_49/workspace/CHICAGO_B100_chipset_component/opensource/component_code/vendor/huawei/extra/build/build_script/kirin_kernel_release/kernel/include/linux/percpu-refcount.h"
	.file 73 "/home/jenkins1/slave_49/workspace/CHICAGO_B100_chipset_component/opensource/component_code/vendor/huawei/extra/build/build_script/kirin_kernel_release/kernel/include/linux/rcu_sync.h"
	.file 74 "/home/jenkins1/slave_49/workspace/CHICAGO_B100_chipset_component/opensource/component_code/vendor/huawei/extra/build/build_script/kirin_kernel_release/kernel/include/linux/percpu-rwsem.h"
	.file 75 "/home/jenkins1/slave_49/workspace/CHICAGO_B100_chipset_component/opensource/component_code/vendor/huawei/extra/build/build_script/kirin_kernel_release/kernel/include/linux/cgroup-defs.h"
	.file 76 "/home/jenkins1/slave_49/workspace/CHICAGO_B100_chipset_component/opensource/component_code/vendor/huawei/extra/build/build_script/kirin_kernel_release/kernel/include/linux/kernfs.h"
	.file 77 "/home/jenkins1/slave_49/workspace/CHICAGO_B100_chipset_component/opensource/component_code/vendor/huawei/extra/build/build_script/kirin_kernel_release/kernel/include/linux/seq_file.h"
	.file 78 "/home/jenkins1/slave_49/workspace/CHICAGO_B100_chipset_component/opensource/component_code/vendor/huawei/extra/build/build_script/kirin_kernel_release/kernel/include/uapi/linux/taskstats.h"
	.file 79 "/home/jenkins1/slave_49/workspace/CHICAGO_B100_chipset_component/opensource/component_code/vendor/huawei/extra/build/build_script/kirin_kernel_release/kernel/include/linux/compat.h"
	.file 80 "/home/jenkins1/slave_49/workspace/CHICAGO_B100_chipset_component/opensource/component_code/vendor/huawei/extra/build/build_script/kirin_kernel_release/kernel/include/linux/stat.h"
	.file 81 "/home/jenkins1/slave_49/workspace/CHICAGO_B100_chipset_component/opensource/component_code/vendor/huawei/extra/build/build_script/kirin_kernel_release/kernel/include/uapi/linux/elf.h"
	.file 82 "/home/jenkins1/slave_49/workspace/CHICAGO_B100_chipset_component/opensource/component_code/vendor/huawei/extra/build/build_script/kirin_kernel_release/kernel/include/linux/kobject_ns.h"
	.file 83 "/home/jenkins1/slave_49/workspace/CHICAGO_B100_chipset_component/opensource/component_code/vendor/huawei/extra/build/build_script/kirin_kernel_release/kernel/include/linux/sysfs.h"
	.file 84 "/home/jenkins1/slave_49/workspace/CHICAGO_B100_chipset_component/opensource/component_code/vendor/huawei/extra/build/build_script/kirin_kernel_release/kernel/include/linux/kobject.h"
	.file 85 "/home/jenkins1/slave_49/workspace/CHICAGO_B100_chipset_component/opensource/component_code/vendor/huawei/extra/build/build_script/kirin_kernel_release/kernel/include/linux/kref.h"
	.file 86 "/home/jenkins1/slave_49/workspace/CHICAGO_B100_chipset_component/opensource/component_code/vendor/huawei/extra/build/build_script/kirin_kernel_release/kernel/include/linux/moduleparam.h"
	.file 87 "/home/jenkins1/slave_49/workspace/CHICAGO_B100_chipset_component/opensource/component_code/vendor/huawei/extra/build/build_script/kirin_kernel_release/kernel/include/linux/module.h"
	.file 88 "/home/jenkins1/slave_49/workspace/CHICAGO_B100_chipset_component/opensource/component_code/vendor/huawei/extra/build/build_script/kirin_kernel_release/kernel/include/linux/jump_label.h"
	.file 89 "/home/jenkins1/slave_49/workspace/CHICAGO_B100_chipset_component/opensource/component_code/vendor/huawei/extra/build/build_script/kirin_kernel_release/kernel/include/linux/rbtree_latch.h"
	.file 90 "/home/jenkins1/slave_49/workspace/CHICAGO_B100_chipset_component/opensource/component_code/vendor/huawei/extra/build/build_script/kirin_kernel_release/kernel/arch/arm64/include/asm/module.h"
	.file 91 "/home/jenkins1/slave_49/workspace/CHICAGO_B100_chipset_component/opensource/component_code/vendor/huawei/extra/build/build_script/kirin_kernel_release/kernel/arch/arm64/include/asm/uaccess.h"
	.file 92 "/home/jenkins1/slave_49/workspace/CHICAGO_B100_chipset_component/opensource/component_code/vendor/huawei/extra/build/build_script/kirin_kernel_release/kernel/include/linux/tracepoint.h"
	.file 93 "/home/jenkins1/slave_49/workspace/CHICAGO_B100_chipset_component/opensource/component_code/vendor/huawei/extra/build/build_script/kirin_kernel_release/kernel/include/linux/trace_events.h"
	.file 94 "/home/jenkins1/slave_49/workspace/CHICAGO_B100_chipset_component/opensource/component_code/vendor/huawei/extra/build/build_script/kirin_kernel_release/kernel/include/linux/quota.h"
	.file 95 "/home/jenkins1/slave_49/workspace/CHICAGO_B100_chipset_component/opensource/component_code/vendor/huawei/extra/build/build_script/kirin_kernel_release/kernel/include/linux/projid.h"
	.file 96 "/home/jenkins1/slave_49/workspace/CHICAGO_B100_chipset_component/opensource/component_code/vendor/huawei/extra/build/build_script/kirin_kernel_release/kernel/include/uapi/linux/quota.h"
	.file 97 "/home/jenkins1/slave_49/workspace/CHICAGO_B100_chipset_component/opensource/component_code/vendor/huawei/extra/build/build_script/kirin_kernel_release/kernel/include/linux/path.h"
	.file 98 "/home/jenkins1/slave_49/workspace/CHICAGO_B100_chipset_component/opensource/component_code/vendor/huawei/extra/build/build_script/kirin_kernel_release/kernel/include/linux/list_bl.h"
	.file 99 "/home/jenkins1/slave_49/workspace/CHICAGO_B100_chipset_component/opensource/component_code/vendor/huawei/extra/build/build_script/kirin_kernel_release/kernel/include/linux/lockref.h"
	.file 100 "/home/jenkins1/slave_49/workspace/CHICAGO_B100_chipset_component/opensource/component_code/vendor/huawei/extra/build/build_script/kirin_kernel_release/kernel/include/linux/dcache.h"
	.file 101 "/home/jenkins1/slave_49/workspace/CHICAGO_B100_chipset_component/opensource/component_code/vendor/huawei/extra/build/build_script/kirin_kernel_release/kernel/include/linux/list_lru.h"
	.file 102 "/home/jenkins1/slave_49/workspace/CHICAGO_B100_chipset_component/opensource/component_code/vendor/huawei/extra/build/build_script/kirin_kernel_release/kernel/include/linux/radix-tree.h"
	.file 103 "/home/jenkins1/slave_49/workspace/CHICAGO_B100_chipset_component/opensource/component_code/vendor/huawei/extra/build/build_script/kirin_kernel_release/kernel/include/uapi/linux/fiemap.h"
	.file 104 "/home/jenkins1/slave_49/workspace/CHICAGO_B100_chipset_component/opensource/component_code/vendor/huawei/extra/build/build_script/kirin_kernel_release/kernel/include/linux/migrate_mode.h"
	.file 105 "/home/jenkins1/slave_49/workspace/CHICAGO_B100_chipset_component/opensource/component_code/vendor/huawei/extra/build/build_script/kirin_kernel_release/kernel/include/linux/blk_types.h"
	.file 106 "/home/jenkins1/slave_49/workspace/CHICAGO_B100_chipset_component/opensource/component_code/vendor/huawei/extra/build/build_script/kirin_kernel_release/kernel/include/linux/uio.h"
	.file 107 "/home/jenkins1/slave_49/workspace/CHICAGO_B100_chipset_component/opensource/component_code/vendor/huawei/extra/build/build_script/kirin_kernel_release/kernel/include/linux/nfs_fs_i.h"
	.file 108 "/home/jenkins1/slave_49/workspace/CHICAGO_B100_chipset_component/opensource/component_code/vendor/huawei/extra/build/build_script/kirin_kernel_release/kernel/include/linux/poll.h"
	.file 109 "/home/jenkins1/slave_49/workspace/CHICAGO_B100_chipset_component/opensource/component_code/vendor/huawei/extra/build/build_script/kirin_kernel_release/kernel/include/linux/seq_buf.h"
	.file 110 "/home/jenkins1/slave_49/workspace/CHICAGO_B100_chipset_component/opensource/component_code/vendor/huawei/extra/build/build_script/kirin_kernel_release/kernel/include/linux/trace_seq.h"
	.file 111 "/home/jenkins1/slave_49/workspace/CHICAGO_B100_chipset_component/opensource/component_code/vendor/huawei/extra/build/build_script/kirin_kernel_release/kernel/include/uapi/linux/perf_event.h"
	.file 112 "/home/jenkins1/slave_49/workspace/CHICAGO_B100_chipset_component/opensource/component_code/vendor/huawei/extra/build/build_script/kirin_kernel_release/kernel/include/asm-generic/local.h"
	.file 113 "/home/jenkins1/slave_49/workspace/CHICAGO_B100_chipset_component/opensource/component_code/vendor/huawei/extra/build/build_script/kirin_kernel_release/kernel/include/asm-generic/local64.h"
	.file 114 "/home/jenkins1/slave_49/workspace/CHICAGO_B100_chipset_component/opensource/component_code/vendor/huawei/extra/build/build_script/kirin_kernel_release/kernel/include/linux/ns_common.h"
	.file 115 "/home/jenkins1/slave_49/workspace/CHICAGO_B100_chipset_component/opensource/component_code/vendor/huawei/extra/build/build_script/kirin_kernel_release/kernel/include/uapi/linux/uio.h"
	.file 116 "/home/jenkins1/slave_49/workspace/CHICAGO_B100_chipset_component/opensource/component_code/vendor/huawei/extra/build/build_script/kirin_kernel_release/kernel/include/linux/ftrace.h"
	.file 117 "/home/jenkins1/slave_49/workspace/CHICAGO_B100_chipset_component/opensource/component_code/vendor/huawei/extra/build/build_script/kirin_kernel_release/kernel/include/linux/klist.h"
	.file 118 "/home/jenkins1/slave_49/workspace/CHICAGO_B100_chipset_component/opensource/component_code/vendor/huawei/extra/build/build_script/kirin_kernel_release/kernel/include/linux/pinctrl/devinfo.h"
	.file 119 "/home/jenkins1/slave_49/workspace/CHICAGO_B100_chipset_component/opensource/component_code/vendor/huawei/extra/build/build_script/kirin_kernel_release/kernel/include/linux/pm.h"
	.file 120 "/home/jenkins1/slave_49/workspace/CHICAGO_B100_chipset_component/opensource/component_code/vendor/huawei/extra/build/build_script/kirin_kernel_release/kernel/include/linux/device.h"
	.file 121 "/home/jenkins1/slave_49/workspace/CHICAGO_B100_chipset_component/opensource/component_code/vendor/huawei/extra/build/build_script/kirin_kernel_release/kernel/include/linux/pm_wakeup.h"
	.file 122 "/home/jenkins1/slave_49/workspace/CHICAGO_B100_chipset_component/opensource/component_code/vendor/huawei/extra/build/build_script/kirin_kernel_release/kernel/arch/arm64/include/asm/device.h"
	.file 123 "/home/jenkins1/slave_49/workspace/CHICAGO_B100_chipset_component/opensource/component_code/vendor/huawei/extra/build/build_script/kirin_kernel_release/kernel/include/linux/irq_work.h"
	.file 124 "/home/jenkins1/slave_49/workspace/CHICAGO_B100_chipset_component/opensource/component_code/vendor/huawei/extra/build/build_script/kirin_kernel_release/kernel/include/linux/jump_label_ratelimit.h"
	.file 125 "/home/jenkins1/slave_49/workspace/CHICAGO_B100_chipset_component/opensource/component_code/vendor/huawei/extra/build/build_script/kirin_kernel_release/kernel/include/linux/perf_regs.h"
	.file 126 "/home/jenkins1/slave_49/workspace/CHICAGO_B100_chipset_component/opensource/component_code/vendor/huawei/extra/build/build_script/kirin_kernel_release/kernel/include/linux/interrupt.h"
	.file 127 "/home/jenkins1/slave_49/workspace/CHICAGO_B100_chipset_component/opensource/component_code/vendor/huawei/extra/build/build_script/kirin_kernel_release/kernel/drivers/vcodec/hi_vcodec/vdec/vfmw/vfmw_v4.0/firmware/common/mem_manage.h"
	.file 128 "/home/jenkins1/slave_49/workspace/CHICAGO_B100_chipset_component/opensource/component_code/vendor/huawei/extra/build/build_script/kirin_kernel_release/kernel/drivers/vcodec/hi_vcodec/vdec/vfmw/vfmw_v4.0/firmware/driver/HiSCDV200/scd_drv.h"
	.file 129 "/home/jenkins1/slave_49/workspace/CHICAGO_B100_chipset_component/opensource/component_code/vendor/huawei/extra/build/build_script/kirin_kernel_release/kernel/drivers/vcodec/hi_vcodec/vdec/vfmw/vfmw_v4.0/firmware/common/decparam.h"
	.file 130 "/home/jenkins1/slave_49/workspace/CHICAGO_B100_chipset_component/opensource/component_code/vendor/huawei/extra/build/build_script/kirin_kernel_release/kernel/drivers/vcodec/hi_vcodec/vdec/vfmw/vfmw_v4.0/firmware/common/vdm_drv.h"
	.file 131 "/home/jenkins1/slave_49/workspace/CHICAGO_B100_chipset_component/opensource/component_code/vendor/huawei/extra/build/build_script/kirin_kernel_release/kernel/drivers/vcodec/hi_vcodec/vdec/vfmw/vfmw_v4.0/firmware/common/vdm_hal.h"
	.file 132 "/home/jenkins1/slave_49/workspace/CHICAGO_B100_chipset_component/opensource/component_code/vendor/huawei/extra/build/build_script/kirin_kernel_release/kernel/drivers/vcodec/hi_vcodec/vdec/vfmw/vfmw_v4.0/firmware/common/public.h"
	.file 133 "/home/jenkins1/slave_49/workspace/CHICAGO_B100_chipset_component/opensource/component_code/vendor/huawei/extra/build/build_script/kirin_kernel_release/kernel/drivers/vcodec/hi_vcodec/vdec/vfmw/vfmw_v4.0/firmware/driver/HiVDHV400R004/vdm_hal_local.h"
	.file 134 "/home/jenkins1/slave_49/workspace/CHICAGO_B100_chipset_component/opensource/component_code/vendor/huawei/extra/build/build_script/kirin_kernel_release/kernel/drivers/vcodec/hi_vcodec/vdec/vfmw/vfmw_v4.0/firmware/common/syn_cmn.h"
	.file 135 "/home/jenkins1/slave_49/workspace/CHICAGO_B100_chipset_component/opensource/component_code/vendor/huawei/extra/build/build_script/kirin_kernel_release/kernel/drivers/vcodec/hi_vcodec/vdec/vfmw/vfmw_v4.0/firmware/common/fsp.h"
	.file 136 "/home/jenkins1/slave_49/workspace/CHICAGO_B100_chipset_component/opensource/component_code/vendor/huawei/extra/build/build_script/kirin_kernel_release/kernel/drivers/vcodec/hi_vcodec/vdec/vfmw/vfmw_v4.0/firmware/common/bitstream.h"
	.file 137 "/home/jenkins1/slave_49/workspace/CHICAGO_B100_chipset_component/opensource/component_code/vendor/huawei/extra/build/build_script/kirin_kernel_release/kernel/drivers/vcodec/hi_vcodec/vdec/vfmw/vfmw_v4.0/firmware/common/syntax/mpeg2.h"
	.file 138 "/home/jenkins1/slave_49/workspace/CHICAGO_B100_chipset_component/opensource/component_code/vendor/huawei/extra/build/build_script/kirin_kernel_release/kernel/drivers/vcodec/hi_vcodec/vdec/vfmw/vfmw_v4.0/firmware/common/syntax/mpeg4.h"
	.file 139 "/home/jenkins1/slave_49/workspace/CHICAGO_B100_chipset_component/opensource/component_code/vendor/huawei/extra/build/build_script/kirin_kernel_release/kernel/drivers/vcodec/hi_vcodec/vdec/vfmw/vfmw_v4.0/firmware/common/syntax/h264.h"
	.file 140 "/home/jenkins1/slave_49/workspace/CHICAGO_B100_chipset_component/opensource/component_code/vendor/huawei/extra/build/build_script/kirin_kernel_release/kernel/drivers/vcodec/hi_vcodec/vdec/vfmw/vfmw_v4.0/firmware/common/syntax/hevc.h"
	.file 141 "/home/jenkins1/slave_49/workspace/CHICAGO_B100_chipset_component/opensource/component_code/vendor/huawei/extra/build/build_script/kirin_kernel_release/kernel/drivers/vcodec/hi_vcodec/vdec/vfmw/vfmw_v4.0/firmware/common/syntax/vc1.h"
	.file 142 "/home/jenkins1/slave_49/workspace/CHICAGO_B100_chipset_component/opensource/component_code/vendor/huawei/extra/build/build_script/kirin_kernel_release/kernel/drivers/vcodec/hi_vcodec/vdec/vfmw/vfmw_v4.0/firmware/common/syntax/real8.h"
	.file 143 "/home/jenkins1/slave_49/workspace/CHICAGO_B100_chipset_component/opensource/component_code/vendor/huawei/extra/build/build_script/kirin_kernel_release/kernel/drivers/vcodec/hi_vcodec/vdec/vfmw/vfmw_v4.0/firmware/common/syntax/real9.h"
	.file 144 "/home/jenkins1/slave_49/workspace/CHICAGO_B100_chipset_component/opensource/component_code/vendor/huawei/extra/build/build_script/kirin_kernel_release/kernel/drivers/vcodec/hi_vcodec/vdec/vfmw/vfmw_v4.0/firmware/common/syntax/divx3.h"
	.file 145 "/home/jenkins1/slave_49/workspace/CHICAGO_B100_chipset_component/opensource/component_code/vendor/huawei/extra/build/build_script/kirin_kernel_release/kernel/drivers/vcodec/hi_vcodec/vdec/vfmw/vfmw_v4.0/firmware/common/syntax/vp6.h"
	.file 146 "/home/jenkins1/slave_49/workspace/CHICAGO_B100_chipset_component/opensource/component_code/vendor/huawei/extra/build/build_script/kirin_kernel_release/kernel/drivers/vcodec/hi_vcodec/vdec/vfmw/vfmw_v4.0/firmware/common/syntax/vp8.h"
	.file 147 "/home/jenkins1/slave_49/workspace/CHICAGO_B100_chipset_component/opensource/component_code/vendor/huawei/extra/build/build_script/kirin_kernel_release/kernel/drivers/vcodec/hi_vcodec/vdec/vfmw/vfmw_v4.0/firmware/common/syntax/syntax.h"
	.file 148 "/home/jenkins1/slave_49/workspace/CHICAGO_B100_chipset_component/opensource/component_code/vendor/huawei/extra/build/build_script/kirin_kernel_release/kernel/drivers/vcodec/hi_vcodec/vdec/vfmw/vfmw_v4.0/firmware/common/vfmw_ctrl.h"
	.file 149 "/home/jenkins1/slave_49/workspace/CHICAGO_B100_chipset_component/opensource/component_code/vendor/huawei/extra/build/build_script/kirin_kernel_release/kernel/drivers/vcodec/hi_vcodec/vdec/vfmw/vfmw_v4.0/firmware/driver/HiVDHV400R004/vdm_hal_mpeg2.h"
	.file 150 "/home/jenkins1/slave_49/workspace/CHICAGO_B100_chipset_component/opensource/component_code/vendor/huawei/extra/build/build_script/kirin_kernel_release/kernel/drivers/vcodec/hi_vcodec/vdec/vfmw/vfmw_v4.0/firmware/product/HiVCodecV100/sysconfig.h"
	.file 151 "/home/jenkins1/slave_49/workspace/CHICAGO_B100_chipset_component/opensource/component_code/vendor/huawei/extra/build/build_script/kirin_kernel_release/kernel/arch/arm64/include/asm/cachetype.h"
	.file 152 "/home/jenkins1/slave_49/workspace/CHICAGO_B100_chipset_component/opensource/component_code/vendor/huawei/extra/build/build_script/kirin_kernel_release/kernel/include/linux/printk.h"
	.file 153 "/home/jenkins1/slave_49/workspace/CHICAGO_B100_chipset_component/opensource/component_code/vendor/huawei/extra/build/build_script/kirin_kernel_release/kernel/include/linux/kernel.h"
	.file 154 "/home/jenkins1/slave_49/workspace/CHICAGO_B100_chipset_component/opensource/component_code/vendor/huawei/extra/build/build_script/kirin_kernel_release/kernel/arch/arm64/include/asm/thread_info.h"
	.file 155 "/home/jenkins1/slave_49/workspace/CHICAGO_B100_chipset_component/opensource/component_code/vendor/huawei/extra/build/build_script/kirin_kernel_release/kernel/include/chipset_common/kernel_harden/kaslr.h"
	.file 156 "/home/jenkins1/slave_49/workspace/CHICAGO_B100_chipset_component/opensource/component_code/vendor/huawei/extra/build/build_script/kirin_kernel_release/kernel/arch/arm64/include/asm/hwcap.h"
	.file 157 "/home/jenkins1/slave_49/workspace/CHICAGO_B100_chipset_component/opensource/component_code/vendor/huawei/extra/build/build_script/kirin_kernel_release/kernel/arch/arm64/include/asm/cpufeature.h"
	.file 158 "/home/jenkins1/slave_49/workspace/CHICAGO_B100_chipset_component/opensource/component_code/vendor/huawei/extra/build/build_script/kirin_kernel_release/kernel/include/linux/jiffies.h"
	.file 159 "/home/jenkins1/slave_49/workspace/CHICAGO_B100_chipset_component/opensource/component_code/vendor/huawei/extra/build/build_script/kirin_kernel_release/kernel/arch/arm64/include/asm/memory.h"
	.file 160 "/home/jenkins1/slave_49/workspace/CHICAGO_B100_chipset_component/opensource/component_code/vendor/huawei/extra/build/build_script/kirin_kernel_release/kernel/include/asm-generic/percpu.h"
	.file 161 "/home/jenkins1/slave_49/workspace/CHICAGO_B100_chipset_component/opensource/component_code/vendor/huawei/extra/build/build_script/kirin_kernel_release/kernel/include/linux/debug_locks.h"
	.file 162 "/home/jenkins1/slave_49/workspace/CHICAGO_B100_chipset_component/opensource/component_code/vendor/huawei/extra/build/build_script/kirin_kernel_release/kernel/include/asm-generic/pgtable.h"
	.file 163 "/home/jenkins1/slave_49/workspace/CHICAGO_B100_chipset_component/opensource/component_code/vendor/huawei/extra/build/build_script/kirin_kernel_release/kernel/include/linux/highuid.h"
	.file 164 "/home/jenkins1/slave_49/workspace/CHICAGO_B100_chipset_component/opensource/component_code/vendor/huawei/extra/build/build_script/kirin_kernel_release/kernel/arch/arm64/include/asm/irq.h"
	.file 165 "/home/jenkins1/slave_49/workspace/CHICAGO_B100_chipset_component/opensource/component_code/vendor/huawei/extra/build/build_script/kirin_kernel_release/kernel/arch/arm64/include/asm/hardirq.h"
	.file 166 "/home/jenkins1/slave_49/workspace/CHICAGO_B100_chipset_component/opensource/component_code/vendor/huawei/extra/build/build_script/kirin_kernel_release/kernel/include/linux/cgroup.h"
	.file 167 "/home/jenkins1/slave_49/workspace/CHICAGO_B100_chipset_component/opensource/component_code/vendor/huawei/extra/build/build_script/kirin_kernel_release/kernel/include/linux/slab.h"