	.cpu generic+fp+simd
	.file	"vdm_hal_mpeg4.c"
	.text
.Ltext0:
	.cfi_sections	.debug_frame
#APP
	.irp	num,0,1,2,3,4,5,6,7,8,9,10,11,12,13,14,15,16,17,18,19,20,21,22,23,24,25,26,27,28,29,30
	.equ	.L__reg_num_x\num, \num
	.endr
	.equ	.L__reg_num_xzr, 31

	.macro	mrs_s, rt, sreg
	.inst	0xd5200000|(\sreg)|(.L__reg_num_\rt)
	.endm

	.macro	msr_s, sreg, rt
	.inst	0xd5000000|(\sreg)|(.L__reg_num_\rt)
	.endm

#NO_APP
	.align	2
	.global	MP4HAL_Log2bin
	.type	MP4HAL_Log2bin, %function
MP4HAL_Log2bin:
.LFB2315:
	.file 1 "/home/jenkins1/slave_49/workspace/CHICAGO_B100_chipset_component/opensource/component_code/vendor/huawei/extra/build/build_script/kirin_kernel_release/kernel/drivers/vcodec/hi_vcodec/vdec/vfmw/vfmw_v4.0/firmware/driver/HiVDHV400R004/vdm_hal_mpeg4.c"
	.loc 1 48 0
	.cfi_startproc
.LVL0:
	.loc 1 51 0
	cbz	w0, .L4
	mov	w1, 0
.LVL1:
.L3:
	add	w1, w1, 1
.LVL2:
	.loc 1 53 0
	lsr	w0, w0, 1
	sxth	w1, w1
.LVL3:
	.loc 1 51 0
	cbnz	w0, .L3
	mov	w0, w1
.LVL4:
	.loc 1 58 0
	ret
.LVL5:
.L4:
	.loc 1 51 0
	mov	w0, 0
.LVL6:
	.loc 1 58 0
	ret
	.cfi_endproc
.LFE2315:
	.size	MP4HAL_Log2bin, .-MP4HAL_Log2bin
	.align	2
	.global	MP4HAL_InitHal
	.type	MP4HAL_InitHal, %function
MP4HAL_InitHal:
.LFB2316:
	.loc 1 72 0
	.cfi_startproc
.LVL7:
	.loc 1 74 0
	mov	w0, 0
.LVL8:
	ret
	.cfi_endproc
.LFE2316:
	.size	MP4HAL_InitHal, .-MP4HAL_InitHal
	.align	2
	.global	MP4HAL_CfgReg
	.type	MP4HAL_CfgReg, %function
MP4HAL_CfgReg:
.LFB2318:
	.loc 1 127 0
	.cfi_startproc
.LVL9:
	stp	x29, x30, [sp, -80]!
	.cfi_def_cfa_offset 80
	.cfi_offset 29, -80
	.cfi_offset 30, -72
	add	x29, sp, 0
	.cfi_def_cfa_register 29
	stp	x23, x24, [sp,48]
	.cfi_offset 23, -32
	.cfi_offset 24, -24
	sxtw	x23, w1
	.loc 1 134 0
	adrp	x1, g_VdmDrvParam
.LVL10:
	.loc 1 127 0
	stp	x21, x22, [sp,32]
	.cfi_offset 21, -48
	.cfi_offset 22, -40
	mov	x22, x0
.LVL11:
	.loc 1 134 0
	lsl	x0, x23, 6
.LVL12:
	sub	x0, x0, x23, lsl 4
	add	x1, x1, :lo12:g_VdmDrvParam
	add	x0, x1, x0
	.loc 1 127 0
	str	x25, [sp,64]
	stp	x19, x20, [sp,16]
	.cfi_offset 25, -16
	.cfi_offset 19, -64
	.cfi_offset 20, -56
	.loc 1 136 0
	cmp	w23, wzr
	.loc 1 127 0
	mov	x3, x23
.LVL13:
	.loc 1 134 0
	ldr	w21, [x0,8]
	.loc 1 136 0
	bgt	.L9
	.loc 1 142 0 discriminator 1
	ldr	w1, [x22,14580]
	cbz	w1, .L10
	sub	w1, w1, #1
	mov	x3, 280
	mov	w4, 28
	add	x0, x22, 252
	mov	w19, -1
.LVL14:
	umaddl	x3, w1, w4, x3
	add	x3, x22, x3
.L11:
	.loc 1 147 0
	ldr	w1, [x0,8]
	cbz	w1, .L15
	.loc 1 147 0 is_stmt 0 discriminator 1
	ldr	w4, [x0]
	.loc 1 149 0 is_stmt 1
	and	w1, w1, -16
	.loc 1 150 0
	cmp	w19, w1
	.loc 1 147 0 discriminator 1
	cbz	w4, .L15
	.loc 1 150 0
	csel	w19, w19, w1, ls
.L15:
	.loc 1 147 0
	ldr	w1, [x0,12]
	cbz	w1, .L13
	.loc 1 147 0 is_stmt 0 discriminator 1
	ldr	w4, [x0,4]
	.loc 1 149 0 is_stmt 1
	and	w1, w1, -16
	.loc 1 150 0
	cmp	w19, w1
	.loc 1 147 0 discriminator 1
	cbz	w4, .L13
	.loc 1 150 0
	csel	w19, w19, w1, ls
.L13:
	add	x0, x0, 28
	.loc 1 142 0 discriminator 1
	cmp	x0, x3
	bne	.L11
	.loc 1 155 0
	cmn	w19, #1
	beq	.L10
	.loc 1 161 0
	str	w19, [x2]
.LVL15:
	.loc 1 178 0 discriminator 1
	lsl	x0, x23, 4
	add	x0, x0, x23, lsl 2
	adrp	x20, g_HwMem
	.loc 1 167 0
	ldrh	w3, [x22,178]
	.loc 1 178 0 discriminator 1
	sub	x0, x0, x23
	.loc 1 167 0
	ldrh	w2, [x22,176]
.LVL16:
	.loc 1 178 0 discriminator 1
	lsl	x0, x0, 6
	add	x1, x20, :lo12:g_HwMem
	.loc 1 162 0
	str	w19, [x22,180]
	.loc 1 167 0
	mul	w2, w2, w3
	.loc 1 178 0 discriminator 1
	ldr	x4, [x1,x0]
	.loc 1 167 0
	mov	w3, 1111490560
	sub	w2, w2, #1
	.loc 1 179 0
	adrp	x1, .LC2
	.loc 1 167 0
	and	w2, w2, 1048575
	.loc 1 179 0
	mov	w0, 3
	.loc 1 167 0
	orr	w2, w2, w3
	.loc 1 179 0
	add	x1, x1, :lo12:.LC2
	.loc 1 178 0 discriminator 1
	str	w2, [x4,8]
	.loc 1 179 0
	bl	dprint_linux_kernel
.LVL17:
	.loc 1 183 0
	adrp	x0, s_pstVfmwChan
	add	x0, x0, :lo12:s_pstVfmwChan
.LVL18:
	ldr	x0, [x0,w21,sxtw 3]
	cbz	x0, .L22
	.loc 1 185 0
	ldrb	w0, [x0,40]
	cmp	w0, 1
	cset	w0, eq
	lsl	w0, w0, 13
.L18:
	.loc 1 200 0 discriminator 1
	lsl	x21, x23, 4
.LVL19:
	add	x24, x20, :lo12:g_HwMem
	add	x21, x21, x23, lsl 2
	.loc 1 198 0
	ldr	w2, [x22,14664]
	.loc 1 200 0 discriminator 1
	sub	x21, x21, x23
	mov	w1, 49154
	lsl	x21, x21, 6
	.loc 1 198 0
	ubfiz	w2, w2, 30, 1
	movk	w1, 0x2001, lsl 16
	.loc 1 204 0
	add	x25, x24, x21
	orr	w1, w2, w1
	.loc 1 200 0 discriminator 1
	ldr	x4, [x24,x21]
	.loc 1 191 0
	orr	w3, w1, w0
	.loc 1 201 0
	adrp	x1, .LC3
	mov	w2, w3
	add	x1, x1, :lo12:.LC3
	mov	w0, 3
	.loc 1 200 0 discriminator 1
	str	w3, [x4,12]
	.loc 1 201 0
	bl	dprint_linux_kernel
.LVL20:
	.loc 1 204 0
	ldr	w3, [x25,52]
	.loc 1 206 0
	adrp	x1, .LC4
	.loc 1 205 0 discriminator 1
	ldr	x4, [x24,x21]
	.loc 1 206 0
	add	x1, x1, :lo12:.LC4
	.loc 1 204 0
	and	w3, w3, -16
	.loc 1 206 0
	mov	w0, 3
	mov	w2, w3
	.loc 1 205 0 discriminator 1
	str	w3, [x4,16]
	.loc 1 206 0
	bl	dprint_linux_kernel
.LVL21:
	.loc 1 209 0
	ldr	w3, [x25,36]
	.loc 1 211 0
	adrp	x1, .LC5
	.loc 1 210 0 discriminator 1
	ldr	x4, [x24,x21]
	.loc 1 211 0
	add	x1, x1, :lo12:.LC5
	.loc 1 209 0
	and	w3, w3, -16
	.loc 1 211 0
	mov	w0, 3
	mov	w2, w3
	.loc 1 210 0 discriminator 1
	str	w3, [x4,20]
	.loc 1 211 0
	bl	dprint_linux_kernel
.LVL22:
	.loc 1 215 0 discriminator 1
	ldr	x3, [x24,x21]
	.loc 1 216 0
	adrp	x1, .LC6
	mov	w0, 3
	add	x1, x1, :lo12:.LC6
	mov	w2, w19
	.loc 1 215 0 discriminator 1
	str	w19, [x3,24]
	.loc 1 216 0
	bl	dprint_linux_kernel
.LVL23:
	.loc 1 219 0
	ldrh	w0, [x22,176]
	cmp	w0, 120
	bhi	.L19
	.loc 1 227 0
	adrp	x19, gScdRegBaseAddr
.LVL24:
	ldr	w0, [x19,#:lo12:gScdRegBaseAddr]
	add	w0, w0, 4
	bl	MEM_ReadPhyWord
.LVL25:
	.loc 1 234 0
	orr	w1, w0, 65536
.L21:
	.loc 1 236 0
	ldr	w0, [x19,#:lo12:gScdRegBaseAddr]
	.loc 1 240 0 discriminator 1
	lsl	x19, x23, 4
	add	x19, x19, x23, lsl 2
	add	x20, x20, :lo12:g_HwMem
	sub	x19, x19, x23
	.loc 1 236 0
	add	w0, w0, 4
	.loc 1 240 0 discriminator 1
	lsl	x19, x19, 6
	.loc 1 236 0
	bl	MEM_WritePhyWord
.LVL26:
	.loc 1 240 0 discriminator 1
	mov	w0, 3075
	.loc 1 241 0 discriminator 1
	mov	w7, 3075
	.loc 1 240 0 discriminator 1
	ldr	x1, [x20,x19]
	movk	w0, 0x30, lsl 16
	.loc 1 241 0 discriminator 1
	movk	w7, 0x30, lsl 16
	.loc 1 242 0 discriminator 1
	mov	w6, 3075
	movk	w6, 0x30, lsl 16
	.loc 1 243 0 discriminator 1
	mov	w5, 3075
	.loc 1 240 0 discriminator 1
	str	w0, [x1,60]
	.loc 1 243 0 discriminator 1
	movk	w5, 0x30, lsl 16
	.loc 1 244 0 discriminator 1
	mov	w4, 3075
	.loc 1 246 0 discriminator 1
	mov	w2, 3075
	.loc 1 241 0 discriminator 1
	ldr	x8, [x20,x19]
	.loc 1 245 0 discriminator 1
	mov	w3, w4
	.loc 1 244 0 discriminator 1
	movk	w4, 0x30, lsl 16
	.loc 1 245 0 discriminator 1
	movk	w3, 0x30, lsl 16
	.loc 1 246 0 discriminator 1
	movk	w2, 0x30, lsl 16
	.loc 1 251 0
	adrp	x1, .LC7
	.loc 1 241 0 discriminator 1
	str	w7, [x8,64]
	.loc 1 251 0
	add	x1, x1, :lo12:.LC7
	mov	w0, 3
	.loc 1 242 0 discriminator 1
	ldr	x7, [x20,x19]
	str	w6, [x7,68]
	.loc 1 243 0 discriminator 1
	ldr	x6, [x20,x19]
	str	w5, [x6,72]
	.loc 1 244 0 discriminator 1
	ldr	x5, [x20,x19]
	str	w4, [x5,76]
	.loc 1 245 0 discriminator 1
	ldr	x4, [x20,x19]
	str	w3, [x4,80]
	.loc 1 246 0 discriminator 1
	ldr	x3, [x20,x19]
	str	w2, [x3,84]
	.loc 1 249 0
	ldr	w3, [x22,224]
	.loc 1 250 0 discriminator 1
	ldr	x4, [x20,x19]
	.loc 1 249 0
	and	w3, w3, -16
	.loc 1 251 0
	mov	w2, w3
	.loc 1 250 0 discriminator 1
	str	w3, [x4,96]
	.loc 1 251 0
	bl	dprint_linux_kernel
.LVL27:
	.loc 1 255 0 discriminator 1
	ldr	x4, [x20,x19]
	.loc 1 256 0
	adrp	x1, .LC8
	.loc 1 254 0
	ldr	w3, [x22,14608]
	.loc 1 256 0
	add	x1, x1, :lo12:.LC8
	mov	w0, 3
	.loc 1 255 0 discriminator 1
	str	w3, [x4,100]
	.loc 1 256 0
	mov	w2, w3
	bl	dprint_linux_kernel
.LVL28:
	.loc 1 259 0
	ldrh	w2, [x22,178]
.LVL29:
	.loc 1 262 0
	adrp	x1, .LC9
	ldr	w22, [x22,14608]
.LVL30:
	add	x1, x1, :lo12:.LC9
	.loc 1 260 0
	add	w2, w2, 1
.LVL31:
	.loc 1 261 0 discriminator 1
	ldr	x3, [x20,x19]
	lsl	w22, w22, 1
	.loc 1 260 0
	lsr	w2, w2, 1
	.loc 1 262 0
	mov	w0, 3
	.loc 1 260 0
	mul	w2, w22, w2
	.loc 1 261 0 discriminator 1
	str	w2, [x3,104]
	.loc 1 262 0
	bl	dprint_linux_kernel
.LVL32:
	.loc 1 266 0 discriminator 1
	ldr	x3, [x20,x19]
	.loc 1 271 0
	adrp	x1, .LC10
	mov	w0, 3
	add	x1, x1, :lo12:.LC10
	mov	w2, 0
	.loc 1 266 0 discriminator 1
	str	wzr, [x3,108]
	.loc 1 270 0 discriminator 1
	ldr	x3, [x20,x19]
	str	wzr, [x3,152]
	.loc 1 271 0
	bl	dprint_linux_kernel
.LVL33:
	.loc 1 273 0
	mov	w0, 0
.LVL34:
.L35:
	.loc 1 274 0
	ldp	x19, x20, [sp,16]
	.cfi_remember_state
	.cfi_restore 20
	.cfi_restore 19
.LVL35:
	ldp	x21, x22, [sp,32]
	.cfi_restore 22
	.cfi_restore 21
.LVL36:
	ldp	x23, x24, [sp,48]
	.cfi_restore 24
	.cfi_restore 23
.LVL37:
	ldr	x25, [sp,64]
	.cfi_restore 25
	ldp	x29, x30, [sp], 80
	.cfi_restore 30
	.cfi_restore 29
	.cfi_def_cfa 31, 0
	ret
.LVL38:
.L19:
	.cfi_restore_state
	.loc 1 227 0
	adrp	x19, gScdRegBaseAddr
.LVL39:
	ldr	w0, [x19,#:lo12:gScdRegBaseAddr]
	add	w0, w0, 4
	bl	MEM_ReadPhyWord
.LVL40:
	.loc 1 230 0
	and	w1, w0, -65537
	b	.L21
.LVL41:
.L22:
	mov	w0, 0
	b	.L18
.LVL42:
.L9:
	.loc 1 138 0
	adrp	x1, .LC0
	adrp	x2, .LANCHOR0
.LVL43:
	mov	w0, 0
	add	x1, x1, :lo12:.LC0
	add	x2, x2, :lo12:.LANCHOR0
	mov	w4, 0
	bl	dprint_linux_kernel
.LVL44:
	.loc 1 139 0
	mov	w0, -1
	b	.L35
.LVL45:
.L10:
	.loc 1 157 0
	adrp	x1, .LC1
	mov	w0, 0
	add	x1, x1, :lo12:.LC1
	mov	w2, -1
.LVL46:
	bl	dprint_linux_kernel
.LVL47:
	.loc 1 158 0
	mov	w0, -1
	b	.L35
	.cfi_endproc
.LFE2318:
	.size	MP4HAL_CfgReg, .-MP4HAL_CfgReg
	.align	2
	.global	MP4HAL_CfgDnMsg
	.type	MP4HAL_CfgDnMsg, %function
MP4HAL_CfgDnMsg:
.LFB2319:
	.loc 1 278 0
	.cfi_startproc
.LVL48:
	stp	x29, x30, [sp, -112]!
	.cfi_def_cfa_offset 112
	.cfi_offset 29, -112
	.cfi_offset 30, -104
	add	x29, sp, 0
	.cfi_def_cfa_register 29
	stp	x19, x20, [sp,16]
	.cfi_offset 19, -96
	.cfi_offset 20, -88
	mov	x19, x0
.LBB4:
.LBB5:
	.loc 1 51 0
	mov	w20, 0
.LVL49:
.LBE5:
.LBE4:
	.loc 1 278 0
	stp	x21, x22, [sp,32]
	stp	x23, x24, [sp,48]
	stp	x25, x26, [sp,64]
	stp	x27, x28, [sp,80]
	.cfi_offset 21, -80
	.cfi_offset 22, -72
	.cfi_offset 23, -64
	.cfi_offset 24, -56
	.cfi_offset 25, -48
	.cfi_offset 26, -40
	.cfi_offset 27, -32
	.cfi_offset 28, -24
	.loc 1 288 0
	ldrh	w0, [x0,178]
.LVL50:
	.loc 1 287 0
	ldrh	w2, [x19,176]
.LVL51:
	.loc 1 289 0
	mul	w0, w0, w2
.LVL52:
.LBB7:
.LBB6:
	.loc 1 51 0
	cbz	w0, .L39
.L40:
	add	w20, w20, 1
.LVL53:
	.loc 1 53 0
	lsr	w0, w0, 1
	sxth	w20, w20
.LVL54:
	.loc 1 51 0
	cbnz	w0, .L40
.L39:
.LBE6:
.LBE7:
	.loc 1 294 0
	sxtw	x22, w1
.LVL55:
	adrp	x23, g_HwMem
	lsl	x0, x22, 4
.LVL56:
	add	x1, x23, :lo12:g_HwMem
	add	x0, x0, x22, lsl 2
	sub	x0, x0, x22
	add	x0, x1, x0, lsl 6
	ldr	w0, [x0,52]
	bl	MEM_Phy2Vir
.LVL57:
	mov	x21, x0
	.loc 1 296 0
	cbz	x0, .L73
	.loc 1 304 0
	ldrb	w0, [x19,2]
	cmp	w0, 1
	beq	.L74
	.loc 1 332 0
	adrp	x1, .LC12
	mov	w2, 0
	add	x1, x1, :lo12:.LC12
	.loc 1 331 0
	str	wzr, [x21]
	.loc 1 332 0
	mov	w0, 4
	bl	dprint_linux_kernel
.LVL58:
	.loc 1 335 0
	ldrb	w2, [x19,3]
	.loc 1 339 0
	adrp	x1, .LC13
	.loc 1 336 0
	ldrb	w3, [x19,1]
	.loc 1 339 0
	mov	w0, 4
	.loc 1 335 0
	ubfiz	w2, w2, 26, 5
	.loc 1 339 0
	add	x1, x1, :lo12:.LC13
	.loc 1 335 0
	orr	w2, w2, w3, lsl 31
	.loc 1 338 0
	str	w2, [x21,4]
	.loc 1 339 0
	bl	dprint_linux_kernel
.LVL59:
	.loc 1 341 0
	ldrb	w0, [x19]
	cmp	w0, 2
	beq	.L45
	ldrb	w1, [x19,12]
	ubfiz	w1, w1, 3, 1
.L46:
	.loc 1 347 0
	ldrb	w7, [x19,15]
	.loc 1 352 0
	ubfiz	w0, w0, 5, 2
	.loc 1 359 0
	ldr	w2, [x19,14620]
	.loc 1 358 0
	ubfiz	w20, w20, 22, 4
.LVL60:
	.loc 1 361 0
	ldr	w6, [x19,14624]
	.loc 1 347 0
	and	w7, w7, 1
	.loc 1 360 0
	ldr	w5, [x19,14628]
	.loc 1 359 0
	ubfiz	w2, w2, 26, 2
	.loc 1 348 0
	ldrb	w4, [x19,14]
	orr	w2, w7, w2
	.loc 1 349 0
	ldrb	w3, [x19,13]
	orr	w6, w2, w6, lsl 30
	.loc 1 360 0
	ubfiz	w5, w5, 28, 2
	.loc 1 351 0
	ldrb	w2, [x19,11]
	orr	w6, w6, w5
	.loc 1 348 0
	ubfiz	w4, w4, 1, 1
	orr	w6, w6, w4
	.loc 1 349 0
	ubfiz	w3, w3, 2, 1
	.loc 1 353 0
	ldrb	w5, [x19,10]
	orr	w6, w6, w3
	.loc 1 351 0
	ubfiz	w2, w2, 4, 1
	.loc 1 354 0
	ldrb	w4, [x19,9]
	orr	w2, w6, w2
	.loc 1 355 0
	ldrb	w3, [x19,7]
	orr	w0, w2, w0
	.loc 1 353 0
	ubfiz	w5, w5, 7, 1
	.loc 1 356 0
	ldrb	w2, [x19,8]
	orr	w5, w0, w5
	.loc 1 354 0
	ubfiz	w4, w4, 8, 3
	.loc 1 357 0
	ldrb	w0, [x19,6]
	orr	w4, w5, w4
	.loc 1 355 0
	ubfiz	w3, w3, 11, 3
	orr	w3, w4, w3
	.loc 1 356 0
	ubfiz	w2, w2, 14, 3
	orr	w2, w3, w2
	.loc 1 357 0
	ubfiz	w0, w0, 17, 5
	orr	w2, w2, w0
	.loc 1 364 0
	mov	w0, 4
	orr	w2, w2, w20
	.loc 1 347 0
	orr	w2, w2, w1
	.loc 1 364 0
	adrp	x1, .LC14
	add	x1, x1, :lo12:.LC14
	.loc 1 363 0
	str	w2, [x21,8]
	.loc 1 364 0
	bl	dprint_linux_kernel
.LVL61:
	.loc 1 367 0
	ldrb	w0, [x19]
	cmp	w0, 2
	beq	.L75
.LVL62:
.L44:
	.loc 1 387 0
	ldrh	w3, [x19,178]
	.loc 1 389 0
	adrp	x1, .LC16
	.loc 1 386 0
	ldrh	w2, [x19,176]
	.loc 1 389 0
	add	x1, x1, :lo12:.LC16
	.loc 1 387 0
	sub	w3, w3, #1
	.loc 1 389 0
	mov	w0, 4
	.loc 1 386 0
	sub	w2, w2, #1
	and	w2, w2, 65535
	orr	w2, w2, w3, lsl 16
	.loc 1 388 0
	str	w2, [x21,16]
	.loc 1 389 0
	bl	dprint_linux_kernel
.LVL63:
	.loc 1 393 0
	ldr	w2, [x19,14612]
	.loc 1 395 0
	adrp	x1, .LC17
	.loc 1 392 0
	ldr	w3, [x19,14616]
	.loc 1 395 0
	mov	w0, 4
	add	x1, x1, :lo12:.LC17
	.loc 1 392 0
	orr	w2, w3, w2, lsl 16
	.loc 1 394 0
	str	w2, [x21,20]
	.loc 1 395 0
	bl	dprint_linux_kernel
.LVL64:
	.loc 1 397 0
	ldrb	w0, [x19]
	cmp	w0, 3
	beq	.L76
.L47:
	.loc 1 436 0
	adrp	x1, .LC20
	mov	w2, 0
	add	x1, x1, :lo12:.LC20
	.loc 1 435 0
	str	wzr, [x21,32]
	.loc 1 436 0
	mov	w0, 4
	.loc 1 490 0
	add	x20, x23, :lo12:g_HwMem
.LVL65:
	.loc 1 436 0
	bl	dprint_linux_kernel
.LVL66:
	.loc 1 441 0
	str	wzr, [x21,36]
	.loc 1 442 0
	adrp	x1, .LC21
	mov	w2, 0
	add	x1, x1, :lo12:.LC21
	mov	w0, 4
	bl	dprint_linux_kernel
.LVL67:
	.loc 1 447 0
	str	wzr, [x21,40]
	.loc 1 448 0
	adrp	x1, .LC22
	mov	w2, 0
	add	x1, x1, :lo12:.LC22
	mov	w0, 4
	bl	dprint_linux_kernel
.LVL68:
	.loc 1 453 0
	str	wzr, [x21,44]
	.loc 1 454 0
	adrp	x1, .LC23
	mov	w2, 0
	add	x1, x1, :lo12:.LC23
	mov	w0, 4
	bl	dprint_linux_kernel
.LVL69:
	.loc 1 460 0
	ldr	w2, [x19,14596]
	.loc 1 463 0
	adrp	x1, .LC24
	add	x1, x1, :lo12:.LC24
	mov	w0, 4
	.loc 1 460 0
	add	w2, w2, 15
	and	w2, w2, -16
	.loc 1 462 0
	str	w2, [x21,48]
	.loc 1 463 0
	bl	dprint_linux_kernel
.LVL70:
	.loc 1 466 0
	ldr	w2, [x19,228]
	.loc 1 469 0
	adrp	x1, .LC25
	add	x1, x1, :lo12:.LC25
	mov	w0, 4
	.loc 1 466 0
	add	w2, w2, 15
	and	w2, w2, -16
	.loc 1 468 0
	str	w2, [x21,52]
	.loc 1 469 0
	bl	dprint_linux_kernel
.LVL71:
	.loc 1 472 0
	ldr	w2, [x19,232]
	.loc 1 475 0
	adrp	x1, .LC26
	add	x1, x1, :lo12:.LC26
	mov	w0, 4
	.loc 1 472 0
	add	w2, w2, 15
	and	w2, w2, -16
	.loc 1 474 0
	str	w2, [x21,56]
	.loc 1 475 0
	bl	dprint_linux_kernel
.LVL72:
	.loc 1 478 0
	ldr	w2, [x19,236]
	.loc 1 481 0
	adrp	x1, .LC27
	add	x1, x1, :lo12:.LC27
	mov	w0, 4
	.loc 1 478 0
	add	w2, w2, 15
	and	w2, w2, -16
	.loc 1 480 0
	str	w2, [x21,60]
	.loc 1 481 0
	bl	dprint_linux_kernel
.LVL73:
	.loc 1 484 0
	ldr	w2, [x19,240]
	.loc 1 487 0
	adrp	x1, .LC28
	add	x1, x1, :lo12:.LC28
	mov	w0, 4
	.loc 1 484 0
	add	w2, w2, 15
	and	w2, w2, -16
	.loc 1 486 0
	str	w2, [x21,64]
	.loc 1 487 0
	bl	dprint_linux_kernel
.LVL74:
	.loc 1 490 0
	lsl	x2, x22, 4
	.loc 1 493 0
	adrp	x1, .LC29
	.loc 1 490 0
	add	x2, x2, x22, lsl 2
	.loc 1 493 0
	add	x1, x1, :lo12:.LC29
	.loc 1 490 0
	sub	x2, x2, x22
	.loc 1 493 0
	mov	w0, 4
	.loc 1 490 0
	add	x20, x20, x2, lsl 6
	ldr	w2, [x20,1148]
	add	w2, w2, 15
	and	w2, w2, -16
	.loc 1 492 0
	str	w2, [x21,68]
	.loc 1 493 0
	bl	dprint_linux_kernel
.LVL75:
	.loc 1 496 0
	ldr	w2, [x20,1140]
	.loc 1 499 0
	adrp	x1, .LC30
	mov	w0, 4
	add	x1, x1, :lo12:.LC30
	.loc 1 496 0
	add	w2, w2, 15
	and	w2, w2, -16
	.loc 1 498 0
	str	w2, [x21,72]
	.loc 1 499 0
	bl	dprint_linux_kernel
.LVL76:
	.loc 1 502 0
	strb	wzr, [x19,165]
	.loc 1 505 0
	ldrb	w0, [x19]
	cmp	w0, 3
	beq	.L77
.L53:
	.loc 1 516 0
	ldrb	w3, [x19,161]
	strb	w3, [x19,160]
	and	w3, w3, 1
	lsl	w5, w3, 3
.L55:
	.loc 1 531 0
	ldrb	w2, [x19,164]
	.loc 1 541 0
	adrp	x1, .LC31
	.loc 1 530 0
	ldrb	w4, [x19,163]
	.loc 1 541 0
	add	x1, x1, :lo12:.LC31
	.loc 1 531 0
	ubfiz	w2, w2, 1, 1
	.loc 1 541 0
	mov	w0, 4
	.loc 1 530 0
	and	w4, w4, 1
	orr	w2, w2, w4
	orr	w2, w2, w5
	.loc 1 533 0
	orr	w2, w2, w3, lsl 2
	.loc 1 540 0
	str	w2, [x21,76]
	.loc 1 541 0
	bl	dprint_linux_kernel
.LVL77:
	.loc 1 545 0
	ldr	w2, [x19,14632]
	.loc 1 547 0
	adrp	x1, .LC32
	.loc 1 546 0
	str	w2, [x21,80]
	.loc 1 547 0
	add	x1, x1, :lo12:.LC32
	mov	w0, 4
	bl	dprint_linux_kernel
.LVL78:
	.loc 1 551 0
	ldr	w2, [x19,14636]
	.loc 1 553 0
	adrp	x1, .LC33
	.loc 1 552 0
	str	w2, [x21,84]
	.loc 1 553 0
	add	x1, x1, :lo12:.LC33
	mov	w0, 4
	bl	dprint_linux_kernel
.LVL79:
	.loc 1 557 0
	ldr	w2, [x19,14640]
	.loc 1 559 0
	adrp	x1, .LC34
	.loc 1 558 0
	str	w2, [x21,88]
	.loc 1 559 0
	add	x1, x1, :lo12:.LC34
	mov	w0, 4
	bl	dprint_linux_kernel
.LVL80:
	.loc 1 563 0
	ldr	w2, [x19,14644]
	.loc 1 565 0
	adrp	x1, .LC35
	.loc 1 564 0
	str	w2, [x21,92]
	.loc 1 565 0
	add	x1, x1, :lo12:.LC35
	mov	w0, 4
	bl	dprint_linux_kernel
.LVL81:
	.loc 1 569 0
	ldr	w2, [x19,14648]
	.loc 1 571 0
	adrp	x1, .LC36
	.loc 1 570 0
	str	w2, [x21,96]
	.loc 1 571 0
	add	x1, x1, :lo12:.LC36
	mov	w0, 4
	bl	dprint_linux_kernel
.LVL82:
	.loc 1 575 0
	ldr	w2, [x19,14652]
	.loc 1 577 0
	adrp	x1, .LC37
	.loc 1 576 0
	str	w2, [x21,100]
	.loc 1 577 0
	add	x1, x1, :lo12:.LC37
	mov	w0, 4
	bl	dprint_linux_kernel
.LVL83:
	.loc 1 581 0
	ldr	w2, [x19,14656]
	.loc 1 583 0
	adrp	x1, .LC38
	.loc 1 582 0
	str	w2, [x21,104]
	.loc 1 583 0
	add	x1, x1, :lo12:.LC38
	mov	w0, 4
	bl	dprint_linux_kernel
.LVL84:
	.loc 1 587 0
	ldr	w2, [x19,14660]
	.loc 1 589 0
	adrp	x1, .LC39
	.loc 1 588 0
	str	w2, [x21,108]
	.loc 1 589 0
	mov	w0, 4
	add	x1, x1, :lo12:.LC39
	bl	dprint_linux_kernel
.LVL85:
	.loc 1 594 0
	ldrb	w0, [x19,2]
	cmp	w0, 2
	beq	.L78
.L56:
	.loc 1 643 0
	lsl	x3, x22, 4
	add	x23, x23, :lo12:g_HwMem
	add	x3, x3, x22, lsl 2
	.loc 1 645 0
	adrp	x1, .LC41
	.loc 1 643 0
	sub	x20, x3, x22
	.loc 1 645 0
	add	x1, x1, :lo12:.LC41
	mov	w0, 4
	.loc 1 643 0
	add	x23, x23, x20, lsl 6
	ldr	w2, [x23,1136]
	and	w2, w2, -16
	.loc 1 644 0
	str	w2, [x21,240]
	.loc 1 645 0
	bl	dprint_linux_kernel
.LVL86:
	.loc 1 649 0
	ldr	w2, [x23,52]
	.loc 1 651 0
	adrp	x1, .LC42
	mov	w0, 4
	add	x1, x1, :lo12:.LC42
	.loc 1 649 0
	add	w2, w2, 256
	.loc 1 650 0
	str	w2, [x21,252]
	.loc 1 651 0
	bl	dprint_linux_kernel
.LVL87:
	.loc 1 653 0
	mov	w0, 0
.LVL88:
.L42:
	.loc 1 655 0
	ldp	x19, x20, [sp,16]
	.cfi_remember_state
	.cfi_restore 20
	.cfi_restore 19
.LVL89:
	ldp	x21, x22, [sp,32]
	.cfi_restore 22
	.cfi_restore 21
.LVL90:
	ldp	x23, x24, [sp,48]
	.cfi_restore 24
	.cfi_restore 23
	ldp	x25, x26, [sp,64]
	.cfi_restore 26
	.cfi_restore 25
	ldp	x27, x28, [sp,80]
	.cfi_restore 28
	.cfi_restore 27
	ldp	x29, x30, [sp], 112
	.cfi_restore 30
	.cfi_restore 29
	.cfi_def_cfa 31, 0
	ret
.LVL91:
.L74:
	.cfi_restore_state
	.loc 1 309 0
	mov	w24, 4
	.loc 1 310 0
	adrp	x1, .LC12
	mov	w2, w24
	add	x1, x1, :lo12:.LC12
	.loc 1 309 0
	str	w24, [x21]
	.loc 1 310 0
	mov	w0, w24
	bl	dprint_linux_kernel
.LVL92:
	.loc 1 315 0
	ldrb	w3, [x19,3]
	.loc 1 318 0
	adrp	x1, .LC13
	.loc 1 314 0
	ldrb	w0, [x19,4]
	.loc 1 318 0
	add	x1, x1, :lo12:.LC13
	.loc 1 313 0
	ldrb	w2, [x19,5]
	.loc 1 315 0
	ubfiz	w3, w3, 26, 5
	.loc 1 314 0
	ubfiz	w0, w0, 5, 7
	.loc 1 313 0
	sub	w2, w2, #1
	orr	w3, w3, w0
	and	w2, w2, 31
	.loc 1 318 0
	mov	w0, w24
	.loc 1 313 0
	orr	w2, w3, w2
	.loc 1 317 0
	str	w2, [x21,4]
	.loc 1 318 0
	bl	dprint_linux_kernel
.LVL93:
	.loc 1 321 0
	ldrb	w1, [x19]
	.loc 1 322 0
	ubfiz	w2, w20, 22, 4
	.loc 1 325 0
	mov	w0, w24
	.loc 1 321 0
	ubfiz	w1, w1, 5, 2
	orr	w2, w2, w1
	.loc 1 325 0
	adrp	x1, .LC14
	add	x1, x1, :lo12:.LC14
	.loc 1 324 0
	str	w2, [x21,8]
	.loc 1 325 0
	bl	dprint_linux_kernel
.LVL94:
	b	.L44
.LVL95:
.L78:
	.loc 1 594 0 discriminator 1
	ldrb	w0, [x19,1]
	cbz	w0, .L56
	.loc 1 622 0
	adrp	x24, .LC40
	mov	w27, 24
	mov	w28, 0
	add	x24, x24, :lo12:.LC40
.L57:
	mov	w20, w28
	lsl	w26, w28, 3
	add	w25, w28, 16
.L58:
	add	w1, w20, 16
	add	w0, w20, 32
	.loc 1 617 0
	add	x1, x19, x1, sxtw
	.loc 1 618 0
	add	x0, x19, x0, sxtw
	.loc 1 617 0
	ldrb	w2, [x1,32]
	.loc 1 620 0
	sxtw	x4, w26
	.loc 1 618 0
	ldrb	w0, [x0,32]
	.loc 1 616 0
	add	x1, x19, x20, sxtw
	add	w3, w20, 48
	ldrb	w1, [x1,32]
	.loc 1 620 0
	add	x4, x4, 112
	.loc 1 619 0
	add	x3, x19, x3, sxtw
	.loc 1 618 0
	lsl	w0, w0, 16
	.loc 1 619 0
	ldrb	w3, [x3,32]
	orr	w0, w0, w2, lsl 8
	.loc 1 622 0
	mov	w2, w27
	.loc 1 618 0
	orr	w0, w0, w1
	.loc 1 622 0
	mov	x1, x24
	.loc 1 619 0
	orr	w3, w0, w3, lsl 24
	.loc 1 622 0
	mov	w0, 4
	.loc 1 621 0
	str	w3, [x21,x4]
	add	w20, w20, 8
	add	w26, w26, w0
	.loc 1 622 0
	bl	dprint_linux_kernel
.LVL96:
	.loc 1 614 0 discriminator 1
	cmp	w25, w20
	bne	.L58
	.loc 1 612 0 discriminator 2
	add	w28, w28, 1
	add	w27, w27, 8
	.loc 1 612 0 is_stmt 0 discriminator 1
	cmp	w28, 8
	bne	.L57
	mov	w25, 64
	mov	w28, 0
	.loc 1 636 0 is_stmt 1
	str	x24, [x29,104]
.L59:
	sub	w26, w25, #40
	mov	w20, w28
	add	w24, w28, 16
	mov	w27, w25
.L60:
	add	w1, w20, 16
	add	w0, w20, 32
	.loc 1 631 0
	add	x1, x19, x1, sxtw
	.loc 1 632 0
	add	x0, x19, x0, sxtw
	.loc 1 631 0
	ldrb	w2, [x1,96]
	.loc 1 634 0
	sxtw	x4, w27
	.loc 1 632 0
	ldrb	w0, [x0,96]
	.loc 1 630 0
	add	x1, x19, x20, sxtw
	add	w3, w20, 48
	ldrb	w1, [x1,96]
	.loc 1 634 0
	add	x4, x4, 112
	.loc 1 633 0
	add	x3, x19, x3, sxtw
	.loc 1 632 0
	lsl	w0, w0, 16
	.loc 1 633 0
	ldrb	w3, [x3,96]
	orr	w0, w0, w2, lsl 8
	.loc 1 636 0
	mov	w2, w26
	.loc 1 632 0
	orr	w0, w0, w1
	.loc 1 636 0
	ldr	x1, [x29,104]
	.loc 1 633 0
	orr	w3, w0, w3, lsl 24
	.loc 1 636 0
	mov	w0, 4
	.loc 1 635 0
	str	w3, [x21,x4]
	add	w20, w20, 8
	add	w27, w27, w0
	.loc 1 636 0
	bl	dprint_linux_kernel
.LVL97:
	.loc 1 628 0 discriminator 1
	cmp	w20, w24
	bne	.L60
	.loc 1 626 0 discriminator 2
	add	w28, w28, 1
	add	w25, w25, 8
	.loc 1 626 0 is_stmt 0 discriminator 1
	cmp	w28, 8
	bne	.L59
	b	.L56
.L77:
	.loc 1 507 0 is_stmt 1
	ldr	w0, [x19,14624]
	cmp	w0, 1
	beq	.L79
	.loc 1 513 0
	bhi	.L53
	ldrb	w5, [x19,160]
	ldrb	w3, [x19,161]
	ubfiz	w5, w5, 3, 1
	and	w3, w3, 1
	b	.L55
.LVL98:
.L76:
	.loc 1 399 0
	ldr	w0, [x19,14624]
	cmp	w0, 1
	bne	.L47
	.loc 1 401 0
	ldrb	w20, [x19,162]
.LVL99:
	.loc 1 405 0
	ldrb	w2, [x19,11]
	.loc 1 401 0
	cmp	w20, 1
	beq	.L80
	.loc 1 418 0
	ldr	w1, [x19,14648]
	lsl	w1, w1, w2
	.loc 1 418 0 is_stmt 0 discriminator 1
	ldr	w2, [x19,14628]
	.loc 1 418 0
	cmp	w1, wzr
	.loc 1 418 0 discriminator 1
	lsl	w0, w0, w2
	add	w0, w1, w0, asr 1
	.loc 1 418 0
	ble	.L81
.L70:
	.loc 1 420 0 is_stmt 1
	adrp	x1, .LC18
	.loc 1 418 0 discriminator 2
	asr	w2, w0, w2
	.loc 1 420 0
	add	x1, x1, :lo12:.LC18
	.loc 1 419 0
	str	w2, [x21,24]
	.loc 1 420 0
	mov	w0, 4
	bl	dprint_linux_kernel
.LVL100:
	.loc 1 423 0
	ldr	w0, [x19,14652]
	ldrb	w1, [x19,11]
	.loc 1 423 0 is_stmt 0 discriminator 1
	ldr	w2, [x19,14628]
	.loc 1 423 0
	lsl	w1, w0, w1
	.loc 1 423 0 discriminator 1
	mov	w0, 1
	lsl	w0, w0, w2
	.loc 1 423 0
	cmp	w1, wzr
	.loc 1 423 0 discriminator 1
	add	w0, w1, w0, asr 1
	.loc 1 423 0
	ble	.L82
.L71:
	.loc 1 425 0 is_stmt 1
	adrp	x1, .LC19
	.loc 1 423 0 discriminator 2
	asr	w2, w0, w2
	.loc 1 425 0
	add	x1, x1, :lo12:.LC19
	.loc 1 424 0
	str	w2, [x21,28]
	.loc 1 425 0
	mov	w0, 4
	bl	dprint_linux_kernel
.LVL101:
	b	.L47
.LVL102:
.L45:
	.loc 1 343 0
	strb	wzr, [x19,12]
	mov	w1, 0
	b	.L46
.LVL103:
.L75:
	.loc 1 376 0
	ldr	w2, [x19,216]
	.loc 1 380 0
	adrp	x1, .LC15
	.loc 1 377 0
	ldr	w3, [x19,220]
	.loc 1 380 0
	add	x1, x1, :lo12:.LC15
	.loc 1 376 0
	ubfiz	w2, w2, 1, 15
	.loc 1 380 0
	mov	w0, 4
	.loc 1 376 0
	orr	w2, w2, w3, lsl 17
	.loc 1 379 0
	str	w2, [x21,12]
	.loc 1 380 0
	bl	dprint_linux_kernel
.LVL104:
	b	.L44
.L79:
	ldrb	w3, [x19,161]
	.loc 1 510 0
	mov	w5, 8
	strb	w0, [x19,160]
	and	w3, w3, 1
	b	.L55
.L82:
	.loc 1 423 0 discriminator 2
	sub	w0, w0, #1
	b	.L71
.L81:
	.loc 1 418 0 discriminator 2
	sub	w0, w0, #1
	b	.L70
.L80:
	.loc 1 405 0
	ldr	w3, [x19,14628]
	.loc 1 407 0
	adrp	x1, .LC18
	.loc 1 405 0
	ldr	w4, [x19,14648]
	.loc 1 407 0
	add	x1, x1, :lo12:.LC18
	.loc 1 405 0
	sub	w2, w3, w2
	.loc 1 407 0
	mov	w0, 4
	.loc 1 405 0
	lsl	w2, w20, w2
	sdiv	w2, w4, w2
	.loc 1 406 0
	str	w2, [x21,24]
	.loc 1 407 0
	bl	dprint_linux_kernel
.LVL105:
	.loc 1 410 0
	ldr	w0, [x19,14628]
	.loc 1 412 0
	adrp	x1, .LC19
	.loc 1 410 0
	ldrb	w3, [x19,11]
	.loc 1 412 0
	add	x1, x1, :lo12:.LC19
	.loc 1 410 0
	ldr	w2, [x19,14652]
	sub	w3, w0, w3
	.loc 1 412 0
	mov	w0, 4
	.loc 1 410 0
	lsl	w20, w20, w3
	sdiv	w2, w2, w20
	.loc 1 411 0
	str	w2, [x21,28]
	.loc 1 412 0
	bl	dprint_linux_kernel
.LVL106:
	b	.L47
.LVL107:
.L73:
	.loc 1 298 0
	adrp	x1, .LC11
	mov	w0, 0
	add	x1, x1, :lo12:.LC11
	mov	w2, 298
	bl	dprint_linux_kernel
.LVL108:
	.loc 1 299 0
	mov	w0, -1
	b	.L42
	.cfi_endproc
.LFE2319:
	.size	MP4HAL_CfgDnMsg, .-MP4HAL_CfgDnMsg
	.align	2
	.global	MP4HAL_WriteSlicMsg
	.type	MP4HAL_WriteSlicMsg, %function
MP4HAL_WriteSlicMsg:
.LFB2320:
	.loc 1 659 0
	.cfi_startproc
.LVL109:
	stp	x29, x30, [sp, -144]!
	.cfi_def_cfa_offset 144
	.cfi_offset 29, -144
	.cfi_offset 30, -136
	.loc 1 671 0
	sxtw	x1, w1
	.loc 1 659 0
	add	x29, sp, 0
	.cfi_def_cfa_register 29
	stp	x21, x22, [sp,32]
	.cfi_offset 21, -112
	.cfi_offset 22, -104
	.loc 1 671 0
	lsl	x22, x1, 4
	add	x3, x22, x1, lsl 2
	.loc 1 659 0
	str	x0, [x29,104]
	.loc 1 671 0
	sub	x1, x3, x1
.LVL110:
	.loc 1 659 0
	mov	x3, x0
	.loc 1 671 0
	adrp	x0, g_HwMem
.LVL111:
	.loc 1 659 0
	mov	w22, w2
	.loc 1 671 0
	add	x0, x0, :lo12:g_HwMem
	.loc 1 661 0
	str	wzr, [x29,132]
.LVL112:
	.loc 1 671 0
	add	x1, x0, x1, lsl 6
	.loc 1 659 0
	adrp	x0, __stack_chk_guard
	stp	x19, x20, [sp,16]
	stp	x25, x26, [sp,64]
	stp	x27, x28, [sp,80]
	stp	x23, x24, [sp,48]
	.cfi_offset 19, -128
	.cfi_offset 20, -120
	.cfi_offset 25, -80
	.cfi_offset 26, -72
	.cfi_offset 27, -64
	.cfi_offset 28, -56
	.cfi_offset 23, -96
	.cfi_offset 24, -88
	.loc 1 659 0
	ldr	x0, [x0,#:lo12:__stack_chk_guard]
	.loc 1 663 0
	add	x27, x3, 244
	.loc 1 671 0
	ldr	w19, [x1,52]
	.loc 1 659 0
	str	x0, [x29,136]
	.loc 1 671 0
	add	w26, w19, 256
.LVL113:
	.loc 1 662 0
	ldr	w28, [x3,14580]
	.loc 1 672 0
	mov	w0, w26
	bl	MEM_Phy2Vir
.LVL114:
	mov	x20, x0
.LVL115:
	.loc 1 674 0
	cbz	x0, .L110
	.loc 1 680 0
	ldr	w0, [x27,24]
	.loc 1 669 0
	str	wzr, [x29,124]
	.loc 1 680 0
	cbnz	w0, .L111
.L86:
.LVL116:
	.loc 1 755 0 discriminator 1
	cmp	w28, wzr
	ble	.L100
	ldr	w0, [x29,124]
	.loc 1 769 0
	adrp	x25, .LC44
	.loc 1 775 0
	adrp	x24, .LC45
	.loc 1 784 0
	adrp	x23, .LC46
	.loc 1 769 0
	add	x25, x25, :lo12:.LC44
	.loc 1 775 0
	add	x24, x24, :lo12:.LC45
.LVL117:
	add	w0, w26, w0, lsl 5
.LVL118:
	.loc 1 833 0
	mov	w26, 0
.LVL119:
	str	w0, [x29,120]
	.loc 1 784 0
	add	x0, x23, :lo12:.LC46
	str	x0, [x29,112]
.L99:
	.loc 1 757 0
	cbz	w26, .L112
	.loc 1 757 0 is_stmt 0 discriminator 1
	sxtw	x19, w26
	lsl	x21, x19, 5
	sub	x21, x21, x19, lsl 2
	add	x21, x27, x21
	ldr	w1, [x21,24]
	ldr	w0, [x21,-4]
	cmp	w1, w0
	bls	.L91
.L90:
	.loc 1 764 0 is_stmt 1
	ldr	w23, [x21,16]
	.loc 1 766 0
	mov	w2, 0
	ldr	w7, [x21,8]
	.loc 1 767 0
	mov	w1, 0
	.loc 1 765 0
	ldrb	w0, [x21,6]
	ubfiz	w8, w23, 3, 4
	.loc 1 766 0
	bfi	w2, w7, 0, 24
	str	w2, [x29,132]
	.loc 1 765 0
	add	w0, w8, w0
	.loc 1 768 0
	ldr	w3, [x29,124]
	.loc 1 767 0
	bfi	w1, w0, 0, 7
	strb	w1, [x29,135]
.LVL120:
	.loc 1 768 0
	add	x19, x19, x3, sxtw 2
	lsl	x19, x19, 5
	ldr	w7, [x29,132]
	.loc 1 769 0
	mov	x1, x25
	mov	w0, 4
	mov	w2, w7
	.loc 1 768 0
	str	w7, [x20,x19]
	.loc 1 769 0
	bl	dprint_linux_kernel
.LVL121:
	.loc 1 774 0
	add	x7, x19, 4
	.loc 1 764 0
	and	w6, w23, -16
	.loc 1 773 0
	sub	w6, w6, w22
	mov	w0, 0
	bfi	w0, w6, 0, 24
	str	w0, [x29,132]
	.loc 1 775 0
	mov	w2, w0
	.loc 1 774 0
	str	w0, [x20,x7]
	.loc 1 775 0
	mov	x1, x24
	mov	w0, 4
	bl	dprint_linux_kernel
.LVL122:
	.loc 1 779 0
	ldr	w23, [x21,20]
	.loc 1 781 0
	ldr	w2, [x21,12]
	mov	w1, 0
	.loc 1 780 0
	ldrb	w7, [x21,7]
	ubfiz	w6, w23, 3, 4
	.loc 1 781 0
	bfi	w1, w2, 0, 24
	.loc 1 782 0
	mov	w0, 0
	.loc 1 781 0
	str	w1, [x29,132]
	.loc 1 780 0
	add	w6, w6, w7
	.loc 1 782 0
	bfi	w0, w6, 0, 7
	.loc 1 783 0
	add	x6, x19, 8
	.loc 1 782 0
	strb	w0, [x29,135]
	.loc 1 784 0
	mov	w0, 4
	ldr	x1, [x29,112]
	.loc 1 783 0
	ldr	w2, [x29,132]
	str	w2, [x20,x6]
	.loc 1 784 0
	bl	dprint_linux_kernel
.LVL123:
	.loc 1 787 0
	str	wzr, [x29,132]
	.loc 1 789 0
	ldr	w0, [x21,20]
	.loc 1 795 0
	mov	w1, 0
	.loc 1 789 0
	cbz	w0, .L92
	.loc 1 779 0
	and	w8, w23, -16
	.loc 1 791 0
	sub	w1, w8, w22
	and	w1, w1, 16777215
.L92:
	ldr	w6, [x29,132]
	.loc 1 798 0
	add	x7, x19, 12
	.loc 1 799 0
	mov	w0, 4
	.loc 1 817 0
	add	w26, w26, 1
.LVL124:
	bfi	w6, w1, 0, 24
	.loc 1 799 0
	adrp	x1, .LC47
	str	w6, [x29,132]
	mov	w2, w6
	.loc 1 798 0
	str	w6, [x20,x7]
	.loc 1 799 0
	add	x1, x1, :lo12:.LC47
	bl	dprint_linux_kernel
.LVL125:
	.loc 1 802 0
	str	wzr, [x29,132]
	.loc 1 803 0
	ldrb	w2, [x21,5]
	mov	w0, 0
	.loc 1 804 0
	ldrb	w1, [x21,4]
	.loc 1 808 0
	add	x6, x19, 16
	.loc 1 803 0
	bfi	w0, w2, 0, 5
	.loc 1 805 0
	ldrb	w2, [x21,3]
	.loc 1 804 0
	bfi	w0, w1, 5, 2
	strb	w0, [x29,132]
	.loc 1 806 0
	ldrb	w8, [x21,1]
	.loc 1 809 0
	adrp	x1, .LC48
	.loc 1 805 0
	ldrh	w0, [x29,132]
	.loc 1 809 0
	add	x1, x1, :lo12:.LC48
	.loc 1 807 0
	ldrb	w7, [x21,2]
	.loc 1 805 0
	bfi	w0, w2, 7, 3
	strh	w0, [x29,132]
	.loc 1 806 0
	lsr	x2, x0, 8
	.loc 1 809 0
	mov	w0, 4
	.loc 1 806 0
	bfi	w2, w8, 2, 3
	.loc 1 807 0
	bfi	w2, w7, 5, 3
	strb	w2, [x29,133]
	.loc 1 808 0
	ldr	w2, [x29,132]
	str	w2, [x20,x6]
	.loc 1 809 0
	bl	dprint_linux_kernel
.LVL126:
	.loc 1 813 0
	ldr	w0, [x21,24]
	.loc 1 814 0
	add	x1, x19, 20
	.loc 1 813 0
	mov	w2, 0
	bfi	w2, w0, 0, 20
	str	w2, [x29,132]
	.loc 1 814 0
	str	w2, [x20,x1]
	.loc 1 815 0
	adrp	x1, .LC49
	mov	w0, 4
	add	x1, x1, :lo12:.LC49
	bl	dprint_linux_kernel
.LVL127:
	.loc 1 817 0 discriminator 1
	cmp	w28, w26
	ble	.L93
	.loc 1 819 0
	sxtw	x0, w26
.LVL128:
	ldr	w21, [x21,24]
	b	.L109
.LVL129:
.L113:
	.loc 1 817 0 discriminator 2
	add	w26, w26, 1
	.loc 1 817 0 is_stmt 0 discriminator 1
	cmp	w28, w26
	ble	.L93
	.loc 1 819 0 is_stmt 1
	sxtw	x0, w26
.LVL130:
.L109:
	lsl	x1, x0, 5
	sub	x0, x1, x0, lsl 2
.LVL131:
	add	x0, x27, x0
	ldr	w0, [x0,24]
	cmp	w21, w0
	bcs	.L113
.LVL132:
.L93:
	.loc 1 825 0
	cmp	w26, w28
	beq	.L114
	.loc 1 833 0
	ldr	w1, [x29,120]
	.loc 1 832 0
	sxtw	x0, w26
.LVL133:
	.loc 1 833 0
	add	w23, w1, w26, lsl 5
	.loc 1 832 0
	lsl	x1, x0, 5
	sub	x0, x1, x0, lsl 2
.LVL134:
	mov	w21, w23
	add	x0, x27, x0
	ldr	w1, [x0,24]
	sub	w1, w1, #1
.LVL135:
.L98:
	.loc 1 839 0
	add	x7, x19, 24
	.loc 1 838 0
	mov	w0, 0
	bfi	w0, w1, 0, 20
	.loc 1 840 0
	adrp	x1, .LC50
.LVL136:
	.loc 1 838 0
	str	w0, [x29,132]
	.loc 1 840 0
	mov	w2, w0
	add	x1, x1, :lo12:.LC50
	.loc 1 839 0
	str	w0, [x20,x7]
	.loc 1 840 0
	mov	w0, 4
	.loc 1 844 0
	add	x19, x19, 28
	.loc 1 847 0
	sub	w26, w26, #1
.LVL137:
	.loc 1 840 0
	bl	dprint_linux_kernel
.LVL138:
	.loc 1 843 0
	str	w23, [x29,132]
	.loc 1 845 0
	adrp	x1, .LC51
	mov	w0, 4
	add	x1, x1, :lo12:.LC51
	mov	w2, w23
	.loc 1 844 0
	str	w21, [x20,x19]
	.loc 1 845 0
	bl	dprint_linux_kernel
.LVL139:
.L91:
	.loc 1 755 0 discriminator 2
	add	w26, w26, 1
	.loc 1 755 0 is_stmt 0 discriminator 1
	cmp	w28, w26
	bgt	.L99
.LVL140:
.L100:
	.loc 1 850 0 is_stmt 1
	mov	w0, 0
.L85:
	.loc 1 851 0
	adrp	x1, __stack_chk_guard
	ldr	x2, [x29,136]
	ldr	x1, [x1,#:lo12:__stack_chk_guard]
	cmp	x2, x1
	bne	.L115
	ldp	x19, x20, [sp,16]
	.cfi_remember_state
	.cfi_restore 20
	.cfi_restore 19
.LVL141:
	ldp	x21, x22, [sp,32]
	.cfi_restore 22
	.cfi_restore 21
.LVL142:
	ldp	x23, x24, [sp,48]
	.cfi_restore 24
	.cfi_restore 23
	ldp	x25, x26, [sp,64]
	.cfi_restore 26
	.cfi_restore 25
.LVL143:
	ldp	x27, x28, [sp,80]
	.cfi_restore 28
	.cfi_restore 27
.LVL144:
	ldp	x29, x30, [sp], 144
	.cfi_restore 30
	.cfi_restore 29
	.cfi_def_cfa 31, 0
	ret
.LVL145:
.L114:
	.cfi_restore_state
	.loc 1 827 0
	ldr	x1, [x29,104]
.LVL146:
	mov	w21, 0
	.loc 1 828 0
	mov	w23, 0
	.loc 1 827 0
	ldrh	w0, [x1,176]
	ldrh	w1, [x1,178]
.LVL147:
	mul	w1, w0, w1
	sub	w1, w1, #1
.LVL148:
	b	.L98
.LVL149:
.L112:
	.loc 1 757 0
	mov	x21, x27
	mov	x19, 0
	b	.L90
.LVL150:
.L111:
	.loc 1 685 0
	ldr	w21, [x27,16]
	.loc 1 690 0
	adrp	x1, .LC44
	.loc 1 687 0
	ldr	w0, [x29,132]
	.loc 1 690 0
	add	x1, x1, :lo12:.LC44
	.loc 1 686 0
	ldrb	w2, [x27,6]
	ubfiz	w3, w21, 3, 4
	.loc 1 687 0
	and	w0, w0, -16777216
	str	w0, [x29,132]
	.loc 1 686 0
	add	w2, w3, w2
	.loc 1 688 0
	lsr	w0, w0, 24
	bfi	w0, w2, 0, 7
	strb	w0, [x29,135]
	.loc 1 690 0
	mov	w0, 4
	.loc 1 685 0
	and	w21, w21, -16
	.loc 1 689 0
	ldr	w2, [x29,132]
	.loc 1 694 0
	sub	w21, w21, w22
	.loc 1 689 0
	str	w2, [x20]
	.loc 1 690 0
	bl	dprint_linux_kernel
.LVL151:
	.loc 1 694 0
	mov	w0, 0
	.loc 1 696 0
	adrp	x1, .LC45
	.loc 1 694 0
	bfi	w0, w21, 0, 24
	str	w0, [x29,132]
	.loc 1 696 0
	mov	w2, w0
	add	x1, x1, :lo12:.LC45
	.loc 1 695 0
	str	w0, [x20,4]
	.loc 1 696 0
	mov	w0, 4
	bl	dprint_linux_kernel
.LVL152:
	.loc 1 700 0
	ldr	w21, [x27,20]
	.loc 1 701 0
	ldrb	w0, [x27,7]
	.loc 1 703 0
	mov	w1, 0
	.loc 1 701 0
	ubfiz	w3, w21, 3, 4
	.loc 1 702 0
	str	wzr, [x29,132]
	.loc 1 701 0
	add	w3, w3, w0
	.loc 1 705 0
	mov	w0, 4
	.loc 1 703 0
	bfi	w1, w3, 0, 7
	strb	w1, [x29,135]
	.loc 1 705 0
	adrp	x1, .LC46
	.loc 1 704 0
	ldr	w2, [x29,132]
	.loc 1 705 0
	add	x1, x1, :lo12:.LC46
	.loc 1 704 0
	str	w2, [x20,8]
	.loc 1 705 0
	bl	dprint_linux_kernel
.LVL153:
	.loc 1 708 0
	str	wzr, [x29,132]
	.loc 1 710 0
	ldr	w0, [x27,20]
	.loc 1 716 0
	mov	w2, 0
	.loc 1 710 0
	cbz	w0, .L87
	.loc 1 700 0
	and	w21, w21, -16
	.loc 1 712 0
	sub	w2, w21, w22
	and	w2, w2, 16777215
.L87:
	ldr	w3, [x29,132]
	.loc 1 720 0
	adrp	x1, .LC47
	add	x1, x1, :lo12:.LC47
	mov	w0, 4
	bfi	w3, w2, 0, 24
	str	w3, [x29,132]
	mov	w2, w3
	.loc 1 719 0
	str	w3, [x20,12]
	.loc 1 751 0
	mov	w3, 1
.LVL154:
	str	w3, [x29,124]
	.loc 1 746 0
	add	w19, w19, 288
	.loc 1 720 0
	bl	dprint_linux_kernel
.LVL155:
	.loc 1 723 0
	str	wzr, [x29,132]
	.loc 1 724 0
	ldrb	w2, [x27,5]
	mov	w0, 0
	.loc 1 725 0
	ldrb	w1, [x27,4]
	.loc 1 724 0
	bfi	w0, w2, 0, 5
	.loc 1 726 0
	ldrb	w7, [x27,3]
	.loc 1 725 0
	bfi	w0, w1, 5, 2
	strb	w0, [x29,132]
	.loc 1 727 0
	ldrb	w6, [x27,1]
	.loc 1 730 0
	adrp	x1, .LC48
	.loc 1 726 0
	ldrh	w2, [x29,132]
	.loc 1 730 0
	add	x1, x1, :lo12:.LC48
	.loc 1 728 0
	ldrb	w3, [x27,2]
	.loc 1 730 0
	mov	w0, 4
	.loc 1 726 0
	bfi	w2, w7, 7, 3
	strh	w2, [x29,132]
	.loc 1 727 0
	lsr	x2, x2, 8
	bfi	w2, w6, 2, 3
	.loc 1 728 0
	bfi	w2, w3, 5, 3
	strb	w2, [x29,133]
	.loc 1 729 0
	ldr	w2, [x29,132]
	str	w2, [x20,16]
	.loc 1 730 0
	bl	dprint_linux_kernel
.LVL156:
	.loc 1 734 0
	str	wzr, [x29,132]
	.loc 1 736 0
	adrp	x1, .LC49
	mov	w2, 0
	add	x1, x1, :lo12:.LC49
	.loc 1 735 0
	str	wzr, [x20,20]
	.loc 1 736 0
	mov	w0, 4
	bl	dprint_linux_kernel
.LVL157:
	.loc 1 740 0
	ldr	w2, [x27,24]
	.loc 1 741 0
	mov	w0, 0
	.loc 1 743 0
	adrp	x1, .LC50
	.loc 1 740 0
	sub	w2, w2, #1
	.loc 1 743 0
	add	x1, x1, :lo12:.LC50
	.loc 1 741 0
	bfi	w0, w2, 0, 20
	str	w0, [x29,132]
	.loc 1 743 0
	mov	w2, w0
	.loc 1 742 0
	str	w0, [x20,24]
	.loc 1 743 0
	mov	w0, 4
	bl	dprint_linux_kernel
.LVL158:
	.loc 1 748 0
	str	w19, [x20,28]
	.loc 1 749 0
	adrp	x1, .LC51
	mov	w2, w19
	add	x1, x1, :lo12:.LC51
	mov	w0, 4
	.loc 1 747 0
	str	w19, [x29,132]
	.loc 1 749 0
	bl	dprint_linux_kernel
.LVL159:
	b	.L86
.LVL160:
.L115:
	.loc 1 851 0
	bl	__stack_chk_fail
.LVL161:
.L110:
	.loc 1 676 0
	adrp	x2, .LANCHOR0
	adrp	x1, .LC43
	add	x2, x2, :lo12:.LANCHOR0
	mov	w0, 0
.LVL162:
	add	x1, x1, :lo12:.LC43
	add	x2, x2, 16
	bl	dprint_linux_kernel
.LVL163:
	.loc 1 677 0
	mov	w0, -1
	b	.L85
	.cfi_endproc
.LFE2320:
	.size	MP4HAL_WriteSlicMsg, .-MP4HAL_WriteSlicMsg
	.align	2
	.global	MP4HAL_StartDec
	.type	MP4HAL_StartDec, %function
MP4HAL_StartDec:
.LFB2317:
	.loc 1 87 0
	.cfi_startproc
.LVL164:
	stp	x29, x30, [sp, -64]!
	.cfi_def_cfa_offset 64
	.cfi_offset 29, -64
	.cfi_offset 30, -56
	add	x29, sp, 0
	.cfi_def_cfa_register 29
	stp	x19, x20, [sp,16]
	str	x21, [sp,32]
	.cfi_offset 19, -48
	.cfi_offset 20, -40
	.cfi_offset 21, -32
	.loc 1 87 0
	adrp	x20, __stack_chk_guard
	.loc 1 89 0
	str	wzr, [x29,52]
.LVL165:
	.loc 1 87 0
	mov	x19, x0
	.loc 1 92 0
	ldrh	w2, [x0,176]
	.loc 1 87 0
	mov	w21, w1
	ldr	x3, [x20,#:lo12:__stack_chk_guard]
	str	x3, [x29,56]
	.loc 1 92 0
	cmp	w2, 512
	bhi	.L125
	.loc 1 93 0
	ldrh	w2, [x0,178]
	cmp	w2, 512
	bhi	.L126
	.loc 1 96 0
	add	x2, x29, 52
	bl	MP4HAL_CfgReg
.LVL166:
	.loc 1 98 0
	cbnz	w0, .L127
	.loc 1 105 0
	mov	x0, x19
	mov	w1, w21
	bl	MP4HAL_CfgDnMsg
.LVL167:
	.loc 1 107 0
	cbnz	w0, .L128
	.loc 1 114 0
	ldr	w2, [x29,52]
	mov	w1, w21
	mov	x0, x19
	bl	MP4HAL_WriteSlicMsg
.LVL168:
	.loc 1 122 0
	mov	w1, 0
	.loc 1 116 0
	cbnz	w0, .L129
.L118:
	.loc 1 123 0
	ldr	x2, [x29,56]
	mov	w0, w1
	ldr	x1, [x20,#:lo12:__stack_chk_guard]
	cmp	x2, x1
	bne	.L130
	ldp	x19, x20, [sp,16]
	.cfi_remember_state
	.cfi_restore 20
	.cfi_restore 19
.LVL169:
	ldr	x21, [sp,32]
	.cfi_restore 21
.LVL170:
	ldp	x29, x30, [sp], 64
	.cfi_restore 30
	.cfi_restore 29
	.cfi_def_cfa 31, 0
	ret
.LVL171:
.L126:
	.cfi_restore_state
	.loc 1 93 0 discriminator 1
	adrp	x2, .LANCHOR0
	adrp	x1, .LC52
	add	x2, x2, :lo12:.LANCHOR0
	adrp	x4, .LC53
	add	x1, x1, :lo12:.LC52
	mov	w0, 0
.LVL172:
	add	x2, x2, 40
	mov	w3, 93
	add	x4, x4, :lo12:.LC53
	bl	dprint_linux_kernel
.LVL173:
	mov	w1, -1
	.loc 1 93 0 is_stmt 0
	b	.L118
.L127:
	.loc 1 100 0 is_stmt 1
	adrp	x1, .LC54
	mov	w0, 0
	add	x1, x1, :lo12:.LC54
	bl	dprint_linux_kernel
.LVL174:
	.loc 1 101 0
	mov	w1, -1
	b	.L118
.L128:
	.loc 1 109 0
	adrp	x1, .LC55
	mov	w0, 0
	add	x1, x1, :lo12:.LC55
	bl	dprint_linux_kernel
.LVL175:
	.loc 1 110 0
	mov	w1, -1
	b	.L118
.LVL176:
.L125:
	.loc 1 92 0 discriminator 1
	adrp	x2, .LANCHOR0
	adrp	x1, .LC52
	add	x2, x2, :lo12:.LANCHOR0
	adrp	x4, .LC53
	add	x1, x1, :lo12:.LC52
	mov	w0, 0
.LVL177:
	add	x2, x2, 40
	mov	w3, 92
	add	x4, x4, :lo12:.LC53
	bl	dprint_linux_kernel
.LVL178:
	mov	w1, -1
	.loc 1 92 0 is_stmt 0
	b	.L118
.L129:
	.loc 1 118 0 is_stmt 1
	adrp	x1, .LC56
	mov	w0, 0
	add	x1, x1, :lo12:.LC56
	bl	dprint_linux_kernel
.LVL179:
	.loc 1 119 0
	mov	w1, -1
	b	.L118
.L130:
	.loc 1 123 0
	bl	__stack_chk_fail
.LVL180:
	.cfi_endproc
.LFE2317:
	.size	MP4HAL_StartDec, .-MP4HAL_StartDec
	.section	.rodata
	.align	3
.LANCHOR0 = . + 0
	.type	__func__.39145, %object
	.size	__func__.39145, 14
__func__.39145:
	.string	"MP4HAL_CfgReg"
	.zero	2
	.type	__func__.39197, %object
	.size	__func__.39197, 20
__func__.39197:
	.string	"MP4HAL_WriteSlicMsg"
	.zero	4
	.type	__func__.39130, %object
	.size	__func__.39130, 16
__func__.39130:
	.string	"MP4HAL_StartDec"
	.section	.rodata.str1.8,"aMS",%progbits,1
	.align	3
.LC0:
	.string	"%s: VdhId(%d) > %d\n"
	.zero	4
.LC1:
	.string	"stream_base_addr = %#x\n"
.LC2:
	.string	"BASIC_CFG0=0x%x\n"
	.zero	7
.LC3:
	.string	"BASIC_CFG1=0x%x\n"
	.zero	7
.LC4:
	.string	"AVM_ADDR=0x%x\n"
	.zero	1
.LC5:
	.string	"VAM_ADDR=0x%x\n"
	.zero	1
.LC6:
	.string	"STREAM_BASE_ADDR=0x%x\n"
	.zero	1
.LC7:
	.string	"YSTADDR_1D=0x%x\n"
	.zero	7
.LC8:
	.string	"YSTRIDE_1D=0x%x\n"
	.zero	7
.LC9:
	.string	"UVOFFSET_1D=0x%x\n"
	.zero	6
.LC10:
	.string	"PRCMEM2_1D_CNT=0x%x\n"
	.zero	3
.LC11:
	.string	"line: %d ,pMsgBlock = NULL is not expected value!\n"
	.zero	5
.LC12:
	.string	"D0=0x%x\n"
	.zero	7
.LC13:
	.string	"D1=0x%x\n"
	.zero	7
.LC14:
	.string	"D2=0x%x\n"
	.zero	7
.LC15:
	.string	"D3=0x%x\n"
	.zero	7
.LC16:
	.string	"D4=0x%x\n"
	.zero	7
.LC17:
	.string	"D5=0x%x\n"
	.zero	7
.LC18:
	.string	"D6=0x%x\n"
	.zero	7
.LC19:
	.string	"D7=0x%x\n"
	.zero	7
.LC20:
	.string	"D8=0x%x\n"
	.zero	7
.LC21:
	.string	"D9=0x%x\n"
	.zero	7
.LC22:
	.string	"D10=0x%x\n"
	.zero	6
.LC23:
	.string	"D11=0x%x\n"
	.zero	6
.LC24:
	.string	"D12= 0x%x\n"
	.zero	5
.LC25:
	.string	"D13= 0x%x\n"
	.zero	5
.LC26:
	.string	"D14= 0x%x\n"
	.zero	5
.LC27:
	.string	"D15= 0x%x\n"
	.zero	5
.LC28:
	.string	"D16= 0x%x\n"
	.zero	5
.LC29:
	.string	"D17= 0x%x\n"
	.zero	5
.LC30:
	.string	"D18= 0x%x\n"
	.zero	5
.LC31:
	.string	"D19= 0x%x\n"
	.zero	5
.LC32:
	.string	"D20= 0x%x\n"
	.zero	5
.LC33:
	.string	"D21= 0x%x\n"
	.zero	5
.LC34:
	.string	"D22= 0x%x\n"
	.zero	5
.LC35:
	.string	"D23= 0x%x\n"
	.zero	5
.LC36:
	.string	"D24= 0x%x\n"
	.zero	5
.LC37:
	.string	"D25= 0x%x\n"
	.zero	5
.LC38:
	.string	"D26= 0x%x\n"
	.zero	5
.LC39:
	.string	"D27= 0x%x\n"
	.zero	5
.LC40:
	.string	"D%d= 0x%x\n"
	.zero	5
.LC41:
	.string	"D60= 0x%x\n"
	.zero	5
.LC42:
	.string	"D63= 0x%x\n"
	.zero	5
.LC43:
	.string	"%s: SlcDnMsgVirAddr = NULL\n"
	.zero	4
.LC44:
	.string	"D0 = %#x \n"
	.zero	5
.LC45:
	.string	"D1 = %#x \n"
	.zero	5
.LC46:
	.string	"D2 = %#x \n"
	.zero	5
.LC47:
	.string	"D3 = %#x \n"
	.zero	5
.LC48:
	.string	"D4 = %#x \n"
	.zero	5
.LC49:
	.string	"D5 = %#x \n"
	.zero	5
.LC50:
	.string	"D6 = %#x \n"
	.zero	5
.LC51:
	.string	"D7 = %#x \n"
	.zero	5
.LC52:
	.string	"%s %d: %s\n"
	.zero	5
.LC53:
	.string	"picture width out of range"
	.zero	5
.LC54:
	.string	"MP4HAL_CfgReg failed!\n"
	.zero	1
.LC55:
	.string	"MP4HAL_CfgDnMsg failed!\n"
	.zero	7
.LC56:
	.string	"MP4HAL_WriteSlicMsg failed!\n"
	.text
.Letext0:
	.file 2 "/home/jenkins1/slave_49/workspace/CHICAGO_B100_chipset_component/opensource/component_code/vendor/huawei/extra/build/build_script/kirin_kernel_release/kernel/drivers/vcodec/hi_vcodec/vdec/include/hi_type.h"
	.file 3 "/home/jenkins1/slave_49/workspace/CHICAGO_B100_chipset_component/opensource/component_code/vendor/huawei/extra/build/build_script/kirin_kernel_release/kernel/drivers/vcodec/hi_vcodec/vdec/vfmw/vfmw_v4.0/vfmw.h"
	.file 4 "/home/jenkins1/slave_49/workspace/CHICAGO_B100_chipset_component/opensource/component_code/vendor/huawei/extra/build/build_script/kirin_kernel_release/kernel/include/uapi/asm-generic/int-ll64.h"
	.file 5 "/home/jenkins1/slave_49/workspace/CHICAGO_B100_chipset_component/opensource/component_code/vendor/huawei/extra/build/build_script/kirin_kernel_release/kernel/include/asm-generic/int-ll64.h"
	.file 6 "/home/jenkins1/slave_49/workspace/CHICAGO_B100_chipset_component/opensource/component_code/vendor/huawei/extra/build/build_script/kirin_kernel_release/kernel/include/uapi/asm-generic/posix_types.h"
	.file 7 "/home/jenkins1/slave_49/workspace/CHICAGO_B100_chipset_component/opensource/component_code/vendor/huawei/extra/build/build_script/kirin_kernel_release/kernel/include/linux/export.h"
	.file 8 "/home/jenkins1/slave_49/workspace/CHICAGO_B100_chipset_component/opensource/component_code/vendor/huawei/extra/build/build_script/kirin_kernel_release/kernel/include/linux/types.h"
	.file 9 "/home/jenkins1/slave_49/workspace/CHICAGO_B100_chipset_component/opensource/component_code/vendor/huawei/extra/build/build_script/kirin_kernel_release/kernel/include/asm-generic/bug.h"
	.file 10 "/home/jenkins1/slave_49/workspace/CHICAGO_B100_chipset_component/opensource/component_code/vendor/huawei/extra/build/build_script/kirin_kernel_release/kernel/include/linux/thread_info.h"
	.file 11 "/home/jenkins1/slave_49/workspace/CHICAGO_B100_chipset_component/opensource/component_code/vendor/huawei/extra/build/build_script/kirin_kernel_release/kernel/include/uapi/linux/time.h"
	.file 12 "/home/jenkins1/slave_49/workspace/CHICAGO_B100_chipset_component/opensource/component_code/vendor/huawei/extra/build/build_script/kirin_kernel_release/kernel/arch/arm64/include/asm/compat.h"
	.file 13 "/home/jenkins1/slave_49/workspace/CHICAGO_B100_chipset_component/opensource/component_code/vendor/huawei/extra/build/build_script/kirin_kernel_release/kernel/include/uapi/asm-generic/poll.h"
	.file 14 "/home/jenkins1/slave_49/workspace/CHICAGO_B100_chipset_component/opensource/component_code/vendor/huawei/extra/build/build_script/kirin_kernel_release/kernel/include/linux/sched.h"
	.file 15 "/home/jenkins1/slave_49/workspace/CHICAGO_B100_chipset_component/opensource/component_code/vendor/huawei/extra/build/build_script/kirin_kernel_release/kernel/arch/arm64/include/uapi/asm/ptrace.h"
	.file 16 "/home/jenkins1/slave_49/workspace/CHICAGO_B100_chipset_component/opensource/component_code/vendor/huawei/extra/build/build_script/kirin_kernel_release/kernel/arch/arm64/include/asm/ptrace.h"
	.file 17 "/home/jenkins1/slave_49/workspace/CHICAGO_B100_chipset_component/opensource/component_code/vendor/huawei/extra/build/build_script/kirin_kernel_release/kernel/arch/arm64/include/asm/spinlock_types.h"
	.file 18 "/home/jenkins1/slave_49/workspace/CHICAGO_B100_chipset_component/opensource/component_code/vendor/huawei/extra/build/build_script/kirin_kernel_release/kernel/include/linux/spinlock_types.h"
	.file 19 "/home/jenkins1/slave_49/workspace/CHICAGO_B100_chipset_component/opensource/component_code/vendor/huawei/extra/build/build_script/kirin_kernel_release/kernel/include/linux/rwlock_types.h"
	.file 20 "/home/jenkins1/slave_49/workspace/CHICAGO_B100_chipset_component/opensource/component_code/vendor/huawei/extra/build/build_script/kirin_kernel_release/kernel/arch/arm64/include/asm/fpsimd.h"
	.file 21 "/home/jenkins1/slave_49/workspace/CHICAGO_B100_chipset_component/opensource/component_code/vendor/huawei/extra/build/build_script/kirin_kernel_release/kernel/arch/arm64/include/asm/hw_breakpoint.h"
	.file 22 "/home/jenkins1/slave_49/workspace/CHICAGO_B100_chipset_component/opensource/component_code/vendor/huawei/extra/build/build_script/kirin_kernel_release/kernel/arch/arm64/include/asm/processor.h"
	.file 23 "/home/jenkins1/slave_49/workspace/CHICAGO_B100_chipset_component/opensource/component_code/vendor/huawei/extra/build/build_script/kirin_kernel_release/kernel/include/linux/perf_event.h"
	.file 24 "/home/jenkins1/slave_49/workspace/CHICAGO_B100_chipset_component/opensource/component_code/vendor/huawei/extra/build/build_script/kirin_kernel_release/kernel/include/asm-generic/atomic-long.h"
	.file 25 "/home/jenkins1/slave_49/workspace/CHICAGO_B100_chipset_component/opensource/component_code/vendor/huawei/extra/build/build_script/kirin_kernel_release/kernel/include/linux/wait.h"
	.file 26 "/home/jenkins1/slave_49/workspace/CHICAGO_B100_chipset_component/opensource/component_code/vendor/huawei/extra/build/build_script/kirin_kernel_release/kernel/include/linux/seqlock.h"
	.file 27 "/home/jenkins1/slave_49/workspace/CHICAGO_B100_chipset_component/opensource/component_code/vendor/huawei/extra/build/build_script/kirin_kernel_release/kernel/include/linux/nodemask.h"
	.file 28 "/home/jenkins1/slave_49/workspace/CHICAGO_B100_chipset_component/opensource/component_code/vendor/huawei/extra/build/build_script/kirin_kernel_release/kernel/include/linux/cpumask.h"
	.file 29 "/home/jenkins1/slave_49/workspace/CHICAGO_B100_chipset_component/opensource/component_code/vendor/huawei/extra/build/build_script/kirin_kernel_release/kernel/include/linux/completion.h"
	.file 30 "/home/jenkins1/slave_49/workspace/CHICAGO_B100_chipset_component/opensource/component_code/vendor/huawei/extra/build/build_script/kirin_kernel_release/kernel/include/linux/ktime.h"
	.file 31 "/home/jenkins1/slave_49/workspace/CHICAGO_B100_chipset_component/opensource/component_code/vendor/huawei/extra/build/build_script/kirin_kernel_release/kernel/include/linux/rbtree.h"
	.file 32 "/home/jenkins1/slave_49/workspace/CHICAGO_B100_chipset_component/opensource/component_code/vendor/huawei/extra/build/build_script/kirin_kernel_release/kernel/include/linux/osq_lock.h"
	.file 33 "/home/jenkins1/slave_49/workspace/CHICAGO_B100_chipset_component/opensource/component_code/vendor/huawei/extra/build/build_script/kirin_kernel_release/kernel/include/linux/rwsem.h"
	.file 34 "/home/jenkins1/slave_49/workspace/CHICAGO_B100_chipset_component/opensource/component_code/vendor/huawei/extra/build/build_script/kirin_kernel_release/kernel/include/linux/mm_types.h"
	.file 35 "/home/jenkins1/slave_49/workspace/CHICAGO_B100_chipset_component/opensource/component_code/vendor/huawei/extra/build/build_script/kirin_kernel_release/kernel/include/linux/lockdep.h"
	.file 36 "/home/jenkins1/slave_49/workspace/CHICAGO_B100_chipset_component/opensource/component_code/vendor/huawei/extra/build/build_script/kirin_kernel_release/kernel/include/linux/uprobes.h"
	.file 37 "/home/jenkins1/slave_49/workspace/CHICAGO_B100_chipset_component/opensource/component_code/vendor/huawei/extra/build/build_script/kirin_kernel_release/kernel/arch/arm64/include/asm/pgtable-types.h"
	.file 38 "/home/jenkins1/slave_49/workspace/CHICAGO_B100_chipset_component/opensource/component_code/vendor/huawei/extra/build/build_script/kirin_kernel_release/kernel/arch/arm64/include/asm/mmu.h"
	.file 39 "/home/jenkins1/slave_49/workspace/CHICAGO_B100_chipset_component/opensource/component_code/vendor/huawei/extra/build/build_script/kirin_kernel_release/kernel/include/linux/fs.h"
	.file 40 "/home/jenkins1/slave_49/workspace/CHICAGO_B100_chipset_component/opensource/component_code/vendor/huawei/extra/build/build_script/kirin_kernel_release/kernel/include/linux/mm.h"
	.file 41 "/home/jenkins1/slave_49/workspace/CHICAGO_B100_chipset_component/opensource/component_code/vendor/huawei/extra/build/build_script/kirin_kernel_release/kernel/include/linux/mmzone.h"
	.file 42 "/home/jenkins1/slave_49/workspace/CHICAGO_B100_chipset_component/opensource/component_code/vendor/huawei/extra/build/build_script/kirin_kernel_release/kernel/include/linux/mutex.h"
	.file 43 "/home/jenkins1/slave_49/workspace/CHICAGO_B100_chipset_component/opensource/component_code/vendor/huawei/extra/build/build_script/kirin_kernel_release/kernel/include/linux/timer.h"
	.file 44 "/home/jenkins1/slave_49/workspace/CHICAGO_B100_chipset_component/opensource/component_code/vendor/huawei/extra/build/build_script/kirin_kernel_release/kernel/include/linux/nsproxy.h"
	.file 45 "/home/jenkins1/slave_49/workspace/CHICAGO_B100_chipset_component/opensource/component_code/vendor/huawei/extra/build/build_script/kirin_kernel_release/kernel/include/linux/workqueue.h"
	.file 46 "/home/jenkins1/slave_49/workspace/CHICAGO_B100_chipset_component/opensource/component_code/vendor/huawei/extra/build/build_script/kirin_kernel_release/kernel/include/linux/llist.h"
	.file 47 "/home/jenkins1/slave_49/workspace/CHICAGO_B100_chipset_component/opensource/component_code/vendor/huawei/extra/build/build_script/kirin_kernel_release/kernel/arch/arm64/include/asm/smp.h"
	.file 48 "/home/jenkins1/slave_49/workspace/CHICAGO_B100_chipset_component/opensource/component_code/vendor/huawei/extra/build/build_script/kirin_kernel_release/kernel/include/linux/shrinker.h"
	.file 49 "/home/jenkins1/slave_49/workspace/CHICAGO_B100_chipset_component/opensource/component_code/vendor/huawei/extra/build/build_script/kirin_kernel_release/kernel/include/uapi/linux/resource.h"
	.file 50 "/home/jenkins1/slave_49/workspace/CHICAGO_B100_chipset_component/opensource/component_code/vendor/huawei/extra/build/build_script/kirin_kernel_release/kernel/include/linux/vmstat.h"
	.file 51 "/home/jenkins1/slave_49/workspace/CHICAGO_B100_chipset_component/opensource/component_code/vendor/huawei/extra/build/build_script/kirin_kernel_release/kernel/include/linux/capability.h"
	.file 52 "/home/jenkins1/slave_49/workspace/CHICAGO_B100_chipset_component/opensource/component_code/vendor/huawei/extra/build/build_script/kirin_kernel_release/kernel/include/linux/plist.h"
	.file 53 "/home/jenkins1/slave_49/workspace/CHICAGO_B100_chipset_component/opensource/component_code/vendor/huawei/extra/build/build_script/kirin_kernel_release/kernel/include/asm-generic/cputime_jiffies.h"
	.file 54 "/home/jenkins1/slave_49/workspace/CHICAGO_B100_chipset_component/opensource/component_code/vendor/huawei/extra/build/build_script/kirin_kernel_release/kernel/include/linux/uidgid.h"
	.file 55 "/home/jenkins1/slave_49/workspace/CHICAGO_B100_chipset_component/opensource/component_code/vendor/huawei/extra/build/build_script/kirin_kernel_release/kernel/include/uapi/asm-generic/signal.h"
	.file 56 "/home/jenkins1/slave_49/workspace/CHICAGO_B100_chipset_component/opensource/component_code/vendor/huawei/extra/build/build_script/kirin_kernel_release/kernel/include/uapi/asm-generic/signal-defs.h"
	.file 57 "/home/jenkins1/slave_49/workspace/CHICAGO_B100_chipset_component/opensource/component_code/vendor/huawei/extra/build/build_script/kirin_kernel_release/kernel/include/uapi/asm-generic/siginfo.h"
	.file 58 "/home/jenkins1/slave_49/workspace/CHICAGO_B100_chipset_component/opensource/component_code/vendor/huawei/extra/build/build_script/kirin_kernel_release/kernel/include/linux/signal.h"
	.file 59 "/home/jenkins1/slave_49/workspace/CHICAGO_B100_chipset_component/opensource/component_code/vendor/huawei/extra/build/build_script/kirin_kernel_release/kernel/include/linux/pid.h"
	.file 60 "/home/jenkins1/slave_49/workspace/CHICAGO_B100_chipset_component/opensource/component_code/vendor/huawei/extra/build/build_script/kirin_kernel_release/kernel/include/linux/pid_namespace.h"
	.file 61 "/home/jenkins1/slave_49/workspace/CHICAGO_B100_chipset_component/opensource/component_code/vendor/huawei/extra/build/build_script/kirin_kernel_release/kernel/include/linux/percpu_counter.h"
	.file 62 "/home/jenkins1/slave_49/workspace/CHICAGO_B100_chipset_component/opensource/component_code/vendor/huawei/extra/build/build_script/kirin_kernel_release/kernel/include/linux/seccomp.h"
	.file 63 "/home/jenkins1/slave_49/workspace/CHICAGO_B100_chipset_component/opensource/component_code/vendor/huawei/extra/build/build_script/kirin_kernel_release/kernel/include/linux/timerqueue.h"
	.file 64 "/home/jenkins1/slave_49/workspace/CHICAGO_B100_chipset_component/opensource/component_code/vendor/huawei/extra/build/build_script/kirin_kernel_release/kernel/include/linux/hrtimer.h"
	.file 65 "/home/jenkins1/slave_49/workspace/CHICAGO_B100_chipset_component/opensource/component_code/vendor/huawei/extra/build/build_script/kirin_kernel_release/kernel/include/linux/task_io_accounting.h"
	.file 66 "/home/jenkins1/slave_49/workspace/CHICAGO_B100_chipset_component/opensource/component_code/vendor/huawei/extra/build/build_script/kirin_kernel_release/kernel/include/linux/assoc_array.h"
	.file 67 "/home/jenkins1/slave_49/workspace/CHICAGO_B100_chipset_component/opensource/component_code/vendor/huawei/extra/build/build_script/kirin_kernel_release/kernel/include/linux/key.h"
	.file 68 "/home/jenkins1/slave_49/workspace/CHICAGO_B100_chipset_component/opensource/component_code/vendor/huawei/extra/build/build_script/kirin_kernel_release/kernel/include/linux/cred.h"
	.file 69 "/home/jenkins1/slave_49/workspace/CHICAGO_B100_chipset_component/opensource/component_code/vendor/huawei/extra/build/build_script/kirin_kernel_release/kernel/include/linux/idr.h"
	.file 70 "/home/jenkins1/slave_49/workspace/CHICAGO_B100_chipset_component/opensource/component_code/vendor/huawei/extra/build/build_script/kirin_kernel_release/kernel/include/linux/percpu-refcount.h"
	.file 71 "/home/jenkins1/slave_49/workspace/CHICAGO_B100_chipset_component/opensource/component_code/vendor/huawei/extra/build/build_script/kirin_kernel_release/kernel/include/linux/rcu_sync.h"
	.file 72 "/home/jenkins1/slave_49/workspace/CHICAGO_B100_chipset_component/opensource/component_code/vendor/huawei/extra/build/build_script/kirin_kernel_release/kernel/include/linux/percpu-rwsem.h"
	.file 73 "/home/jenkins1/slave_49/workspace/CHICAGO_B100_chipset_component/opensource/component_code/vendor/huawei/extra/build/build_script/kirin_kernel_release/kernel/include/linux/cgroup-defs.h"
	.file 74 "/home/jenkins1/slave_49/workspace/CHICAGO_B100_chipset_component/opensource/component_code/vendor/huawei/extra/build/build_script/kirin_kernel_release/kernel/include/linux/kernfs.h"
	.file 75 "/home/jenkins1/slave_49/workspace/CHICAGO_B100_chipset_component/opensource/component_code/vendor/huawei/extra/build/build_script/kirin_kernel_release/kernel/include/linux/seq_file.h"
	.file 76 "/home/jenkins1/slave_49/workspace/CHICAGO_B100_chipset_component/opensource/component_code/vendor/huawei/extra/build/build_script/kirin_kernel_release/kernel/include/uapi/linux/taskstats.h"
	.file 77 "/home/jenkins1/slave_49/workspace/CHICAGO_B100_chipset_component/opensource/component_code/vendor/huawei/extra/build/build_script/kirin_kernel_release/kernel/include/linux/compat.h"
	.file 78 "/home/jenkins1/slave_49/workspace/CHICAGO_B100_chipset_component/opensource/component_code/vendor/huawei/extra/build/build_script/kirin_kernel_release/kernel/include/linux/stat.h"
	.file 79 "/home/jenkins1/slave_49/workspace/CHICAGO_B100_chipset_component/opensource/component_code/vendor/huawei/extra/build/build_script/kirin_kernel_release/kernel/include/uapi/linux/elf.h"
	.file 80 "/home/jenkins1/slave_49/workspace/CHICAGO_B100_chipset_component/opensource/component_code/vendor/huawei/extra/build/build_script/kirin_kernel_release/kernel/include/linux/kobject_ns.h"
	.file 81 "/home/jenkins1/slave_49/workspace/CHICAGO_B100_chipset_component/opensource/component_code/vendor/huawei/extra/build/build_script/kirin_kernel_release/kernel/include/linux/sysfs.h"
	.file 82 "/home/jenkins1/slave_49/workspace/CHICAGO_B100_chipset_component/opensource/component_code/vendor/huawei/extra/build/build_script/kirin_kernel_release/kernel/include/linux/kobject.h"
	.file 83 "/home/jenkins1/slave_49/workspace/CHICAGO_B100_chipset_component/opensource/component_code/vendor/huawei/extra/build/build_script/kirin_kernel_release/kernel/include/linux/kref.h"
	.file 84 "/home/jenkins1/slave_49/workspace/CHICAGO_B100_chipset_component/opensource/component_code/vendor/huawei/extra/build/build_script/kirin_kernel_release/kernel/include/linux/moduleparam.h"
	.file 85 "/home/jenkins1/slave_49/workspace/CHICAGO_B100_chipset_component/opensource/component_code/vendor/huawei/extra/build/build_script/kirin_kernel_release/kernel/include/linux/module.h"
	.file 86 "/home/jenkins1/slave_49/workspace/CHICAGO_B100_chipset_component/opensource/component_code/vendor/huawei/extra/build/build_script/kirin_kernel_release/kernel/include/linux/jump_label.h"
	.file 87 "/home/jenkins1/slave_49/workspace/CHICAGO_B100_chipset_component/opensource/component_code/vendor/huawei/extra/build/build_script/kirin_kernel_release/kernel/include/linux/rbtree_latch.h"
	.file 88 "/home/jenkins1/slave_49/workspace/CHICAGO_B100_chipset_component/opensource/component_code/vendor/huawei/extra/build/build_script/kirin_kernel_release/kernel/arch/arm64/include/asm/module.h"
	.file 89 "/home/jenkins1/slave_49/workspace/CHICAGO_B100_chipset_component/opensource/component_code/vendor/huawei/extra/build/build_script/kirin_kernel_release/kernel/arch/arm64/include/asm/uaccess.h"
	.file 90 "/home/jenkins1/slave_49/workspace/CHICAGO_B100_chipset_component/opensource/component_code/vendor/huawei/extra/build/build_script/kirin_kernel_release/kernel/include/linux/tracepoint.h"
	.file 91 "/home/jenkins1/slave_49/workspace/CHICAGO_B100_chipset_component/opensource/component_code/vendor/huawei/extra/build/build_script/kirin_kernel_release/kernel/include/linux/trace_events.h"
	.file 92 "/home/jenkins1/slave_49/workspace/CHICAGO_B100_chipset_component/opensource/component_code/vendor/huawei/extra/build/build_script/kirin_kernel_release/kernel/include/linux/quota.h"
	.file 93 "/home/jenkins1/slave_49/workspace/CHICAGO_B100_chipset_component/opensource/component_code/vendor/huawei/extra/build/build_script/kirin_kernel_release/kernel/include/linux/projid.h"
	.file 94 "/home/jenkins1/slave_49/workspace/CHICAGO_B100_chipset_component/opensource/component_code/vendor/huawei/extra/build/build_script/kirin_kernel_release/kernel/include/linux/path.h"
	.file 95 "/home/jenkins1/slave_49/workspace/CHICAGO_B100_chipset_component/opensource/component_code/vendor/huawei/extra/build/build_script/kirin_kernel_release/kernel/include/linux/list_bl.h"
	.file 96 "/home/jenkins1/slave_49/workspace/CHICAGO_B100_chipset_component/opensource/component_code/vendor/huawei/extra/build/build_script/kirin_kernel_release/kernel/include/linux/lockref.h"
	.file 97 "/home/jenkins1/slave_49/workspace/CHICAGO_B100_chipset_component/opensource/component_code/vendor/huawei/extra/build/build_script/kirin_kernel_release/kernel/include/linux/dcache.h"
	.file 98 "/home/jenkins1/slave_49/workspace/CHICAGO_B100_chipset_component/opensource/component_code/vendor/huawei/extra/build/build_script/kirin_kernel_release/kernel/include/linux/list_lru.h"
	.file 99 "/home/jenkins1/slave_49/workspace/CHICAGO_B100_chipset_component/opensource/component_code/vendor/huawei/extra/build/build_script/kirin_kernel_release/kernel/include/linux/radix-tree.h"
	.file 100 "/home/jenkins1/slave_49/workspace/CHICAGO_B100_chipset_component/opensource/component_code/vendor/huawei/extra/build/build_script/kirin_kernel_release/kernel/include/uapi/linux/fiemap.h"
	.file 101 "/home/jenkins1/slave_49/workspace/CHICAGO_B100_chipset_component/opensource/component_code/vendor/huawei/extra/build/build_script/kirin_kernel_release/kernel/include/linux/migrate_mode.h"
	.file 102 "/home/jenkins1/slave_49/workspace/CHICAGO_B100_chipset_component/opensource/component_code/vendor/huawei/extra/build/build_script/kirin_kernel_release/kernel/include/linux/blk_types.h"
	.file 103 "/home/jenkins1/slave_49/workspace/CHICAGO_B100_chipset_component/opensource/component_code/vendor/huawei/extra/build/build_script/kirin_kernel_release/kernel/include/linux/uio.h"
	.file 104 "/home/jenkins1/slave_49/workspace/CHICAGO_B100_chipset_component/opensource/component_code/vendor/huawei/extra/build/build_script/kirin_kernel_release/kernel/include/linux/nfs_fs_i.h"
	.file 105 "/home/jenkins1/slave_49/workspace/CHICAGO_B100_chipset_component/opensource/component_code/vendor/huawei/extra/build/build_script/kirin_kernel_release/kernel/include/linux/poll.h"
	.file 106 "/home/jenkins1/slave_49/workspace/CHICAGO_B100_chipset_component/opensource/component_code/vendor/huawei/extra/build/build_script/kirin_kernel_release/kernel/include/linux/seq_buf.h"
	.file 107 "/home/jenkins1/slave_49/workspace/CHICAGO_B100_chipset_component/opensource/component_code/vendor/huawei/extra/build/build_script/kirin_kernel_release/kernel/include/linux/trace_seq.h"
	.file 108 "/home/jenkins1/slave_49/workspace/CHICAGO_B100_chipset_component/opensource/component_code/vendor/huawei/extra/build/build_script/kirin_kernel_release/kernel/include/uapi/linux/perf_event.h"
	.file 109 "/home/jenkins1/slave_49/workspace/CHICAGO_B100_chipset_component/opensource/component_code/vendor/huawei/extra/build/build_script/kirin_kernel_release/kernel/include/asm-generic/local.h"
	.file 110 "/home/jenkins1/slave_49/workspace/CHICAGO_B100_chipset_component/opensource/component_code/vendor/huawei/extra/build/build_script/kirin_kernel_release/kernel/include/asm-generic/local64.h"
	.file 111 "/home/jenkins1/slave_49/workspace/CHICAGO_B100_chipset_component/opensource/component_code/vendor/huawei/extra/build/build_script/kirin_kernel_release/kernel/include/linux/ns_common.h"
	.file 112 "/home/jenkins1/slave_49/workspace/CHICAGO_B100_chipset_component/opensource/component_code/vendor/huawei/extra/build/build_script/kirin_kernel_release/kernel/include/uapi/linux/uio.h"
	.file 113 "/home/jenkins1/slave_49/workspace/CHICAGO_B100_chipset_component/opensource/component_code/vendor/huawei/extra/build/build_script/kirin_kernel_release/kernel/include/linux/klist.h"
	.file 114 "/home/jenkins1/slave_49/workspace/CHICAGO_B100_chipset_component/opensource/component_code/vendor/huawei/extra/build/build_script/kirin_kernel_release/kernel/include/linux/pinctrl/devinfo.h"
	.file 115 "/home/jenkins1/slave_49/workspace/CHICAGO_B100_chipset_component/opensource/component_code/vendor/huawei/extra/build/build_script/kirin_kernel_release/kernel/include/linux/pm.h"
	.file 116 "/home/jenkins1/slave_49/workspace/CHICAGO_B100_chipset_component/opensource/component_code/vendor/huawei/extra/build/build_script/kirin_kernel_release/kernel/include/linux/device.h"
	.file 117 "/home/jenkins1/slave_49/workspace/CHICAGO_B100_chipset_component/opensource/component_code/vendor/huawei/extra/build/build_script/kirin_kernel_release/kernel/include/linux/pm_wakeup.h"
	.file 118 "/home/jenkins1/slave_49/workspace/CHICAGO_B100_chipset_component/opensource/component_code/vendor/huawei/extra/build/build_script/kirin_kernel_release/kernel/arch/arm64/include/asm/device.h"
	.file 119 "/home/jenkins1/slave_49/workspace/CHICAGO_B100_chipset_component/opensource/component_code/vendor/huawei/extra/build/build_script/kirin_kernel_release/kernel/include/linux/irq_work.h"
	.file 120 "/home/jenkins1/slave_49/workspace/CHICAGO_B100_chipset_component/opensource/component_code/vendor/huawei/extra/build/build_script/kirin_kernel_release/kernel/include/linux/jump_label_ratelimit.h"
	.file 121 "/home/jenkins1/slave_49/workspace/CHICAGO_B100_chipset_component/opensource/component_code/vendor/huawei/extra/build/build_script/kirin_kernel_release/kernel/include/linux/perf_regs.h"
	.file 122 "/home/jenkins1/slave_49/workspace/CHICAGO_B100_chipset_component/opensource/component_code/vendor/huawei/extra/build/build_script/kirin_kernel_release/kernel/drivers/vcodec/hi_vcodec/vdec/vfmw/vfmw_v4.0/firmware/common/mem_manage.h"
	.file 123 "/home/jenkins1/slave_49/workspace/CHICAGO_B100_chipset_component/opensource/component_code/vendor/huawei/extra/build/build_script/kirin_kernel_release/kernel/drivers/vcodec/hi_vcodec/vdec/vfmw/vfmw_v4.0/firmware/driver/HiSCDV200/scd_drv.h"
	.file 124 "/home/jenkins1/slave_49/workspace/CHICAGO_B100_chipset_component/opensource/component_code/vendor/huawei/extra/build/build_script/kirin_kernel_release/kernel/drivers/vcodec/hi_vcodec/vdec/vfmw/vfmw_v4.0/firmware/common/decparam.h"
	.file 125 "/home/jenkins1/slave_49/workspace/CHICAGO_B100_chipset_component/opensource/component_code/vendor/huawei/extra/build/build_script/kirin_kernel_release/kernel/drivers/vcodec/hi_vcodec/vdec/vfmw/vfmw_v4.0/firmware/common/vdm_drv.h"
	.file 126 "/home/jenkins1/slave_49/workspace/CHICAGO_B100_chipset_component/opensource/component_code/vendor/huawei/extra/build/build_script/kirin_kernel_release/kernel/drivers/vcodec/hi_vcodec/vdec/vfmw/vfmw_v4.0/firmware/common/vdm_hal.h"
	.file 127 "/home/jenkins1/slave_49/workspace/CHICAGO_B100_chipset_component/opensource/component_code/vendor/huawei/extra/build/build_script/kirin_kernel_release/kernel/drivers/vcodec/hi_vcodec/vdec/vfmw/vfmw_v4.0/firmware/common/public.h"
	.file 128 "/home/jenkins1/slave_49/workspace/CHICAGO_B100_chipset_component/opensource/component_code/vendor/huawei/extra/build/build_script/kirin_kernel_release/kernel/drivers/vcodec/hi_vcodec/vdec/vfmw/vfmw_v4.0/firmware/common/syn_cmn.h"
	.file 129 "/home/jenkins1/slave_49/workspace/CHICAGO_B100_chipset_component/opensource/component_code/vendor/huawei/extra/build/build_script/kirin_kernel_release/kernel/drivers/vcodec/hi_vcodec/vdec/vfmw/vfmw_v4.0/firmware/common/fsp.h"
	.file 130 "/home/jenkins1/slave_49/workspace/CHICAGO_B100_chipset_component/opensource/component_code/vendor/huawei/extra/build/build_script/kirin_kernel_release/kernel/drivers/vcodec/hi_vcodec/vdec/vfmw/vfmw_v4.0/firmware/common/bitstream.h"
	.file 131 "/home/jenkins1/slave_49/workspace/CHICAGO_B100_chipset_component/opensource/component_code/vendor/huawei/extra/build/build_script/kirin_kernel_release/kernel/drivers/vcodec/hi_vcodec/vdec/vfmw/vfmw_v4.0/firmware/common/syntax/mpeg2.h"
	.file 132 "/home/jenkins1/slave_49/workspace/CHICAGO_B100_chipset_component/opensource/component_code/vendor/huawei/extra/build/build_script/kirin_kernel_release/kernel/drivers/vcodec/hi_vcodec/vdec/vfmw/vfmw_v4.0/firmware/common/syntax/mpeg4.h"
	.file 133 "/home/jenkins1/slave_49/workspace/CHICAGO_B100_chipset_component/opensource/component_code/vendor/huawei/extra/build/build_script/kirin_kernel_release/kernel/drivers/vcodec/hi_vcodec/vdec/vfmw/vfmw_v4.0/firmware/common/syntax/h264.h"
	.file 134 "/home/jenkins1/slave_49/workspace/CHICAGO_B100_chipset_component/opensource/component_code/vendor/huawei/extra/build/build_script/kirin_kernel_release/kernel/drivers/vcodec/hi_vcodec/vdec/vfmw/vfmw_v4.0/firmware/common/syntax/hevc.h"
	.file 135 "/home/jenkins1/slave_49/workspace/CHICAGO_B100_chipset_component/opensource/component_code/vendor/huawei/extra/build/build_script/kirin_kernel_release/kernel/drivers/vcodec/hi_vcodec/vdec/vfmw/vfmw_v4.0/firmware/common/syntax/vc1.h"
	.file 136 "/home/jenkins1/slave_49/workspace/CHICAGO_B100_chipset_component/opensource/component_code/vendor/huawei/extra/build/build_script/kirin_kernel_release/kernel/drivers/vcodec/hi_vcodec/vdec/vfmw/vfmw_v4.0/firmware/common/syntax/real8.h"
	.file 137 "/home/jenkins1/slave_49/workspace/CHICAGO_B100_chipset_component/opensource/component_code/vendor/huawei/extra/build/build_script/kirin_kernel_release/kernel/drivers/vcodec/hi_vcodec/vdec/vfmw/vfmw_v4.0/firmware/common/syntax/real9.h"
	.file 138 "/home/jenkins1/slave_49/workspace/CHICAGO_B100_chipset_component/opensource/component_code/vendor/huawei/extra/build/build_script/kirin_kernel_release/kernel/drivers/vcodec/hi_vcodec/vdec/vfmw/vfmw_v4.0/firmware/common/syntax/divx3.h"
	.file 139 "/home/jenkins1/slave_49/workspace/CHICAGO_B100_chipset_component/opensource/component_code/vendor/huawei/extra/build/build_script/kirin_kernel_release/kernel/drivers/vcodec/hi_vcodec/vdec/vfmw/vfmw_v4.0/firmware/common/syntax/vp6.h"
	.file 140 "/home/jenkins1/slave_49/workspace/CHICAGO_B100_chipset_component/opensource/component_code/vendor/huawei/extra/build/build_script/kirin_kernel_release/kernel/drivers/vcodec/hi_vcodec/vdec/vfmw/vfmw_v4.0/firmware/common/syntax/vp8.h"
	.file 141 "/home/jenkins1/slave_49/workspace/CHICAGO_B100_chipset_component/opensource/component_code/vendor/huawei/extra/build/build_script/kirin_kernel_release/kernel/drivers/vcodec/hi_vcodec/vdec/vfmw/vfmw_v4.0/firmware/common/syntax/syntax.h"
	.file 142 "/home/jenkins1/slave_49/workspace/CHICAGO_B100_chipset_component/opensource/component_code/vendor/huawei/extra/build/build_script/kirin_kernel_release/kernel/drivers/vcodec/hi_vcodec/vdec/vfmw/vfmw_v4.0/firmware/common/vfmw_ctrl.h"
	.file 143 "/home/jenkins1/slave_49/workspace/CHICAGO_B100_chipset_component/opensource/component_code/vendor/huawei/extra/build/build_script/kirin_kernel_release/kernel/drivers/vcodec/hi_vcodec/vdec/vfmw/vfmw_v4.0/firmware/driver/HiVDHV400R004/vdm_hal_mpeg4.h"
	.file 144 "/home/jenkins1/slave_49/workspace/CHICAGO_B100_chipset_component/opensource/component_code/vendor/huawei/extra/build/build_script/kirin_kernel_release/kernel/drivers/vcodec/hi_vcodec/vdec/vfmw/vfmw_v4.0/firmware/product/HiVCodecV100/sysconfig.h"
	.file 145 "/home/jenkins1/slave_49/workspace/CHICAGO_B100_chipset_component/opensource/component_code/vendor/huawei/extra/build/build_script/kirin_kernel_release/kernel/arch/arm64/include/asm/cachetype.h"
	.file 146 "/home/jenkins1/slave_49/workspace/CHICAGO_B100_chipset_component/opensource/component_code/vendor/huawei/extra/build/build_script/kirin_kernel_release/kernel/include/linux/printk.h"
	.file 147 "/home/jenkins1/slave_49/workspace/CHICAGO_B100_chipset_component/opensource/component_code/vendor/huawei/extra/build/build_script/kirin_kernel_release/kernel/include/linux/kernel.h"
	.file 148 "/home/jenkins1/slave_49/workspace/CHICAGO_B100_chipset_component/opensource/component_code/vendor/huawei/extra/build/build_script/kirin_kernel_release/kernel/arch/arm64/include/asm/thread_info.h"
	.file 149 "/home/jenkins1/slave_49/workspace/CHICAGO_B100_chipset_component/opensource/component_code/vendor/huawei/extra/build/build_script/kirin_kernel_release/kernel/include/chipset_common/kernel_harden/kaslr.h"
	.file 150 "/home/jenkins1/slave_49/workspace/CHICAGO_B100_chipset_component/opensource/component_code/vendor/huawei/extra/build/build_script/kirin_kernel_release/kernel/arch/arm64/include/asm/hwcap.h"
	.file 151 "/home/jenkins1/slave_49/workspace/CHICAGO_B100_chipset_component/opensource/component_code/vendor/huawei/extra/build/build_script/kirin_kernel_release/kernel/arch/arm64/include/asm/cpufeature.h"
	.file 152 "/home/jenkins1/slave_49/workspace/CHICAGO_B100_chipset_component/opensource/component_code/vendor/huawei/extra/build/build_script/kirin_kernel_release/kernel/include/linux/jiffies.h"
	.file 153 "/home/jenkins1/slave_49/workspace/CHICAGO_B100_chipset_component/opensource/component_code/vendor/huawei/extra/build/build_script/kirin_kernel_release/kernel/arch/arm64/include/asm/memory.h"
	.file 154 "/home/jenkins1/slave_49/workspace/CHICAGO_B100_chipset_component/opensource/component_code/vendor/huawei/extra/build/build_script/kirin_kernel_release/kernel/include/asm-generic/percpu.h"
	.file 155 "/home/jenkins1/slave_49/workspace/CHICAGO_B100_chipset_component/opensource/component_code/vendor/huawei/extra/build/build_script/kirin_kernel_release/kernel/include/linux/debug_locks.h"
	.file 156 "/home/jenkins1/slave_49/workspace/CHICAGO_B100_chipset_component/opensource/component_code/vendor/huawei/extra/build/build_script/kirin_kernel_release/kernel/include/asm-generic/pgtable.h"
	.file 157 "/home/jenkins1/slave_49/workspace/CHICAGO_B100_chipset_component/opensource/component_code/vendor/huawei/extra/build/build_script/kirin_kernel_release/kernel/include/linux/highuid.h"
	.file 158 "/home/jenkins1/slave_49/workspace/CHICAGO_B100_chipset_component/opensource/component_code/vendor/huawei/extra/build/build_script/kirin_kernel_release/kernel/arch/arm64/include/asm/irq.h"
	.file 159 "/home/jenkins1/slave_49/workspace/CHICAGO_B100_chipset_component/opensource/component_code/vendor/huawei/extra/build/build_script/kirin_kernel_release/kernel/arch/arm64/include/asm/hardirq.h"
	.file 160 "/home/jenkins1/slave_49/workspace/CHICAGO_B100_chipset_component/opensource/component_code/vendor/huawei/extra/build/build_script/kirin_kernel_release/kernel/include/linux/cgroup.h"
	.file 161 "/home/jenkins1/slave_49/workspace/CHICAGO_B100_chipset_component/opensource/component_code/vendor/huawei/extra/build/build_script/kirin_kernel_release/kernel/include/linux/slab.h"
	.file 162 "/home/jenkins1/slave_49/workspace/CHICAGO_B100_chipset_component/opensource/component_code/vendor/huawei/extra/build/build_script/kirin_kernel_release/kernel/include/linux/interrupt.h"
	.section	.note.GNU-stack,"",%progbits
