	.cpu generic+fp+simd
	.file	"nf_app_dl_monitor.c"
	.text
.Ltext0:
	.cfi_sections	.debug_frame
#APP
	.irp	num,0,1,2,3,4,5,6,7,8,9,10,11,12,13,14,15,16,17,18,19,20,21,22,23,24,25,26,27,28,29,30
	.equ	.L__reg_num_x\num, \num
	.endr
	.equ	.L__reg_num_xzr, 31

	.macro	mrs_s, rt, sreg
	.inst	0xd5200000|(\sreg)|(.L__reg_num_\rt)
	.endm

	.macro	msr_s, sreg, rt
	.inst	0xd5000000|(\sreg)|(.L__reg_num_\rt)
	.endm

#NO_APP
	.align	2
	.type	dl_timer, %function
dl_timer:
.LFB3511:
	.file 1 "/home/jenkins1/slave_49/workspace/CHICAGO_B100_chipset_component/opensource/component_code/vendor/huawei/extra/build/build_script/kirin_kernel_release/kernel/drivers/huawei_platform/net/hw_netfilter/nf_app_dl_monitor.c"
	.loc 1 309 0
	.cfi_startproc
.LVL0:
	stp	x29, x30, [sp, -64]!
	.cfi_def_cfa_offset 64
	.cfi_offset 29, -64
	.cfi_offset 30, -56
	add	x29, sp, 0
	.cfi_def_cfa_register 29
	stp	x21, x22, [sp,32]
	stp	x19, x20, [sp,16]
	str	x23, [sp,48]
	.cfi_offset 21, -32
	.cfi_offset 22, -24
	.cfi_offset 19, -48
	.cfi_offset 20, -40
	.cfi_offset 23, -16
	adrp	x21, .LANCHOR0
	.loc 1 313 0
	cbz	x0, .L11
.L2:
	.loc 1 326 0
	adrp	x1, jiffies
	add	x21, x21, :lo12:.LANCHOR0
	add	x3, x21, 24
	.loc 1 327 0
	mov	x0, x3
.LVL1:
	.loc 1 326 0
	ldr	x1, [x1,#:lo12:jiffies]
	add	x1, x1, 40960
	add	x1, x1, 4040
	str	x1, [x21,40]
	.loc 1 327 0
	bl	add_timer
.LVL2:
	.loc 1 328 0
	ldr	x23, [sp,48]
	.cfi_remember_state
	.cfi_restore 23
	ldp	x19, x20, [sp,16]
	.cfi_restore 20
	.cfi_restore 19
	ldp	x21, x22, [sp,32]
	.cfi_restore 22
	.cfi_restore 21
	ldp	x29, x30, [sp], 64
	.cfi_restore 30
	.cfi_restore 29
	.cfi_def_cfa 31, 0
	ret
.LVL3:
.L11:
	.cfi_restore_state
.LBB307:
.LBB308:
	.file 2 "/home/jenkins1/slave_49/workspace/CHICAGO_B100_chipset_component/opensource/component_code/vendor/huawei/extra/build/build_script/kirin_kernel_release/kernel/include/linux/spinlock.h"
	.loc 2 307 0
	add	x22, x21, :lo12:.LANCHOR0
	mov	x0, x22
.LVL4:
.LBE308:
.LBE307:
.LBB310:
	.loc 1 315 0
	add	x22, x22, 8
.LBE310:
.LBB311:
.LBB309:
	.loc 2 307 0
	bl	_raw_spin_lock_bh
.LVL5:
.LBE309:
.LBE311:
.LBB312:
	.loc 1 315 0
	ldr	x20, [x22]
.LBE312:
	.loc 1 318 0
	adrp	x0, .LC0
	.loc 1 315 0 discriminator 1
	cmp	x20, x22
	.loc 1 318 0
	add	x23, x0, :lo12:.LC0
.LBB313:
	.loc 1 315 0
	ldr	x19, [x20]
.LBE313:
	.loc 1 315 0 is_stmt 0 discriminator 1
	bne	.L9
	b	.L6
.L7:
	.loc 1 315 0 discriminator 2
	mov	x19, x1
.L9:
	.loc 1 316 0 is_stmt 1
	bl	get_cur_time
.LVL6:
	ldr	x1, [x20,16]
	mov	x2, 54464
	movk	x2, 0x1, lsl 16
	sub	x0, x0, x1
	cmp	x0, x2
	bhi	.L12
.L4:
	.loc 1 315 0 discriminator 1
	cmp	x19, x22
.LBB314:
	.loc 1 315 0 is_stmt 0 discriminator 2
	ldr	x1, [x19]
	mov	x20, x19
.LBE314:
	.loc 1 315 0 discriminator 1
	bne	.L7
.L6:
.LBB315:
.LBB316:
	.loc 2 352 0 is_stmt 1
	add	x0, x21, :lo12:.LANCHOR0
	bl	_raw_spin_unlock_bh
.LVL7:
	b	.L2
.L12:
.LBE316:
.LBE315:
.LBB317:
.LBB318:
	.file 3 "/home/jenkins1/slave_49/workspace/CHICAGO_B100_chipset_component/opensource/component_code/vendor/huawei/extra/build/build_script/kirin_kernel_release/kernel/include/linux/list.h"
	.loc 3 107 0
	ldr	x4, [x20]
	.loc 3 108 0
	mov	x1, 256
	.loc 3 107 0
	ldr	x2, [x20,8]
	.loc 3 108 0
	movk	x1, 0xdead, lsl 48
	.loc 3 109 0
	mov	x3, 512
.LBE318:
.LBE317:
	.loc 1 318 0
	mov	x0, x23
.LBB328:
.LBB326:
.LBB319:
.LBB320:
	.loc 3 89 0
	str	x2, [x4,8]
.LBE320:
.LBE319:
	.loc 3 109 0
	movk	x3, 0xdead, lsl 48
.LBB325:
.LBB324:
.LBB321:
.LBB322:
.LBB323:
	.file 4 "/home/jenkins1/slave_49/workspace/CHICAGO_B100_chipset_component/opensource/component_code/vendor/huawei/extra/build/build_script/kirin_kernel_release/kernel/include/linux/compiler.h"
	.loc 4 247 0
	str	x4, [x2]
.LBE323:
.LBE322:
.LBE321:
.LBE324:
.LBE325:
	.loc 3 108 0
	str	x1, [x20]
.LBE326:
.LBE328:
	.loc 1 318 0
	ldr	x2, [x20,96]
	ldr	w1, [x20,80]
.LBB329:
.LBB327:
	.loc 3 109 0
	str	x3, [x20,8]
.LBE327:
.LBE329:
	.loc 1 318 0
	bl	printk
.LVL8:
.LBB330:
.LBB331:
	.loc 1 272 0
	ldr	x0, [x20,96]
	bl	kfree
.LVL9:
	.loc 1 273 0
	mov	x0, x20
	bl	kfree
.LVL10:
	b	.L4
.LBE331:
.LBE330:
	.cfi_endproc
.LFE3511:
	.size	dl_timer, .-dl_timer
	.align	2
	.type	clear_appdl_rule.part.0, %function
clear_appdl_rule.part.0:
.LFB3519:
	.loc 1 127 0
	.cfi_startproc
	stp	x29, x30, [sp, -64]!
	.cfi_def_cfa_offset 64
	.cfi_offset 29, -64
	.cfi_offset 30, -56
	.loc 1 137 0
	adrp	x0, .LC1
	.loc 1 127 0
	add	x29, sp, 0
	.cfi_def_cfa_register 29
	stp	x21, x22, [sp,32]
	.cfi_offset 21, -32
	.cfi_offset 22, -24
	adrp	x22, .LANCHOR0
	str	x23, [sp,48]
	add	x22, x22, :lo12:.LANCHOR0
	.loc 1 137 0
	add	x0, x0, :lo12:.LC1
	add	x21, x22, 1096
	add	x22, x22, 72
	.cfi_offset 23, -16
	add	x23, x21, 4096
	.loc 1 127 0
	stp	x19, x20, [sp,16]
	.cfi_offset 19, -48
	.cfi_offset 20, -40
	.loc 1 137 0
	bl	printk
.LVL11:
.L15:
.LBB332:
.LBB333:
	.loc 2 307 0
	mov	x0, x22
	bl	_raw_spin_lock_bh
.LVL12:
.LBE333:
.LBE332:
.LBB334:
	.loc 1 140 0
	ldr	x1, [x21]
.LBE334:
	.loc 1 140 0 is_stmt 0 discriminator 1
	cmp	x1, x21
.LBB335:
	.loc 1 140 0
	ldr	x19, [x1]
.LBE335:
	.loc 1 140 0 discriminator 1
	beq	.L18
.L19:
.LBB336:
.LBB337:
	.loc 3 107 0 is_stmt 1
	ldr	x0, [x1,8]
	.loc 3 108 0
	mov	x3, 256
.LBB338:
.LBB339:
	.loc 3 89 0
	str	x0, [x19,8]
.LBE339:
.LBE338:
	.loc 3 109 0
	mov	x2, 512
	.loc 3 108 0
	movk	x3, 0xdead, lsl 48
	.loc 3 109 0
	movk	x2, 0xdead, lsl 48
.LBB344:
.LBB343:
.LBB340:
.LBB341:
.LBB342:
	.loc 4 247 0
	str	x19, [x0]
.LBE342:
.LBE341:
.LBE340:
.LBE343:
.LBE344:
.LBE337:
.LBE336:
	.loc 1 142 0
	mov	x0, x1
.LBB346:
.LBB345:
	.loc 3 108 0
	str	x3, [x1]
	.loc 3 109 0
	str	x2, [x1,8]
.LBE345:
.LBE346:
	.loc 1 142 0
	bl	kfree
.LVL13:
	.loc 1 140 0 discriminator 1
	cmp	x19, x21
	mov	x1, x19
	.loc 1 140 0 is_stmt 0 discriminator 3
	ldr	x19, [x19]
	.loc 1 140 0 discriminator 1
	bne	.L19
.L18:
.LBB347:
.LBB348:
	.loc 2 352 0 is_stmt 1
	mov	x0, x22
	add	x21, x21, 16
	add	x22, x22, 4
	bl	_raw_spin_unlock_bh
.LVL14:
.LBE348:
.LBE347:
	.loc 1 138 0 discriminator 1
	cmp	x21, x23
	bne	.L15
	.loc 1 146 0
	ldp	x19, x20, [sp,16]
	.cfi_restore 20
	.cfi_restore 19
	ldp	x21, x22, [sp,32]
	.cfi_restore 22
	.cfi_restore 21
	ldr	x23, [sp,48]
	.cfi_restore 23
	ldp	x29, x30, [sp], 64
	.cfi_restore 30
	.cfi_restore 29
	.cfi_def_cfa 31, 0
	ret
	.cfi_endproc
.LFE3519:
	.size	clear_appdl_rule.part.0, .-clear_appdl_rule.part.0
	.align	2
	.global	add_appdl_uid
	.type	add_appdl_uid, %function
add_appdl_uid:
.LFB3499:
	.loc 1 38 0
	.cfi_startproc
.LVL15:
	stp	x29, x30, [sp, -80]!
	.cfi_def_cfa_offset 80
	.cfi_offset 29, -80
	.cfi_offset 30, -72
	add	x29, sp, 0
	.cfi_def_cfa_register 29
	stp	x19, x20, [sp,16]
	stp	x21, x22, [sp,32]
	str	x23, [sp,48]
	.cfi_offset 19, -64
	.cfi_offset 20, -56
	.cfi_offset 21, -48
	.cfi_offset 22, -40
	.cfi_offset 23, -32
	.loc 1 38 0
	mov	w19, w0
	.loc 1 40 0
	bl	get_hash_id
.LVL16:
	.loc 1 42 0
	cmp	w0, 255
	.loc 1 40 0
	mov	w1, w0
.LVL17:
	.loc 1 42 0
	bhi	.L38
.LBB349:
.LBB350:
	.loc 2 307 0
	adrp	x21, .LANCHOR0
.LVL18:
	uxtw	x22, w0
.LVL19:
	add	x20, x21, :lo12:.LANCHOR0
	str	x1, [x29,72]
	add	x23, x20, 72
	add	x23, x23, x22, lsl 2
	mov	x0, x23
	bl	_raw_spin_lock_bh
.LVL20:
.LBE350:
.LBE349:
.LBB351:
	.loc 1 47 0
	add	x0, x20, 1096
	lsl	x2, x22, 4
	add	x20, x0, x2
.LBE351:
	.loc 1 47 0 is_stmt 0 discriminator 1
	ldr	x1, [x29,72]
.LVL21:
.LBB352:
	.loc 1 47 0
	ldr	x0, [x0,x2]
.LVL22:
.LBE352:
	.loc 1 47 0 discriminator 1
	cmp	x0, x20
	bne	.L31
	b	.L27
.L30:
.LBB353:
	.loc 1 47 0 discriminator 2
	ldr	x0, [x0]
.LBE353:
	.loc 1 47 0 discriminator 1
	cmp	x0, x20
	beq	.L27
.L31:
	.loc 1 48 0 is_stmt 1
	ldr	w2, [x0,16]
	cmp	w2, w19
	bne	.L30
	.loc 1 49 0
	adrp	x0, .LC3
.LVL23:
	mov	w2, w19
	add	x0, x0, :lo12:.LC3
	bl	printk
.LVL24:
.LBB354:
.LBB355:
	.loc 2 352 0
	mov	x0, x23
	bl	_raw_spin_unlock_bh
.LVL25:
.LBE355:
.LBE354:
	.loc 1 61 0
	ldr	x23, [sp,48]
	.cfi_remember_state
	.cfi_restore 23
	ldp	x19, x20, [sp,16]
	.cfi_restore 20
	.cfi_restore 19
.LVL26:
	ldp	x21, x22, [sp,32]
	.cfi_restore 22
	.cfi_restore 21
	ldp	x29, x30, [sp], 80
	.cfi_restore 30
	.cfi_restore 29
	.cfi_def_cfa 31, 0
	ret
.LVL27:
.L27:
	.cfi_restore_state
	.loc 1 54 0
	adrp	x0, .LC4
.LVL28:
	mov	w2, w19
	add	x0, x0, :lo12:.LC4
	bl	printk
.LVL29:
.LBB356:
.LBB357:
	.file 5 "/home/jenkins1/slave_49/workspace/CHICAGO_B100_chipset_component/opensource/component_code/vendor/huawei/extra/build/build_script/kirin_kernel_release/kernel/include/linux/slab.h"
	.loc 5 470 0
	adrp	x0, kmalloc_caches+48
	mov	w1, 32
	mov	x2, 24
	movk	w1, 0x208, lsl 16
	ldr	x0, [x0,#:lo12:kmalloc_caches+48]
	bl	kmem_cache_alloc_trace
.LVL30:
.LBE357:
.LBE356:
	.loc 1 56 0
	cbz	x0, .L32
.LBB358:
.LBB359:
	.loc 3 63 0
	add	x21, x21, :lo12:.LANCHOR0
.LVL31:
	lsl	x22, x22, 4
.LVL32:
	add	x21, x21, 1096
.LBE359:
.LBE358:
	.loc 1 57 0
	str	w19, [x0,16]
.LBB363:
.LBB362:
	.loc 3 63 0
	ldr	x1, [x21,x22]
.LBB360:
.LBB361:
	.loc 3 42 0
	str	x0, [x1,8]
	.loc 3 43 0
	str	x1, [x0]
	.loc 3 44 0
	str	x20, [x0,8]
	.loc 3 45 0
	str	x0, [x21,x22]
.L32:
.LBE361:
.LBE360:
.LBE362:
.LBE363:
.LBB364:
.LBB365:
	.loc 2 352 0
	mov	x0, x23
	bl	_raw_spin_unlock_bh
.LVL33:
.LBE365:
.LBE364:
	.loc 1 61 0
	ldr	x23, [sp,48]
	.cfi_remember_state
	.cfi_restore 23
	ldp	x19, x20, [sp,16]
	.cfi_restore 19
	.cfi_restore 20
.LVL34:
	ldp	x21, x22, [sp,32]
	.cfi_restore 21
	.cfi_restore 22
	ldp	x29, x30, [sp], 80
	.cfi_restore 29
	.cfi_restore 30
	.cfi_def_cfa 31, 0
	ret
.LVL35:
.L38:
	.cfi_restore_state
	.loc 1 43 0
	adrp	x0, .LC2
	add	x0, x0, :lo12:.LC2
	bl	printk
.LVL36:
	.loc 1 61 0
	ldr	x23, [sp,48]
	.cfi_restore 23
	ldp	x19, x20, [sp,16]
	.cfi_restore 19
	.cfi_restore 20
.LVL37:
	ldp	x21, x22, [sp,32]
	.cfi_restore 21
	.cfi_restore 22
	ldp	x29, x30, [sp], 80
	.cfi_restore 29
	.cfi_restore 30
	.cfi_def_cfa 31, 0
	ret
	.cfi_endproc
.LFE3499:
	.size	add_appdl_uid, .-add_appdl_uid
	.align	2
	.global	clear_appdl_uid
	.type	clear_appdl_uid, %function
clear_appdl_uid:
.LFB3500:
	.loc 1 64 0
	.cfi_startproc
.LVL38:
	stp	x29, x30, [sp, -48]!
	.cfi_def_cfa_offset 48
	.cfi_offset 29, -48
	.cfi_offset 30, -40
	add	x29, sp, 0
	.cfi_def_cfa_register 29
	stp	x19, x20, [sp,16]
	stp	x21, x22, [sp,32]
	.cfi_offset 19, -32
	.cfi_offset 20, -24
	.cfi_offset 21, -16
	.cfi_offset 22, -8
	.loc 1 64 0
	mov	w20, w0
	.loc 1 66 0
	bl	get_hash_id
.LVL39:
	.loc 1 68 0
	cmp	w0, 255
	bhi	.L49
.LBB366:
.LBB367:
	.loc 2 307 0
	adrp	x21, .LANCHOR0
	uxtw	x19, w0
.LVL40:
	add	x21, x21, :lo12:.LANCHOR0
	add	x22, x21, 72
.LBE367:
.LBE366:
.LBB370:
	.loc 1 73 0
	add	x21, x21, 1096
.LBE370:
.LBB371:
.LBB368:
	.loc 2 307 0
	add	x22, x22, x19, lsl 2
.LBE368:
.LBE371:
.LBB372:
	.loc 1 73 0
	lsl	x19, x19, 4
.LVL41:
.LBE372:
.LBB373:
.LBB369:
	.loc 2 307 0
	mov	x0, x22
	bl	_raw_spin_lock_bh
.LVL42:
.LBE369:
.LBE373:
.LBB374:
	.loc 1 73 0
	add	x2, x21, x19
	ldr	x19, [x21,x19]
.LVL43:
.LBE374:
	.loc 1 73 0 is_stmt 0 discriminator 1
	cmp	x19, x2
	beq	.L42
.L46:
	.loc 1 74 0 is_stmt 1
	ldr	w0, [x19,16]
	cmp	w0, w20
	beq	.L50
.LBB375:
	.loc 1 73 0 discriminator 2
	ldr	x19, [x19]
.LBE375:
	.loc 1 73 0 is_stmt 0 discriminator 1
	cmp	x19, x2
	bne	.L46
.L42:
.LBB376:
.LBB377:
	.loc 2 352 0 is_stmt 1
	mov	x0, x22
	bl	_raw_spin_unlock_bh
.LVL44:
.L39:
.LBE377:
.LBE376:
	.loc 1 83 0
	ldp	x19, x20, [sp,16]
	.cfi_remember_state
	.cfi_restore 20
	.cfi_restore 19
.LVL45:
	ldp	x21, x22, [sp,32]
	.cfi_restore 22
	.cfi_restore 21
	ldp	x29, x30, [sp], 48
	.cfi_restore 30
	.cfi_restore 29
	.cfi_def_cfa 31, 0
	ret
.LVL46:
.L50:
	.cfi_restore_state
	.loc 1 75 0
	adrp	x0, .LC6
	mov	w1, w20
	add	x0, x0, :lo12:.LC6
	bl	printk
.LVL47:
.LBB378:
.LBB379:
	.loc 3 107 0
	ldr	x3, [x19]
	.loc 3 108 0
	mov	x2, 256
	.loc 3 107 0
	ldr	x0, [x19,8]
	.loc 3 109 0
	mov	x1, 512
	.loc 3 108 0
	movk	x2, 0xdead, lsl 48
	.loc 3 109 0
	movk	x1, 0xdead, lsl 48
.LBB380:
.LBB381:
	.loc 3 89 0
	str	x0, [x3,8]
.LBB382:
.LBB383:
.LBB384:
	.loc 4 247 0
	str	x3, [x0]
.LBE384:
.LBE383:
.LBE382:
.LBE381:
.LBE380:
.LBE379:
.LBE378:
.LBB386:
.LBB387:
	.loc 2 352 0
	mov	x0, x22
.LBE387:
.LBE386:
.LBB389:
.LBB385:
	.loc 3 108 0
	str	x2, [x19]
	.loc 3 109 0
	str	x1, [x19,8]
.LBE385:
.LBE389:
.LBB390:
.LBB388:
	.loc 2 352 0
	bl	_raw_spin_unlock_bh
.LVL48:
.LBE388:
.LBE390:
	.loc 1 78 0
	mov	x0, x19
	bl	kfree
.LVL49:
	.loc 1 79 0
	b	.L39
.LVL50:
.L49:
	.loc 1 69 0
	mov	w1, w0
	adrp	x0, .LC5
.LVL51:
	add	x0, x0, :lo12:.LC5
	bl	printk
.LVL52:
	.loc 1 70 0
	b	.L39
	.cfi_endproc
.LFE3500:
	.size	clear_appdl_uid, .-clear_appdl_uid
	.align	2
	.global	add_appdl_rule
	.type	add_appdl_rule, %function
add_appdl_rule:
.LFB3501:
	.loc 1 86 0
	.cfi_startproc
.LVL53:
	stp	x29, x30, [sp, -48]!
	.cfi_def_cfa_offset 48
	.cfi_offset 29, -48
	.cfi_offset 30, -40
	uxtb	w1, w1
	add	x29, sp, 0
	.cfi_def_cfa_register 29
	stp	x19, x20, [sp,16]
	.cfi_offset 19, -32
	.cfi_offset 20, -24
	.loc 1 86 0
	adrp	x20, __stack_chk_guard
	mov	x19, x0
	.loc 1 93 0
	str	x0, [x29,32]
.LVL54:
	.loc 1 86 0
	ldr	x2, [x20,#:lo12:__stack_chk_guard]
	str	x2, [x29,40]
	.loc 1 94 0
	cbz	w1, .L64
	b	.L65
.LVL55:
.L60:
	.loc 1 97 0
	mov	x0, x19
	mov	w1, 59
.LVL56:
	bl	strchr
.LVL57:
	str	x0, [x29,32]
	.loc 1 98 0
	cbz	x0, .L51
	.loc 1 99 0
	mov	x0, x19
	add	x1, x29, 32
	mov	w2, 10
	bl	simple_strtoull
.LVL58:
	.loc 1 100 0
	bl	add_appdl_uid
.LVL59:
	.loc 1 101 0
	ldr	x0, [x29,32]
	add	x19, x0, 1
.LVL60:
.L64:
	.loc 1 96 0
	ldrb	w0, [x0]
	cbnz	w0, .L60
.L51:
	.loc 1 106 0
	ldr	x1, [x29,40]
.LVL61:
	ldr	x0, [x20,#:lo12:__stack_chk_guard]
	cmp	x1, x0
	bne	.L66
	ldp	x19, x20, [sp,16]
	.cfi_remember_state
	.cfi_restore 20
	.cfi_restore 19
.LVL62:
	ldp	x29, x30, [sp], 48
	.cfi_restore 30
	.cfi_restore 29
	.cfi_def_cfa 31, 0
	ret
.LVL63:
.L65:
	.cfi_restore_state
.LBB391:
.LBB392:
	bl	clear_appdl_rule.part.0
.LVL64:
	ldr	x0, [x29,32]
	b	.L64
.L66:
.LBE392:
.LBE391:
	bl	__stack_chk_fail
.LVL65:
	.cfi_endproc
.LFE3501:
	.size	add_appdl_rule, .-add_appdl_rule
	.align	2
	.global	clear_appdl_rule_string
	.type	clear_appdl_rule_string, %function
clear_appdl_rule_string:
.LFB3502:
	.loc 1 109 0
	.cfi_startproc
.LVL66:
	stp	x29, x30, [sp, -64]!
	.cfi_def_cfa_offset 64
	.cfi_offset 29, -64
	.cfi_offset 30, -56
	add	x29, sp, 0
	.cfi_def_cfa_register 29
	str	x21, [sp,32]
	.cfi_offset 21, -32
	adrp	x21, __stack_chk_guard
	stp	x19, x20, [sp,16]
	.cfi_offset 19, -48
	.cfi_offset 20, -40
	.loc 1 116 0
	add	x20, x29, 64
	.loc 1 109 0
	mov	x19, x0
	ldr	x1, [x21,#:lo12:__stack_chk_guard]
	str	x1, [x29,56]
	.loc 1 116 0
	str	x19, [x20,-16]!
.LVL67:
.L68:
	.loc 1 117 0
	cbz	x0, .L67
	.loc 1 117 0 is_stmt 0 discriminator 1
	ldrb	w0, [x0]
	cbz	w0, .L67
	.loc 1 118 0 is_stmt 1
	mov	x0, x19
	mov	w1, 59
	bl	strchr
.LVL68:
	str	x0, [x29,48]
.LVL69:
	.loc 1 119 0
	cbnz	x0, .L78
.L67:
	.loc 1 125 0
	ldr	x1, [x29,56]
	ldr	x0, [x21,#:lo12:__stack_chk_guard]
	cmp	x1, x0
	bne	.L79
	ldp	x19, x20, [sp,16]
	.cfi_remember_state
	.cfi_restore 20
	.cfi_restore 19
.LVL70:
	ldr	x21, [sp,32]
	.cfi_restore 21
	ldp	x29, x30, [sp], 64
	.cfi_restore 30
	.cfi_restore 29
	.cfi_def_cfa 31, 0
	ret
.LVL71:
.L78:
	.cfi_restore_state
	.loc 1 120 0
	mov	x0, x19
	mov	x1, x20
	mov	w2, 10
	bl	simple_strtoull
.LVL72:
	.loc 1 121 0
	bl	clear_appdl_uid
.LVL73:
	.loc 1 122 0
	ldr	x0, [x29,48]
	add	x19, x0, 1
	b	.L68
.LVL74:
.L79:
	.loc 1 125 0
	bl	__stack_chk_fail
.LVL75:
	.cfi_endproc
.LFE3502:
	.size	clear_appdl_rule_string, .-clear_appdl_rule_string
	.align	2
	.global	clear_appdl_rule
	.type	clear_appdl_rule, %function
clear_appdl_rule:
.LFB3503:
	.loc 1 128 0
	.cfi_startproc
.LVL76:
	stp	x29, x30, [sp, -16]!
	.cfi_def_cfa_offset 16
	.cfi_offset 29, -16
	.cfi_offset 30, -8
	add	x29, sp, 0
	.cfi_def_cfa_register 29
	.loc 1 133 0
	cbnz	w0, .L81
	.loc 1 134 0
	mov	x0, x1
.LVL77:
	bl	clear_appdl_rule_string
.LVL78:
.L80:
	.loc 1 146 0
	ldp	x29, x30, [sp], 16
	.cfi_remember_state
	.cfi_restore 30
	.cfi_restore 29
	.cfi_def_cfa 31, 0
	ret
.LVL79:
.L81:
	.cfi_restore_state
	bl	clear_appdl_rule.part.0
.LVL80:
	b	.L80
	.cfi_endproc
.LFE3503:
	.size	clear_appdl_rule, .-clear_appdl_rule
	.align	2
	.global	output_appdl_rule
	.type	output_appdl_rule, %function
output_appdl_rule:
.LFB3504:
	.loc 1 149 0
	.cfi_startproc
	stp	x29, x30, [sp, -64]!
	.cfi_def_cfa_offset 64
	.cfi_offset 29, -64
	.cfi_offset 30, -56
	.loc 1 153 0
	adrp	x0, .LC7
	.loc 1 149 0
	add	x29, sp, 0
	.cfi_def_cfa_register 29
	.loc 1 153 0
	add	x0, x0, :lo12:.LC7
	.loc 1 149 0
	stp	x19, x20, [sp,16]
	.cfi_offset 19, -48
	.cfi_offset 20, -40
	adrp	x20, .LANCHOR0
	str	x23, [sp,48]
	stp	x21, x22, [sp,32]
	.cfi_offset 23, -16
	.cfi_offset 21, -32
	.cfi_offset 22, -24
	add	x20, x20, :lo12:.LANCHOR0
	.loc 1 153 0
	bl	printk
.LVL81:
	add	x19, x20, 1096
	.loc 1 157 0
	adrp	x0, .LC8
	add	x20, x20, 72
	add	x22, x19, 4096
	add	x23, x0, :lo12:.LC8
.LVL82:
.L85:
.LBB393:
.LBB394:
	.loc 2 307 0
	mov	x0, x20
	bl	_raw_spin_lock_bh
.LVL83:
.LBE394:
.LBE393:
.LBB395:
	.loc 1 156 0
	ldr	x21, [x19]
.LBE395:
	.loc 1 156 0 is_stmt 0 discriminator 1
	cmp	x21, x19
	bne	.L87
.L88:
.LBB396:
.LBB397:
	.loc 2 352 0 is_stmt 1
	mov	x0, x20
	add	x19, x19, 16
	add	x20, x20, 4
	bl	_raw_spin_unlock_bh
.LVL84:
.LBE397:
.LBE396:
	.loc 1 154 0 discriminator 1
	cmp	x19, x22
	bne	.L85
	.loc 1 162 0
	adrp	x0, .LC9
	add	x0, x0, :lo12:.LC9
	bl	printk
.LVL85:
	.loc 1 164 0
	ldr	x23, [sp,48]
	.cfi_remember_state
	.cfi_restore 23
	ldp	x19, x20, [sp,16]
	.cfi_restore 20
	.cfi_restore 19
	ldp	x21, x22, [sp,32]
	.cfi_restore 22
	.cfi_restore 21
.LVL86:
	ldp	x29, x30, [sp], 64
	.cfi_restore 30
	.cfi_restore 29
	.cfi_def_cfa 31, 0
	ret
.LVL87:
.L87:
	.cfi_restore_state
	.loc 1 157 0
	ldr	w1, [x21,16]
	mov	x0, x23
	bl	printk
.LVL88:
.LBB398:
	.loc 1 156 0 discriminator 3
	ldr	x21, [x21]
.LBE398:
	.loc 1 156 0 is_stmt 0 discriminator 1
	cmp	x21, x19
	beq	.L88
	b	.L87
	.cfi_endproc
.LFE3504:
	.size	output_appdl_rule, .-output_appdl_rule
	.align	2
	.global	match_appdl_uid
	.type	match_appdl_uid, %function
match_appdl_uid:
.LFB3505:
	.loc 1 167 0 is_stmt 1
	.cfi_startproc
.LVL89:
	stp	x29, x30, [sp, -48]!
	.cfi_def_cfa_offset 48
	.cfi_offset 29, -48
	.cfi_offset 30, -40
	add	x29, sp, 0
	.cfi_def_cfa_register 29
	stp	x19, x20, [sp,16]
	stp	x21, x22, [sp,32]
	.cfi_offset 19, -32
	.cfi_offset 20, -24
	.cfi_offset 21, -16
	.cfi_offset 22, -8
	.loc 1 167 0
	mov	w19, w0
	.loc 1 169 0
	bl	get_hash_id
.LVL90:
	.loc 1 171 0
	cmp	w0, 255
	bhi	.L103
.LBB399:
.LBB400:
	.loc 2 307 0
	adrp	x21, .LANCHOR0
	uxtw	x20, w0
.LVL91:
	add	x21, x21, :lo12:.LANCHOR0
	add	x22, x21, 72
.LBE400:
.LBE399:
.LBB403:
	.loc 1 176 0
	add	x21, x21, 1096
.LBE403:
.LBB404:
.LBB401:
	.loc 2 307 0
	add	x22, x22, x20, lsl 2
.LBE401:
.LBE404:
.LBB405:
	.loc 1 176 0
	lsl	x20, x20, 4
.LVL92:
.LBE405:
.LBB406:
.LBB402:
	.loc 2 307 0
	mov	x0, x22
	bl	_raw_spin_lock_bh
.LVL93:
.LBE402:
.LBE406:
.LBB407:
	.loc 1 176 0
	ldr	x0, [x21,x20]
.LVL94:
	add	x2, x21, x20
.LBE407:
	.loc 1 176 0 is_stmt 0 discriminator 1
	cmp	x0, x2
	bne	.L100
	b	.L96
.L99:
.LBB408:
	.loc 1 176 0 discriminator 2
	ldr	x0, [x0]
.LBE408:
	.loc 1 176 0 discriminator 1
	cmp	x0, x2
	beq	.L96
.L100:
	.loc 1 177 0 is_stmt 1
	ldr	w1, [x0,16]
	cmp	w1, w19
	bne	.L99
.LBB409:
.LBB410:
	.loc 2 352 0
	mov	x0, x22
.LVL95:
	bl	_raw_spin_unlock_bh
.LVL96:
.LBE410:
.LBE409:
	.loc 1 179 0
	mov	w0, 1
	.loc 1 184 0
	ldp	x19, x20, [sp,16]
	.cfi_remember_state
	.cfi_restore 19
	.cfi_restore 20
.LVL97:
	ldp	x21, x22, [sp,32]
	.cfi_restore 21
	.cfi_restore 22
	ldp	x29, x30, [sp], 48
	.cfi_restore 29
	.cfi_restore 30
	.cfi_def_cfa 31, 0
	ret
.LVL98:
.L96:
	.cfi_restore_state
.LBB411:
.LBB412:
	.loc 2 352 0
	mov	x0, x22
.LVL99:
	bl	_raw_spin_unlock_bh
.LVL100:
.LBE412:
.LBE411:
	.loc 1 183 0
	mov	w0, 0
.L95:
	.loc 1 184 0
	ldp	x19, x20, [sp,16]
	.cfi_remember_state
	.cfi_restore 20
	.cfi_restore 19
.LVL101:
	ldp	x21, x22, [sp,32]
	.cfi_restore 22
	.cfi_restore 21
	ldp	x29, x30, [sp], 48
	.cfi_restore 30
	.cfi_restore 29
	.cfi_def_cfa 31, 0
	ret
.LVL102:
.L103:
	.cfi_restore_state
	.loc 1 172 0
	mov	w1, w0
	adrp	x0, .LC10
.LVL103:
	add	x0, x0, :lo12:.LC10
	bl	printk
.LVL104:
	.loc 1 173 0
	mov	w0, 0
	b	.L95
	.cfi_endproc
.LFE3505:
	.size	match_appdl_uid, .-match_appdl_uid
	.align	2
	.global	match_appdl_url
	.type	match_appdl_url, %function
match_appdl_url:
.LFB3506:
	.loc 1 187 0
	.cfi_startproc
.LVL105:
	stp	x29, x30, [sp, -32]!
	.cfi_def_cfa_offset 32
	.cfi_offset 29, -32
	.cfi_offset 30, -24
	add	x29, sp, 0
	.cfi_def_cfa_register 29
	stp	x19, x20, [sp,16]
	.cfi_offset 19, -16
	.cfi_offset 20, -8
	.loc 1 189 0
	bl	get_url_path
.LVL106:
	mov	x19, x0
.LVL107:
	.loc 1 191 0
	cbz	x0, .L107
	.loc 1 192 0
	bl	strlen
.LVL108:
	mov	x2, x0
	.loc 1 192 0 is_stmt 0 discriminator 1
	adrp	x1, .LC11
	mov	x0, x19
	add	x1, x1, :lo12:.LC11
	.loc 1 188 0 is_stmt 1
	mov	w20, 0
.LVL109:
	.loc 1 192 0 discriminator 1
	bl	strfindpos
.LVL110:
	.loc 1 192 0 is_stmt 0
	cbnz	x0, .L110
.L106:
	.loc 1 196 0 is_stmt 1
	mov	x0, x19
	bl	kfree
.LVL111:
	.loc 1 199 0
	mov	w0, w20
	ldp	x19, x20, [sp,16]
	.cfi_remember_state
	.cfi_restore 20
	.cfi_restore 19
.LVL112:
	ldp	x29, x30, [sp], 32
	.cfi_restore 30
	.cfi_restore 29
	.cfi_def_cfa 31, 0
	ret
.LVL113:
.L107:
	.cfi_restore_state
	.loc 1 188 0
	mov	w20, 0
.LVL114:
	.loc 1 199 0
	mov	w0, w20
.LVL115:
	ldp	x19, x20, [sp,16]
	.cfi_remember_state
	.cfi_restore 19
	.cfi_restore 20
.LVL116:
	ldp	x29, x30, [sp], 32
	.cfi_restore 29
	.cfi_restore 30
	.cfi_def_cfa 31, 0
	ret
.LVL117:
.L110:
	.cfi_restore_state
	.loc 1 194 0
	adrp	x0, .LC12
	mov	x1, x19
	add	x0, x0, :lo12:.LC12
	.loc 1 193 0
	mov	w20, 1
	.loc 1 194 0
	bl	printk
.LVL118:
	b	.L106
	.cfi_endproc
.LFE3506:
	.size	match_appdl_url, .-match_appdl_url
	.align	2
	.global	get_report_msg
	.type	get_report_msg, %function
get_report_msg:
.LFB3507:
	.loc 1 205 0
	.cfi_startproc
.LVL119:
	stp	x29, x30, [sp, -96]!
	.cfi_def_cfa_offset 96
	.cfi_offset 29, -96
	.cfi_offset 30, -88
	add	x29, sp, 0
	.cfi_def_cfa_register 29
	stp	x19, x20, [sp,16]
	stp	x21, x22, [sp,32]
	stp	x23, x24, [sp,48]
	str	x25, [sp,64]
	.cfi_offset 19, -80
	.cfi_offset 20, -72
	.cfi_offset 21, -64
	.cfi_offset 22, -56
	.cfi_offset 23, -48
	.cfi_offset 24, -40
	.cfi_offset 25, -32
	.loc 1 212 0
	cbz	x2, .L123
	mov	w22, w0
	.loc 1 214 0
	mov	x0, x2
.LVL120:
	mov	w23, w1
	str	x2, [x29,88]
	bl	strlen
.LVL121:
	.loc 1 215 0
	add	w0, w0, 65
.LBB413:
.LBB414:
	.loc 5 475 0
	mov	w1, 32
.LBE414:
.LBE413:
	.loc 1 215 0
	sxtw	x20, w0
.LBB416:
.LBB415:
	.loc 5 475 0
	movk	w1, 0x208, lsl 16
	mov	x0, x20
	bl	__kmalloc
.LVL122:
	mov	x21, x0
.LBE415:
.LBE416:
	.loc 1 216 0
	cbz	x0, .L123
	.loc 1 218 0
	ldr	x3, [x29,88]
.LVL123:
	adrp	x2, .LC13
	mov	x1, x20
	add	x2, x2, :lo12:.LC13
	bl	snprintf
.LVL124:
	.loc 1 219 0
	mov	x0, x21
	bl	strlen
.LVL125:
	.loc 1 220 0
	cmp	w0, 3999
	.loc 1 219 0
	mov	w25, w0
	.loc 1 220 0
	bgt	.L115
	.loc 1 222 0
	lsl	w19, w0, 1
.LBB417:
.LBB418:
	.loc 5 475 0
	mov	w1, 32
.LBE418:
.LBE417:
	.loc 1 222 0
	add	w24, w19, 1
.LBB426:
.LBB422:
	.loc 5 475 0
	movk	w1, 0x208, lsl 16
	sxtw	x0, w24
	bl	__kmalloc
.LVL126:
	mov	x20, x0
.L118:
.LBE422:
.LBE426:
	.loc 1 224 0
	mov	x0, x21
	.loc 1 223 0
	cbz	x20, .L124
	.loc 1 228 0
	mov	w3, w24
	mov	w1, w25
	mov	x2, x20
	.loc 1 231 0
	add	w24, w19, 33
	.loc 1 228 0
	bl	byte_to_hex
.LVL127:
	.loc 1 229 0
	strb	wzr, [x20,w19,sxtw]
.LBB427:
.LBB428:
	.loc 5 475 0
	mov	w1, 32
	mov	x0, x24
	movk	w1, 0x208, lsl 16
	bl	__kmalloc
.LVL128:
	mov	x19, x0
.LBE428:
.LBE427:
	.loc 1 232 0
	cbnz	x0, .L117
	.loc 1 233 0
	mov	x0, x21
	bl	kfree
.LVL129:
	.loc 1 234 0
	mov	x0, x20
	bl	kfree
.LVL130:
.L123:
	.loc 1 235 0
	mov	x0, 0
.L122:
	.loc 1 244 0
	ldp	x19, x20, [sp,16]
	.cfi_remember_state
	.cfi_restore 20
	.cfi_restore 19
	ldp	x21, x22, [sp,32]
	.cfi_restore 22
	.cfi_restore 21
.LVL131:
	ldp	x23, x24, [sp,48]
	.cfi_restore 24
	.cfi_restore 23
	ldr	x25, [sp,64]
	.cfi_restore 25
	ldp	x29, x30, [sp], 96
	.cfi_restore 30
	.cfi_restore 29
	.cfi_def_cfa 31, 0
	ret
.LVL132:
.L115:
	.cfi_restore_state
.LBB429:
.LBB423:
.LBB419:
	.loc 5 470 0
	adrp	x0, kmalloc_caches+104
	mov	w1, 32
	movk	w1, 0x208, lsl 16
	mov	x2, 8001
.LBE419:
.LBE423:
.LBE429:
	.loc 1 222 0
	mov	w24, 8001
	mov	w19, 8000
.LBB430:
.LBB424:
.LBB420:
	.loc 5 470 0
	ldr	x0, [x0,#:lo12:kmalloc_caches+104]
.LBE420:
.LBE424:
.LBE430:
	.loc 1 221 0
	mov	w25, 4000
.LBB431:
.LBB425:
.LBB421:
	.loc 5 470 0
	bl	kmem_cache_alloc_trace
.LVL133:
	mov	x20, x0
	b	.L118
.L117:
.LBE421:
.LBE425:
.LBE431:
	.loc 1 237 0
	mov	w1, 0
	mov	x2, x24
	bl	memset
.LVL134:
	.loc 1 238 0
	adrp	x2, .LC15
	mov	w4, w23
	mov	x5, x20
	mov	x1, x24
	add	x2, x2, :lo12:.LC15
	mov	w3, w22
	mov	x0, x19
	bl	snprintf
.LVL135:
	.loc 1 239 0
	mov	x0, x19
	bl	strlen
.LVL136:
	.loc 1 240 0
	mov	w2, w0
	adrp	x0, .LC16
	mov	w1, w22
	mov	x3, x19
	add	x0, x0, :lo12:.LC16
	bl	printk
.LVL137:
	.loc 1 241 0
	mov	x0, x20
	bl	kfree
.LVL138:
	.loc 1 242 0
	mov	x0, x21
	bl	kfree
.LVL139:
	.loc 1 243 0
	mov	x0, x19
	b	.L122
.L124:
	.loc 1 224 0
	bl	kfree
.LVL140:
	.loc 1 225 0
	adrp	x0, .LC14
	add	x0, x0, :lo12:.LC14
	bl	printk
.LVL141:
	.loc 1 226 0
	mov	x0, 0
	b	.L122
	.cfi_endproc
.LFE3507:
	.size	get_report_msg, .-get_report_msg
	.align	2
	.global	new_dl_monitor
	.type	new_dl_monitor, %function
new_dl_monitor:
.LFB3508:
	.loc 1 247 0
	.cfi_startproc
.LVL142:
	stp	x29, x30, [sp, -64]!
	.cfi_def_cfa_offset 64
	.cfi_offset 29, -64
	.cfi_offset 30, -56
	add	x29, sp, 0
	.cfi_def_cfa_register 29
	str	x23, [sp,48]
	.cfi_offset 23, -16
	mov	w23, w0
	.loc 1 249 0
	mov	x0, x2
.LVL143:
	.loc 1 247 0
	stp	x19, x20, [sp,16]
	stp	x21, x22, [sp,32]
	.cfi_offset 19, -48
	.cfi_offset 20, -40
	.cfi_offset 21, -32
	.cfi_offset 22, -24
	.loc 1 247 0
	mov	x21, x2
	mov	w22, w1
	.loc 1 249 0
	bl	strlen
.LVL144:
	mov	x20, x0
.LBB432:
.LBB433:
	.loc 5 470 0
	adrp	x0, kmalloc_caches+56
	mov	w1, 32
	movk	w1, 0x208, lsl 16
	mov	x2, 112
	ldr	x0, [x0,#:lo12:kmalloc_caches+56]
	bl	kmem_cache_alloc_trace
.LVL145:
	mov	x19, x0
.LBE433:
.LBE432:
	.loc 1 252 0
	cbz	x0, .L128
	.loc 1 256 0
	add	w0, w20, 1
.LBB434:
.LBB435:
	.loc 5 475 0
	mov	w1, 32
.LBE435:
.LBE434:
	.loc 1 255 0
	mov	w2, 1
.LBB439:
.LBB436:
	.loc 5 475 0
	movk	w1, 0x208, lsl 16
.LBE436:
.LBE439:
	.loc 1 254 0
	str	w22, [x19,80]
.LBB440:
.LBB437:
	.loc 5 475 0
	sxtw	x0, w0
.LBE437:
.LBE440:
	.loc 1 255 0
	str	w2, [x19,108]
.LBB441:
.LBB438:
	.loc 5 475 0
	bl	__kmalloc
.LVL146:
.LBE438:
.LBE441:
	.loc 1 256 0
	str	x0, [x19,96]
	.loc 1 257 0
	cbz	x0, .L129
	.loc 1 261 0
	sxtw	x22, w20
.LVL147:
	mov	x1, x21
	mov	x2, x22
	bl	memcpy
.LVL148:
	.loc 1 262 0
	ldr	x1, [x19,96]
	.loc 1 267 0
	mov	x0, x19
	.loc 1 262 0
	strb	wzr, [x1,x22]
	.loc 1 263 0
	str	w20, [x19,104]
	.loc 1 264 0
	str	w23, [x19,76]
	.loc 1 265 0
	strb	wzr, [x19,72]
.LVL149:
.L126:
	.loc 1 268 0
	ldp	x19, x20, [sp,16]
	.cfi_remember_state
	.cfi_restore 20
	.cfi_restore 19
	ldp	x21, x22, [sp,32]
	.cfi_restore 22
	.cfi_restore 21
.LVL150:
	ldr	x23, [sp,48]
	.cfi_restore 23
.LVL151:
	ldp	x29, x30, [sp], 64
	.cfi_restore 30
	.cfi_restore 29
	.cfi_def_cfa 31, 0
	ret
.LVL152:
.L128:
	.cfi_restore_state
	.loc 1 253 0
	mov	x0, 0
	b	.L126
.L129:
	.loc 1 258 0
	mov	x0, x19
	bl	kfree
.LVL153:
	.loc 1 259 0
	mov	x0, 0
	b	.L126
	.cfi_endproc
.LFE3508:
	.size	new_dl_monitor, .-new_dl_monitor
	.align	2
	.global	free_download_monitor
	.type	free_download_monitor, %function
free_download_monitor:
.LFB3509:
	.loc 1 271 0
	.cfi_startproc
.LVL154:
	stp	x29, x30, [sp, -32]!
	.cfi_def_cfa_offset 32
	.cfi_offset 29, -32
	.cfi_offset 30, -24
	add	x29, sp, 0
	.cfi_def_cfa_register 29
	str	x19, [sp,16]
	.cfi_offset 19, -16
	.loc 1 271 0
	mov	x19, x0
	.loc 1 272 0
	ldr	x0, [x0,96]
.LVL155:
	bl	kfree
.LVL156:
	.loc 1 273 0
	mov	x0, x19
	bl	kfree
.LVL157:
	.loc 1 274 0
	ldr	x19, [sp,16]
	.cfi_restore 19
.LVL158:
	ldp	x29, x30, [sp], 32
	.cfi_restore 30
	.cfi_restore 29
	.cfi_def_cfa 31, 0
	ret
	.cfi_endproc
.LFE3509:
	.size	free_download_monitor, .-free_download_monitor
	.align	2
	.global	get_select
	.type	get_select, %function
get_select:
.LFB3510:
	.loc 1 278 0
	.cfi_startproc
.LVL159:
	stp	x29, x30, [sp, -48]!
	.cfi_def_cfa_offset 48
	.cfi_offset 29, -48
	.cfi_offset 30, -40
	add	x29, sp, 0
	.cfi_def_cfa_register 29
	stp	x21, x22, [sp,32]
	.cfi_offset 21, -16
	.cfi_offset 22, -8
.LBB442:
.LBB443:
	.loc 2 307 0
	adrp	x22, .LANCHOR0
.LBE443:
.LBE442:
	.loc 1 278 0
	mov	x21, x0
.LBB446:
.LBB444:
	.loc 2 307 0
	add	x22, x22, :lo12:.LANCHOR0
	mov	x0, x22
.LVL160:
.LBE444:
.LBE446:
	.loc 1 278 0
	stp	x19, x20, [sp,16]
	.cfi_offset 19, -32
	.cfi_offset 20, -24
.LBB447:
.LBB445:
	.loc 2 307 0
	bl	_raw_spin_lock_bh
.LVL161:
.LBE445:
.LBE447:
.LBB448:
	.loc 1 284 0
	ldr	x1, [x22,8]
	add	x3, x22, 8
.LBE448:
	.loc 1 284 0 is_stmt 0 discriminator 1
	cmp	x1, x3
	beq	.L132
	mov	w20, 0
.LVL162:
	mov	x19, 0
	mov	x0, x22
.L133:
	.loc 1 285 0 is_stmt 1
	ldr	x2, [x1,88]
	cmp	x2, x21
	csel	x19, x1, x19, eq
.LBB449:
	.loc 1 284 0 discriminator 2
	ldr	x1, [x1]
	cmp	x2, x21
	csinc	w20, w20, wzr, ne
.LBE449:
	.loc 1 284 0 is_stmt 0 discriminator 1
	cmp	x1, x3
	bne	.L133
.LBB450:
.LBB451:
	.loc 2 352 0 is_stmt 1
	bl	_raw_spin_unlock_bh
.LVL163:
.LBE451:
.LBE450:
	.loc 1 292 0
	mov	w0, 0
	.loc 1 291 0
	cbnz	w20, .L142
.L139:
	.loc 1 306 0
	ldp	x19, x20, [sp,16]
	.cfi_remember_state
	.cfi_restore 20
	.cfi_restore 19
.LVL164:
	ldp	x21, x22, [sp,32]
	.cfi_restore 22
	.cfi_restore 21
.LVL165:
	ldp	x29, x30, [sp], 48
	.cfi_restore 30
	.cfi_restore 29
	.cfi_def_cfa 31, 0
	ret
.LVL166:
.L142:
	.cfi_restore_state
	.loc 1 293 0
	bl	get_cur_time
.LVL167:
	ldr	x1, [x19,16]
	sub	x1, x0, x1
	mov	x0, 12000
	cmp	x1, x0
	.loc 1 294 0
	ldr	w1, [x19,108]
	.loc 1 293 0
	bls	.L135
	.loc 1 293 0 is_stmt 0 discriminator 1
	cmp	w1, 1
	bne	.L136
	.loc 1 295 0 is_stmt 1
	mov	w0, 2
	str	w0, [x19,108]
	.loc 1 296 0
	b	.L139
.L135:
	.loc 1 298 0
	cmp	w1, 1
	beq	.L143
.L136:
	.loc 1 302 0
	ldr	w3, [x19,80]
	adrp	x0, .LC18
	add	x0, x0, :lo12:.LC18
	mov	x2, x21
	bl	printk
.LVL168:
	.loc 1 305 0
	ldr	w0, [x19,108]
.L144:
	.loc 1 306 0
	ldp	x19, x20, [sp,16]
	.cfi_remember_state
	.cfi_restore 19
	.cfi_restore 20
.LVL169:
	ldp	x21, x22, [sp,32]
	.cfi_restore 21
	.cfi_restore 22
.LVL170:
	ldp	x29, x30, [sp], 48
	.cfi_restore 29
	.cfi_restore 30
	.cfi_def_cfa 31, 0
	ret
.LVL171:
.L132:
	.cfi_restore_state
.LBB453:
.LBB452:
	.loc 2 352 0
	mov	x0, x22
	bl	_raw_spin_unlock_bh
.LVL172:
.LBE452:
.LBE453:
	.loc 1 292 0
	mov	w0, 0
	b	.L139
.LVL173:
.L143:
	.loc 1 299 0
	ldr	w2, [x19,80]
	adrp	x0, .LC17
	add	x0, x0, :lo12:.LC17
	mov	x1, x21
	bl	printk
.LVL174:
	.loc 1 305 0
	ldr	w0, [x19,108]
	b	.L144
	.cfi_endproc
.LFE3510:
	.size	get_select, .-get_select
	.align	2
	.global	get_download_monitor
	.type	get_download_monitor, %function
get_download_monitor:
.LFB3512:
	.loc 1 332 0
	.cfi_startproc
.LVL175:
	stp	x29, x30, [sp, -112]!
	.cfi_def_cfa_offset 112
	.cfi_offset 29, -112
	.cfi_offset 30, -104
	add	x29, sp, 0
	.cfi_def_cfa_register 29
	stp	x19, x20, [sp,16]
	.cfi_offset 19, -96
	.cfi_offset 20, -88
	mov	x19, x0
	.loc 1 337 0
	mov	x0, x2
.LVL176:
	.loc 1 332 0
	stp	x25, x26, [sp,64]
	.loc 1 337 0
	str	x2, [x29,104]
	.cfi_offset 25, -48
	.cfi_offset 26, -40
.LBB454:
.LBB455:
	.loc 2 307 0
	adrp	x25, .LANCHOR0
.LBE455:
.LBE454:
	.loc 1 332 0
	stp	x21, x22, [sp,32]
	stp	x23, x24, [sp,48]
	.cfi_offset 21, -80
	.cfi_offset 22, -72
	.cfi_offset 23, -64
	.cfi_offset 24, -56
	mov	w21, w1
	stp	x27, x28, [sp,80]
	.cfi_offset 27, -32
	.cfi_offset 28, -24
	.loc 1 337 0
	bl	strlen
.LVL177:
	mov	w24, w0
.LVL178:
.LBB457:
.LBB456:
	.loc 2 307 0
	add	x0, x25, :lo12:.LANCHOR0
	bl	_raw_spin_lock_bh
.LVL179:
.LBE456:
.LBE457:
	.loc 1 340 0
	adrp	x0, .LANCHOR1
	.loc 1 341 0
	mov	w1, 11520
	.loc 1 340 0
	add	x0, x0, :lo12:.LANCHOR1
	.loc 1 341 0
	movk	w1, 0x131, lsl 16
	ldr	x2, [x29,104]
.LVL180:
	.loc 1 340 0
	ldr	w26, [x0,840]
.LVL181:
	add	w3, w26, 1
	.loc 1 341 0
	cmp	w3, w1
	bhi	.L146
	.loc 1 340 0
	str	w3, [x0,840]
.L147:
	.loc 1 343 0
	mov	w0, w21
	mov	w1, w26
	bl	new_dl_monitor
.LVL182:
	mov	x23, x0
.LVL183:
	.loc 1 344 0
	cbz	x0, .L163
	.loc 1 348 0
	str	x19, [x0,88]
	.loc 1 350 0
	mov	x19, x0
.LVL184:
	.loc 1 349 0
	bl	get_cur_time
.LVL185:
	str	x0, [x23,16]
.LBB458:
.LBB459:
	.loc 3 63 0
	add	x1, x25, :lo12:.LANCHOR0
	add	x20, x1, 8
.LBE459:
.LBE458:
	.loc 1 351 0 discriminator 1
	cmp	x23, x20
.LBB463:
.LBB462:
	.loc 3 63 0
	ldr	x0, [x1,8]
.LBB460:
.LBB461:
	.loc 3 42 0
	str	x23, [x0,8]
	.loc 3 43 0
	str	x0, [x23]
	.loc 3 44 0
	str	x20, [x23,8]
	.loc 3 45 0
	str	x23, [x1,8]
.LBE461:
.LBE460:
.LBE462:
.LBE463:
	.loc 1 351 0 discriminator 1
	beq	.L150
	ldr	w22, [x23,76]
	.loc 1 355 0
	sxtw	x27, w24
	ldr	w28, [x23,80]
	b	.L154
.L151:
.LBB464:
	.loc 1 351 0 discriminator 2
	ldr	x19, [x19]
.LBE464:
	.loc 1 351 0 is_stmt 0 discriminator 1
	cmp	x19, x20
	beq	.L164
.L154:
	.loc 1 352 0 is_stmt 1
	cmp	w21, w22
	bne	.L151
	.loc 1 353 0
	ldr	w0, [x19,80]
	cmp	w0, w28
	beq	.L151
	.loc 1 354 0
	ldr	w0, [x19,104]
	cmp	w0, w24
	bne	.L151
	.loc 1 355 0
	ldr	x1, [x19,96]
	mov	x2, x27
	ldr	x0, [x23,96]
	bl	memcmp
.LVL186:
	cbnz	w0, .L151
	.loc 1 356 0
	mov	w0, 1
	strb	w0, [x23,72]
	.loc 1 359 0
	ldr	w0, [x19,108]
	.loc 1 358 0
	ldr	w26, [x19,80]
.LVL187:
	.loc 1 359 0
	str	w0, [x23,108]
	.loc 1 366 0
	cbz	x19, .L153
	.loc 1 367 0
	bl	get_cur_time
.LVL188:
	ldr	x1, [x19,16]
	sub	x1, x0, x1
	mov	x0, 12000
	cmp	x1, x0
	bls	.L150
	ldr	w28, [x23,80]
	.loc 1 368 0
	strb	wzr, [x23,72]
.LVL189:
.L157:
	.loc 1 373 0
	adrp	x0, .LC20
	mov	w1, w28
	add	x0, x0, :lo12:.LC20
	bl	printk
.LVL190:
	b	.L158
.L164:
	ldrb	w0, [x23,72]
	.loc 1 370 0
	cbz	w0, .L157
.L153:
	.loc 1 371 0
	adrp	x0, .LC19
	mov	w1, w28
	add	x0, x0, :lo12:.LC19
	mov	w2, w26
	bl	printk
.LVL191:
.L158:
.LBB465:
.LBB466:
	.loc 2 352 0
	add	x0, x25, :lo12:.LANCHOR0
	bl	_raw_spin_unlock_bh
.LVL192:
.LBE466:
.LBE465:
	.loc 1 375 0
	mov	x0, x23
.LVL193:
.L149:
	.loc 1 376 0
	ldp	x19, x20, [sp,16]
	.cfi_remember_state
	.cfi_restore 20
	.cfi_restore 19
.LVL194:
	ldp	x21, x22, [sp,32]
	.cfi_restore 22
	.cfi_restore 21
.LVL195:
	ldp	x23, x24, [sp,48]
	.cfi_restore 24
	.cfi_restore 23
.LVL196:
	ldp	x25, x26, [sp,64]
	.cfi_restore 26
	.cfi_restore 25
.LVL197:
	ldp	x27, x28, [sp,80]
	.cfi_restore 28
	.cfi_restore 27
	ldp	x29, x30, [sp], 112
	.cfi_restore 30
	.cfi_restore 29
	.cfi_def_cfa 31, 0
	ret
.LVL198:
.L146:
	.cfi_restore_state
	.loc 1 342 0
	mov	w1, 1000
	str	w1, [x0,840]
	b	.L147
.LVL199:
.L150:
	ldrb	w0, [x23,72]
	ldr	w28, [x23,80]
	.loc 1 370 0
	cbnz	w0, .L153
	b	.L157
.LVL200:
.L163:
.LBB467:
.LBB468:
	.loc 2 352 0
	add	x0, x25, :lo12:.LANCHOR0
.LVL201:
	bl	_raw_spin_unlock_bh
.LVL202:
.LBE468:
.LBE467:
	.loc 1 346 0
	mov	x0, 0
	b	.L149
	.cfi_endproc
.LFE3512:
	.size	get_download_monitor, .-get_download_monitor
	.align	2
	.global	nofity_loop
	.type	nofity_loop, %function
nofity_loop:
.LFB3513:
	.loc 1 379 0
	.cfi_startproc
.LVL203:
	stp	x29, x30, [sp, -96]!
	.cfi_def_cfa_offset 96
	.cfi_offset 29, -96
	.cfi_offset 30, -88
	add	x29, sp, 0
	.cfi_def_cfa_register 29
	stp	x21, x22, [sp,32]
	.cfi_offset 21, -64
	.cfi_offset 22, -56
	mov	w21, w0
	.loc 1 381 0
	mov	x0, x2
.LVL204:
	.loc 1 379 0
	stp	x19, x20, [sp,16]
	stp	x23, x24, [sp,48]
	stp	x25, x26, [sp,64]
	str	x27, [sp,80]
	.cfi_offset 19, -80
	.cfi_offset 20, -72
	.cfi_offset 23, -48
	.cfi_offset 24, -40
	.cfi_offset 25, -32
	.cfi_offset 26, -24
	.cfi_offset 27, -16
	.loc 1 379 0
	mov	x22, x2
	mov	w23, w1
	mov	w24, w3
	.loc 1 381 0
	bl	strlen
.LVL205:
	mov	w26, w0
.LVL206:
.LBB469:
	.loc 1 383 0
	adrp	x0, .LANCHOR0
	add	x0, x0, :lo12:.LANCHOR0
	add	x20, x0, 8
	ldr	x19, [x0,8]
.LVL207:
.LBE469:
	.loc 1 383 0 is_stmt 0 discriminator 1
	cmp	x19, x20
	beq	.L165
	.loc 1 388 0 is_stmt 1
	adrp	x25, .LC21
	.loc 1 385 0
	sxtw	x27, w26
	.loc 1 388 0
	add	x25, x25, :lo12:.LC21
	b	.L170
.L167:
.LBB470:
	.loc 1 383 0 discriminator 2
	ldr	x19, [x19]
.LBE470:
	.loc 1 383 0 is_stmt 0 discriminator 1
	cmp	x19, x20
	beq	.L165
.L170:
	.loc 1 384 0 is_stmt 1
	ldr	w0, [x19,76]
	cmp	w0, w21
	bne	.L167
	.loc 1 384 0 is_stmt 0 discriminator 1
	ldr	w0, [x19,104]
	cmp	w0, w26
	bne	.L167
	.loc 1 385 0 is_stmt 1
	ldr	x0, [x19,96]
	mov	x1, x22
	mov	x2, x27
	bl	memcmp
.LVL208:
	.loc 1 384 0 discriminator 2
	cbnz	w0, .L167
	.loc 1 386 0
	ldr	w2, [x19,80]
	.loc 1 385 0
	cmp	w2, w23
	beq	.L167
	.loc 1 387 0
	str	w24, [x19,108]
	.loc 1 388 0
	mov	x0, x25
	mov	w1, w21
	mov	w3, w24
	bl	printk
.LVL209:
	b	.L167
.L165:
	.loc 1 394 0
	ldp	x19, x20, [sp,16]
	.cfi_restore 20
	.cfi_restore 19
.LVL210:
	ldp	x21, x22, [sp,32]
	.cfi_restore 22
	.cfi_restore 21
.LVL211:
	ldp	x23, x24, [sp,48]
	.cfi_restore 24
	.cfi_restore 23
.LVL212:
	ldp	x25, x26, [sp,64]
	.cfi_restore 26
	.cfi_restore 25
.LVL213:
	ldr	x27, [sp,80]
	.cfi_restore 27
	ldp	x29, x30, [sp], 96
	.cfi_restore 30
	.cfi_restore 29
	.cfi_def_cfa 31, 0
	ret
	.cfi_endproc
.LFE3513:
	.size	nofity_loop, .-nofity_loop
	.align	2
	.global	download_notify
	.type	download_notify, %function
download_notify:
.LFB3514:
	.loc 1 397 0
	.cfi_startproc
.LVL214:
	stp	x29, x30, [sp, -64]!
	.cfi_def_cfa_offset 64
	.cfi_offset 29, -64
	.cfi_offset 30, -56
	.loc 1 400 0
	cmp	w0, 999
	.loc 1 397 0
	add	x29, sp, 0
	.cfi_def_cfa_register 29
	stp	x19, x20, [sp,16]
	stp	x21, x22, [sp,32]
	str	x23, [sp,48]
	.cfi_offset 19, -48
	.cfi_offset 20, -40
	.cfi_offset 21, -32
	.cfi_offset 22, -24
	.cfi_offset 23, -16
	.loc 1 400 0
	bgt	.L184
.LVL215:
.L172:
	.loc 1 419 0
	ldp	x19, x20, [sp,16]
	.cfi_remember_state
	.cfi_restore 20
	.cfi_restore 19
.LVL216:
	ldp	x21, x22, [sp,32]
	.cfi_restore 22
	.cfi_restore 21
	ldr	x23, [sp,48]
	.cfi_restore 23
	ldp	x29, x30, [sp], 64
	.cfi_restore 30
	.cfi_restore 29
	.cfi_def_cfa 31, 0
	ret
.L184:
	.cfi_restore_state
.LBB471:
.LBB472:
	.loc 2 307 0
	adrp	x23, .LANCHOR0
	mov	w20, w0
	add	x21, x23, :lo12:.LANCHOR0
	mov	x22, x1
	mov	x0, x21
.LVL217:
	bl	_raw_spin_lock_bh
.LVL218:
.LBE472:
.LBE471:
.LBB473:
	.loc 1 403 0
	ldr	x19, [x21,8]
.LVL219:
	add	x0, x21, 8
.LBE473:
	.loc 1 403 0 is_stmt 0 discriminator 1
	cmp	x19, x0
	beq	.L174
	.loc 1 404 0 is_stmt 1
	ldr	w1, [x19,80]
	cmp	w20, w1
	beq	.L175
.L177:
.LBB474:
	.loc 1 403 0 discriminator 2
	ldr	x19, [x19]
.LBE474:
	.loc 1 403 0 is_stmt 0 discriminator 1
	cmp	x19, x0
	beq	.L174
	.loc 1 404 0 is_stmt 1
	ldr	w3, [x19,80]
	cmp	w3, w20
	bne	.L177
.L175:
	.loc 1 405 0
	adrp	x1, .LC22
	mov	x0, x22
	add	x1, x1, :lo12:.LC22
	mov	x2, 5
	bl	memcmp
.LVL220:
	cbz	w0, .L185
	.loc 1 409 0
	mov	w1, 3
	.loc 1 410 0
	adrp	x0, .LC24
	.loc 1 409 0
	str	w1, [x19,108]
	.loc 1 410 0
	add	x0, x0, :lo12:.LC24
	mov	w1, w20
	bl	printk
.LVL221:
.L179:
	.loc 1 412 0
	ldr	x2, [x19,96]
	mov	w1, w20
	ldr	w3, [x19,108]
	ldr	w0, [x19,76]
	bl	nofity_loop
.LVL222:
.LBB475:
.LBB476:
	.loc 2 352 0
	add	x0, x23, :lo12:.LANCHOR0
	bl	_raw_spin_unlock_bh
.LVL223:
.LBE476:
.LBE475:
	.loc 1 419 0
	ldr	x23, [sp,48]
	.cfi_remember_state
	.cfi_restore 23
	ldp	x19, x20, [sp,16]
	.cfi_restore 19
	.cfi_restore 20
.LVL224:
	ldp	x21, x22, [sp,32]
	.cfi_restore 21
	.cfi_restore 22
.LVL225:
	ldp	x29, x30, [sp], 64
	.cfi_restore 29
	.cfi_restore 30
	.cfi_def_cfa 31, 0
	ret
.LVL226:
.L185:
	.cfi_restore_state
	.loc 1 406 0
	mov	w1, 2
	.loc 1 407 0
	adrp	x0, .LC23
	.loc 1 406 0
	str	w1, [x19,108]
	.loc 1 407 0
	add	x0, x0, :lo12:.LC23
	mov	w1, w20
	bl	printk
.LVL227:
	b	.L179
.L174:
.LBB477:
.LBB478:
	.loc 2 352 0
	add	x0, x23, :lo12:.LANCHOR0
	bl	_raw_spin_unlock_bh
.LVL228:
.LBE478:
.LBE477:
	.loc 1 418 0
	adrp	x0, .LC25
	mov	w1, w20
	mov	x2, x22
	add	x0, x0, :lo12:.LC25
	bl	printk
.LVL229:
	b	.L172
	.cfi_endproc
.LFE3514:
	.size	download_notify, .-download_notify
	.align	2
	.global	free_node
	.type	free_node, %function
free_node:
.LFB3515:
	.loc 1 422 0
	.cfi_startproc
.LVL230:
	stp	x29, x30, [sp, -32]!
	.cfi_def_cfa_offset 32
	.cfi_offset 29, -32
	.cfi_offset 30, -24
	add	x29, sp, 0
	.cfi_def_cfa_register 29
	stp	x19, x20, [sp,16]
	.cfi_offset 19, -16
	.cfi_offset 20, -8
.LBB479:
.LBB480:
	.loc 2 307 0
	adrp	x20, .LANCHOR0
.LBE480:
.LBE479:
	.loc 1 422 0
	mov	x19, x0
.LBB482:
.LBB481:
	.loc 2 307 0
	add	x20, x20, :lo12:.LANCHOR0
	mov	x0, x20
.LVL231:
	bl	_raw_spin_lock_bh
.LVL232:
.LBE481:
.LBE482:
.LBB483:
.LBB484:
	.loc 3 107 0
	ldr	x3, [x19]
	.loc 3 108 0
	mov	x2, 256
	.loc 3 107 0
	ldr	x0, [x19,8]
	.loc 3 109 0
	mov	x1, 512
	.loc 3 108 0
	movk	x2, 0xdead, lsl 48
	.loc 3 109 0
	movk	x1, 0xdead, lsl 48
.LBB485:
.LBB486:
	.loc 3 89 0
	str	x0, [x3,8]
.LBB487:
.LBB488:
.LBB489:
	.loc 4 247 0
	str	x3, [x0]
.LBE489:
.LBE488:
.LBE487:
.LBE486:
.LBE485:
.LBE484:
.LBE483:
.LBB491:
.LBB492:
	.loc 2 352 0
	mov	x0, x20
.LBE492:
.LBE491:
.LBB494:
.LBB490:
	.loc 3 108 0
	str	x2, [x19]
	.loc 3 109 0
	str	x1, [x19,8]
.LBE490:
.LBE494:
.LBB495:
.LBB493:
	.loc 2 352 0
	bl	_raw_spin_unlock_bh
.LVL233:
.LBE493:
.LBE495:
.LBB496:
.LBB497:
	.loc 1 272 0
	ldr	x0, [x19,96]
	bl	kfree
.LVL234:
	.loc 1 273 0
	mov	x0, x19
	bl	kfree
.LVL235:
.LBE497:
.LBE496:
	.loc 1 427 0
	ldp	x19, x20, [sp,16]
	.cfi_restore 20
	.cfi_restore 19
.LVL236:
	ldp	x29, x30, [sp], 32
	.cfi_restore 30
	.cfi_restore 29
	.cfi_def_cfa 31, 0
	ret
	.cfi_endproc
.LFE3515:
	.size	free_node, .-free_node
	.align	2
	.global	wait_user_event
	.type	wait_user_event, %function
wait_user_event:
.LFB3516:
	.loc 1 430 0
	.cfi_startproc
.LVL237:
	stp	x29, x30, [sp, -112]!
	.cfi_def_cfa_offset 112
	.cfi_offset 29, -112
	.cfi_offset 30, -104
	add	x29, sp, 0
	.cfi_def_cfa_register 29
	stp	x23, x24, [sp,48]
	.cfi_offset 23, -64
	.cfi_offset 24, -56
	.loc 1 438 0
	adrp	x24, .LANCHOR1
	.loc 1 430 0
	str	x25, [sp,64]
	stp	x19, x20, [sp,16]
	.cfi_offset 25, -48
	.cfi_offset 19, -96
	.cfi_offset 20, -88
	.loc 1 438 0
	add	x19, x24, :lo12:.LANCHOR1
	.loc 1 430 0
	stp	x21, x22, [sp,32]
	.cfi_offset 21, -80
	.cfi_offset 22, -72
	.loc 1 430 0
	mov	x21, x0
	.loc 1 434 0
	bl	get_cur_time
.LVL238:
	.loc 1 438 0
	ldr	w1, [x19,844]
	.loc 1 434 0
	mov	x22, x0
.LVL239:
	.loc 1 438 0
	cmp	w1, 1
	bls	.L188
	.loc 1 439 0
	adrp	x0, .LC26
	.loc 1 440 0
	mov	w19, 0
	.loc 1 439 0
	add	x0, x0, :lo12:.LC26
	bl	printk
.LVL240:
	.loc 1 471 0
	ldr	x25, [sp,64]
	.cfi_remember_state
	.cfi_restore 25
	mov	w0, w19
	ldp	x19, x20, [sp,16]
	.cfi_restore 20
	.cfi_restore 19
	ldp	x21, x22, [sp,32]
	.cfi_restore 22
	.cfi_restore 21
.LVL241:
	ldp	x23, x24, [sp,48]
	.cfi_restore 24
	.cfi_restore 23
	ldp	x29, x30, [sp], 112
	.cfi_restore 30
	.cfi_restore 29
	.cfi_def_cfa 31, 0
	ret
.LVL242:
.L188:
	.cfi_restore_state
.LBB498:
.LBB499:
	.loc 2 307 0
	add	x25, x19, 848
.LBE499:
.LBE498:
	.loc 1 446 0
	mov	x23, 11999
.LBB502:
.LBB500:
	.loc 2 307 0
	mov	x0, x25
.LBE500:
.LBE502:
	.loc 1 432 0
	mov	w20, 0
.LVL243:
.LBB503:
.LBB501:
	.loc 2 307 0
	bl	_raw_spin_lock_bh
.LVL244:
.LBE501:
.LBE503:
	.loc 1 443 0
	ldr	w1, [x19,844]
.LBB504:
.LBB505:
	.loc 2 352 0
	mov	x0, x25
.LBE505:
.LBE504:
	.loc 1 443 0
	add	w1, w1, 1
	str	w1, [x19,844]
.LBB507:
.LBB506:
	.loc 2 352 0
	bl	_raw_spin_unlock_bh
.LVL245:
.LBE506:
.LBE507:
	.loc 1 445 0
	ldr	w1, [x21,80]
	adrp	x0, .LC27
	ldr	w2, [x19,844]
	add	x0, x0, :lo12:.LC27
	bl	printk
.LVL246:
	.loc 1 446 0
	bl	get_cur_time
.LVL247:
	sub	x0, x0, x22
	cmp	x0, x23
	bhi	.L200
.L193:
	.loc 1 447 0
	ldr	w0, [x21,108]
	cmp	w0, 1
	bne	.L191
	.loc 1 451 0
	add	w20, w20, 1
	mov	x19, 10
.L192:
.LBB508:
	.loc 1 452 0 discriminator 6
	mov	x0, 35160
	movk	x0, 0x41, lsl 16
	bl	__const_udelay
.LVL248:
	.loc 1 452 0 is_stmt 0 discriminator 8
	subs	x19, x19, #1
	bne	.L192
.LBE508:
	.loc 1 446 0 is_stmt 1
	bl	get_cur_time
.LVL249:
	sub	x0, x0, x22
	cmp	x0, x23
	bls	.L193
.L200:
.LBB509:
.LBB510:
	.loc 2 307 0
	add	x24, x24, :lo12:.LANCHOR1
	add	x19, x24, 848
	mov	x0, x19
	bl	_raw_spin_lock_bh
.LVL250:
.LBE510:
.LBE509:
	.loc 1 455 0
	ldr	w1, [x24,844]
.LBB512:
.LBB513:
	.loc 2 352 0
	mov	x0, x19
.LBE513:
.LBE512:
	.loc 1 455 0
	sub	w1, w1, #1
	str	w1, [x24,844]
.LBB517:
.LBB514:
	.loc 2 352 0
	bl	_raw_spin_unlock_bh
.LVL251:
.LBE514:
.LBE517:
	.loc 1 463 0
	ldr	w1, [x21,80]
	ldr	w3, [x24,844]
	str	x1, [x29,96]
	str	x3, [x29,104]
	bl	get_cur_time
.LVL252:
	sub	w4, w0, w22
	.loc 1 463 0 is_stmt 0 discriminator 1
	ldr	x1, [x29,96]
	adrp	x0, .LC29
	ldr	x3, [x29,104]
	add	x0, x0, :lo12:.LC29
	mov	w2, w20
	bl	printk
.LVL253:
	.loc 1 466 0 is_stmt 1
	mov	w0, 2
	str	w0, [x21,108]
	mov	w19, w0
.L195:
	.loc 1 469 0
	mov	x0, x21
	bl	free_node
.LVL254:
	.loc 1 471 0
	ldr	x25, [sp,64]
	.cfi_remember_state
	.cfi_restore 25
	mov	w0, w19
	ldp	x19, x20, [sp,16]
	.cfi_restore 19
	.cfi_restore 20
.LVL255:
	ldp	x21, x22, [sp,32]
	.cfi_restore 21
	.cfi_restore 22
.LVL256:
	ldp	x23, x24, [sp,48]
	.cfi_restore 23
	.cfi_restore 24
	ldp	x29, x30, [sp], 112
	.cfi_restore 29
	.cfi_restore 30
	.cfi_def_cfa 31, 0
	ret
.LVL257:
.L191:
	.cfi_restore_state
.LBB518:
.LBB511:
	.loc 2 307 0
	add	x24, x24, :lo12:.LANCHOR1
	add	x19, x24, 848
	mov	x0, x19
	bl	_raw_spin_lock_bh
.LVL258:
.LBE511:
.LBE518:
	.loc 1 455 0
	ldr	w1, [x24,844]
.LBB519:
.LBB515:
	.loc 2 352 0
	mov	x0, x19
.LBE515:
.LBE519:
	.loc 1 455 0
	sub	w1, w1, #1
	str	w1, [x24,844]
.LBB520:
.LBB516:
	.loc 2 352 0
	bl	_raw_spin_unlock_bh
.LVL259:
.LBE516:
.LBE520:
	.loc 1 459 0
	ldr	w1, [x21,80]
	ldr	w2, [x21,108]
	ldr	w3, [x24,844]
	str	x1, [x29,88]
	str	x2, [x29,96]
	str	x3, [x29,104]
	bl	get_cur_time
.LVL260:
	.loc 1 459 0 is_stmt 0 discriminator 1
	ldr	x1, [x29,88]
	.loc 1 459 0
	sub	w4, w0, w22
	.loc 1 459 0 discriminator 1
	ldr	x2, [x29,96]
	adrp	x0, .LC28
	ldr	x3, [x29,104]
	add	x0, x0, :lo12:.LC28
	bl	printk
.LVL261:
	ldr	w19, [x21,108]
	b	.L195
	.cfi_endproc
.LFE3516:
	.size	wait_user_event, .-wait_user_event
	.align	2
	.global	init_appdl
	.type	init_appdl, %function
init_appdl:
.LFB3517:
	.loc 1 474 0 is_stmt 1
	.cfi_startproc
	stp	x29, x30, [sp, -32]!
	.cfi_def_cfa_offset 32
	.cfi_offset 29, -32
	.cfi_offset 30, -24
	.loc 1 477 0
	adrp	x4, .LANCHOR1
	adrp	x6, .LANCHOR0
	add	x3, x4, :lo12:.LANCHOR1
	add	x1, x6, :lo12:.LANCHOR0
	.loc 1 474 0
	add	x29, sp, 0
	.cfi_def_cfa_register 29
	str	x19, [sp,16]
	.cfi_offset 19, -16
	add	x0, x1, 1096
	.loc 1 477 0
	mov	w5, 1000
	add	x1, x1, 72
	add	x2, x0, 4096
	str	w5, [x3,840]
	.loc 1 478 0
	str	wzr, [x3,852]
	.loc 1 479 0
	str	wzr, [x3,844]
.L202:
	add	x1, x1, 4
.LBB521:
.LBB522:
	.loc 3 27 0
	str	x0, [x0]
	.loc 3 28 0
	str	x0, [x0,8]
	add	x0, x0, 16
.LBE522:
.LBE521:
	.loc 1 482 0
	strh	wzr, [x1,-4]
	.loc 1 480 0 discriminator 1
	cmp	x0, x2
	.loc 1 482 0
	strh	wzr, [x1,-2]
	.loc 1 480 0 discriminator 1
	bne	.L202
.LBB523:
.LBB524:
	.loc 3 27 0
	add	x5, x6, :lo12:.LANCHOR0
.LBE524:
.LBE523:
	.loc 1 486 0
	add	x4, x4, :lo12:.LANCHOR1
	.loc 1 487 0
	add	x19, x5, 24
.LBB527:
.LBB525:
	.loc 3 27 0
	add	x7, x5, 8
.LBE525:
.LBE527:
	.loc 1 487 0
	mov	x0, x19
	mov	x2, 0
	mov	x3, 0
	mov	w1, 0
.LBB528:
.LBB526:
	.loc 3 27 0
	str	x7, [x5,8]
	.loc 3 28 0
	str	x7, [x7,8]
.LBE526:
.LBE528:
	.loc 1 485 0
	strh	wzr, [x6,#:lo12:.LANCHOR0]
	strh	wzr, [x5,2]
	.loc 1 486 0
	strh	wzr, [x4,848]
	strh	wzr, [x4,850]
	.loc 1 487 0
	bl	init_timer_key
.LVL262:
	.loc 1 489 0
	adrp	x1, dl_timer
	.loc 1 491 0
	mov	x0, x19
	.loc 1 489 0
	add	x1, x1, :lo12:dl_timer
	str	x1, [x19,24]
	.loc 1 490 0
	adrp	x1, jiffies
	.loc 1 488 0
	str	xzr, [x19,32]
	.loc 1 490 0
	ldr	x1, [x1,#:lo12:jiffies]
	add	x1, x1, 40960
	add	x1, x1, 4040
	str	x1, [x19,16]
	.loc 1 491 0
	bl	add_timer
.LVL263:
	.loc 1 492 0
	ldr	x19, [sp,16]
	.cfi_restore 19
	ldp	x29, x30, [sp], 32
	.cfi_restore 30
	.cfi_restore 29
	.cfi_def_cfa 31, 0
	ret
	.cfi_endproc
.LFE3517:
	.size	init_appdl, .-init_appdl
	.align	2
	.global	uninit_appdl
	.type	uninit_appdl, %function
uninit_appdl:
.LFB3518:
	.loc 1 495 0
	.cfi_startproc
	.loc 1 496 0
	ret
	.cfi_endproc
.LFE3518:
	.size	uninit_appdl, .-uninit_appdl
	.global	g_wcount
	.section	__hwlog_tag,"aw",%progbits
	.align	3
	.type	_hwtag_ARGO, %object
	.size	_hwtag_ARGO, 16
_hwtag_ARGO:
	.xword	.LC30
	.word	7
	.zero	4
	.section	.rodata.str1.8,"aMS",%progbits,1
	.align	3
.LC0:
	.string	"\0016hwad:dl_timer free dlid=%d url=%s\n"
	.zero	3
.LC1:
	.string	"\0016hwad:clear_appdl_rule\n"
	.zero	7
.LC2:
	.string	"\0016hwad:add_appdl_uid>=MAX_HASH  hid=%u\n"
.LC3:
	.string	"\0016hwad:id=%u uid=%u alreadyin\n"
	.zero	1
.LC4:
	.string	"\0016hwad:add_appdl_uid hid=%u uid=%u new\n"
.LC5:
	.string	"\0016hwad:clear_appdl_uid>=MAX_HASH id=%u\n"
.LC6:
	.string	"\0016hwad:clr_dl_uid uid=%u\n"
	.zero	6
.LC7:
	.string	"\0016hwad: output_appdl_rule start\n"
	.zero	7
.LC8:
	.string	"\0016hwad:output_appdl_rule uid=%d\n"
	.zero	7
.LC9:
	.string	"\0016hwad:output_appdl_rule end\n"
	.zero	2
.LC10:
	.string	"\0016hwad:match_appdl_uid>=MAX_HASH hid=%u\n"
	.zero	7
.LC11:
	.string	".apk"
	.zero	3
.LC12:
	.string	"\0016hwad:match dlurl true urlpath=%s\n"
	.zero	4
.LC13:
	.string	"%s"
	.zero	5
.LC14:
	.string	"\0016hwad:report_msg new urlhex failure\n"
	.zero	2
.LC15:
	.string	"%u %u %s"
	.zero	7
.LC16:
	.string	"\0016hwad:report_msg dlid=%u len=%d buf=%s\n"
	.zero	7
.LC17:
	.string	"\0016hwad:get_select DLST_WAIT %p dlid=%d\n"
.LC18:
	.string	"\0016hwad:get_select NF_%d %p dlid=%d\n"
	.zero	4
.LC19:
	.string	"\0016hwad:bwait=true dlid=%d oldid=%d\n"
	.zero	4
.LC20:
	.string	"\0016hwad:bwait=false dlid=%d\n"
	.zero	4
.LC21:
	.string	"\0016hwad:nofity_loop uid=%d dlid=%d act=%d\n"
	.zero	6
.LC22:
	.string	"allow"
	.zero	2
.LC23:
	.string	"\0016hwad:notify dlid=%d allow\n"
	.zero	3
.LC24:
	.string	"\0016hwad:notify dlid=%d reject\n"
	.zero	2
.LC25:
	.string	"\0016hwad:notify not found dlid=%d act=%s\n"
.LC26:
	.string	"\0016hwad:wait DLST_NOT wcnt=%d\n"
	.zero	2
.LC27:
	.string	"\0016hwad:wait dlid=%d wcnt=%d\n"
	.zero	3
.LC28:
	.string	"\0016hwad:wait event dlid=%d action=%d wcnt=%d time=%d\n"
	.zero	3
.LC29:
	.string	"\0016hwad:wait timeout dlid=%d cnt=%d wcnt=%d time=%d\n"
	.zero	4
.LC30:
	.string	"ARGO"
	.bss
	.align	3
.LANCHOR0 = . + 0
.LANCHOR1 = . + 4352
	.type	g_wait_lock, %object
	.size	g_wait_lock, 4
g_wait_lock:
	.zero	4
	.zero	4
	.type	g_dl_wait, %object
	.size	g_dl_wait, 16
g_dl_wait:
	.zero	16
	.type	g_timer, %object
	.size	g_timer, 48
g_timer:
	.zero	48
	.type	g_appdllock, %object
	.size	g_appdllock, 1024
g_appdllock:
	.zero	1024
	.type	g_appdlhead, %object
	.size	g_appdlhead, 4096
g_appdlhead:
	.zero	4096
	.type	g_dlid, %object
	.size	g_dlid, 4
g_dlid:
	.zero	4
	.type	g_wcount, %object
	.size	g_wcount, 4
g_wcount:
	.zero	4
	.type	g_count_lock, %object
	.size	g_count_lock, 4
g_count_lock:
	.zero	4
	.type	g_waitcount, %object
	.size	g_waitcount, 4
g_waitcount:
	.zero	4
	.text
.Letext0:
	.file 6 "/home/jenkins1/slave_49/workspace/CHICAGO_B100_chipset_component/opensource/component_code/vendor/huawei/extra/build/build_script/kirin_kernel_release/kernel/include/uapi/asm-generic/int-ll64.h"
	.file 7 "/home/jenkins1/slave_49/workspace/CHICAGO_B100_chipset_component/opensource/component_code/vendor/huawei/extra/build/build_script/kirin_kernel_release/kernel/include/asm-generic/int-ll64.h"
	.file 8 "/home/jenkins1/slave_49/workspace/CHICAGO_B100_chipset_component/opensource/component_code/vendor/huawei/extra/build/build_script/kirin_kernel_release/kernel/include/uapi/asm-generic/posix_types.h"
	.file 9 "/home/jenkins1/slave_49/workspace/CHICAGO_B100_chipset_component/opensource/component_code/vendor/huawei/extra/build/build_script/kirin_kernel_release/kernel/include/uapi/linux/types.h"
	.file 10 "/home/jenkins1/slave_49/workspace/CHICAGO_B100_chipset_component/opensource/component_code/vendor/huawei/extra/build/build_script/kirin_kernel_release/kernel/include/linux/types.h"
	.file 11 "/home/jenkins1/slave_49/workspace/CHICAGO_B100_chipset_component/opensource/component_code/vendor/huawei/extra/build/build_script/kirin_kernel_release/kernel/include/linux/export.h"
	.file 12 "/home/jenkins1/slave_49/workspace/CHICAGO_B100_chipset_component/opensource/component_code/vendor/huawei/extra/build/build_script/kirin_kernel_release/kernel/include/linux/capability.h"
	.file 13 "/home/jenkins1/slave_49/workspace/CHICAGO_B100_chipset_component/opensource/component_code/vendor/huawei/extra/build/build_script/kirin_kernel_release/kernel/include/asm-generic/bug.h"
	.file 14 "/home/jenkins1/slave_49/workspace/CHICAGO_B100_chipset_component/opensource/component_code/vendor/huawei/extra/build/build_script/kirin_kernel_release/kernel/include/linux/thread_info.h"
	.file 15 "/home/jenkins1/slave_49/workspace/CHICAGO_B100_chipset_component/opensource/component_code/vendor/huawei/extra/build/build_script/kirin_kernel_release/kernel/include/uapi/linux/time.h"
	.file 16 "/home/jenkins1/slave_49/workspace/CHICAGO_B100_chipset_component/opensource/component_code/vendor/huawei/extra/build/build_script/kirin_kernel_release/kernel/arch/arm64/include/asm/compat.h"
	.file 17 "/home/jenkins1/slave_49/workspace/CHICAGO_B100_chipset_component/opensource/component_code/vendor/huawei/extra/build/build_script/kirin_kernel_release/kernel/include/uapi/asm-generic/poll.h"
	.file 18 "/home/jenkins1/slave_49/workspace/CHICAGO_B100_chipset_component/opensource/component_code/vendor/huawei/extra/build/build_script/kirin_kernel_release/kernel/include/linux/sched.h"
	.file 19 "/home/jenkins1/slave_49/workspace/CHICAGO_B100_chipset_component/opensource/component_code/vendor/huawei/extra/build/build_script/kirin_kernel_release/kernel/arch/arm64/include/uapi/asm/ptrace.h"
	.file 20 "/home/jenkins1/slave_49/workspace/CHICAGO_B100_chipset_component/opensource/component_code/vendor/huawei/extra/build/build_script/kirin_kernel_release/kernel/arch/arm64/include/asm/spinlock_types.h"
	.file 21 "/home/jenkins1/slave_49/workspace/CHICAGO_B100_chipset_component/opensource/component_code/vendor/huawei/extra/build/build_script/kirin_kernel_release/kernel/include/linux/spinlock_types.h"
	.file 22 "/home/jenkins1/slave_49/workspace/CHICAGO_B100_chipset_component/opensource/component_code/vendor/huawei/extra/build/build_script/kirin_kernel_release/kernel/include/linux/rwlock_types.h"
	.file 23 "/home/jenkins1/slave_49/workspace/CHICAGO_B100_chipset_component/opensource/component_code/vendor/huawei/extra/build/build_script/kirin_kernel_release/kernel/arch/arm64/include/asm/fpsimd.h"
	.file 24 "/home/jenkins1/slave_49/workspace/CHICAGO_B100_chipset_component/opensource/component_code/vendor/huawei/extra/build/build_script/kirin_kernel_release/kernel/arch/arm64/include/asm/processor.h"
	.file 25 "/home/jenkins1/slave_49/workspace/CHICAGO_B100_chipset_component/opensource/component_code/vendor/huawei/extra/build/build_script/kirin_kernel_release/kernel/include/asm-generic/atomic-long.h"
	.file 26 "/home/jenkins1/slave_49/workspace/CHICAGO_B100_chipset_component/opensource/component_code/vendor/huawei/extra/build/build_script/kirin_kernel_release/kernel/include/linux/seqlock.h"
	.file 27 "/home/jenkins1/slave_49/workspace/CHICAGO_B100_chipset_component/opensource/component_code/vendor/huawei/extra/build/build_script/kirin_kernel_release/kernel/include/linux/plist.h"
	.file 28 "/home/jenkins1/slave_49/workspace/CHICAGO_B100_chipset_component/opensource/component_code/vendor/huawei/extra/build/build_script/kirin_kernel_release/kernel/include/linux/cpumask.h"
	.file 29 "/home/jenkins1/slave_49/workspace/CHICAGO_B100_chipset_component/opensource/component_code/vendor/huawei/extra/build/build_script/kirin_kernel_release/kernel/include/linux/wait.h"
	.file 30 "/home/jenkins1/slave_49/workspace/CHICAGO_B100_chipset_component/opensource/component_code/vendor/huawei/extra/build/build_script/kirin_kernel_release/kernel/include/linux/completion.h"
	.file 31 "/home/jenkins1/slave_49/workspace/CHICAGO_B100_chipset_component/opensource/component_code/vendor/huawei/extra/build/build_script/kirin_kernel_release/kernel/include/linux/ktime.h"
	.file 32 "/home/jenkins1/slave_49/workspace/CHICAGO_B100_chipset_component/opensource/component_code/vendor/huawei/extra/build/build_script/kirin_kernel_release/kernel/include/linux/rbtree.h"
	.file 33 "/home/jenkins1/slave_49/workspace/CHICAGO_B100_chipset_component/opensource/component_code/vendor/huawei/extra/build/build_script/kirin_kernel_release/kernel/include/linux/nodemask.h"
	.file 34 "/home/jenkins1/slave_49/workspace/CHICAGO_B100_chipset_component/opensource/component_code/vendor/huawei/extra/build/build_script/kirin_kernel_release/kernel/include/linux/osq_lock.h"
	.file 35 "/home/jenkins1/slave_49/workspace/CHICAGO_B100_chipset_component/opensource/component_code/vendor/huawei/extra/build/build_script/kirin_kernel_release/kernel/include/linux/rwsem.h"
	.file 36 "/home/jenkins1/slave_49/workspace/CHICAGO_B100_chipset_component/opensource/component_code/vendor/huawei/extra/build/build_script/kirin_kernel_release/kernel/include/linux/mm_types.h"
	.file 37 "/home/jenkins1/slave_49/workspace/CHICAGO_B100_chipset_component/opensource/component_code/vendor/huawei/extra/build/build_script/kirin_kernel_release/kernel/include/linux/lockdep.h"
	.file 38 "/home/jenkins1/slave_49/workspace/CHICAGO_B100_chipset_component/opensource/component_code/vendor/huawei/extra/build/build_script/kirin_kernel_release/kernel/include/linux/uprobes.h"
	.file 39 "/home/jenkins1/slave_49/workspace/CHICAGO_B100_chipset_component/opensource/component_code/vendor/huawei/extra/build/build_script/kirin_kernel_release/kernel/arch/arm64/include/asm/pgtable-types.h"
	.file 40 "/home/jenkins1/slave_49/workspace/CHICAGO_B100_chipset_component/opensource/component_code/vendor/huawei/extra/build/build_script/kirin_kernel_release/kernel/arch/arm64/include/asm/mmu.h"
	.file 41 "/home/jenkins1/slave_49/workspace/CHICAGO_B100_chipset_component/opensource/component_code/vendor/huawei/extra/build/build_script/kirin_kernel_release/kernel/include/linux/fs.h"
	.file 42 "/home/jenkins1/slave_49/workspace/CHICAGO_B100_chipset_component/opensource/component_code/vendor/huawei/extra/build/build_script/kirin_kernel_release/kernel/include/linux/mm.h"
	.file 43 "/home/jenkins1/slave_49/workspace/CHICAGO_B100_chipset_component/opensource/component_code/vendor/huawei/extra/build/build_script/kirin_kernel_release/kernel/include/asm-generic/cputime_jiffies.h"
	.file 44 "/home/jenkins1/slave_49/workspace/CHICAGO_B100_chipset_component/opensource/component_code/vendor/huawei/extra/build/build_script/kirin_kernel_release/kernel/include/linux/llist.h"
	.file 45 "/home/jenkins1/slave_49/workspace/CHICAGO_B100_chipset_component/opensource/component_code/vendor/huawei/extra/build/build_script/kirin_kernel_release/kernel/arch/arm64/include/asm/smp.h"
	.file 46 "/home/jenkins1/slave_49/workspace/CHICAGO_B100_chipset_component/opensource/component_code/vendor/huawei/extra/build/build_script/kirin_kernel_release/kernel/include/linux/uidgid.h"
	.file 47 "/home/jenkins1/slave_49/workspace/CHICAGO_B100_chipset_component/opensource/component_code/vendor/huawei/extra/build/build_script/kirin_kernel_release/kernel/include/uapi/asm-generic/signal.h"
	.file 48 "/home/jenkins1/slave_49/workspace/CHICAGO_B100_chipset_component/opensource/component_code/vendor/huawei/extra/build/build_script/kirin_kernel_release/kernel/include/uapi/asm-generic/signal-defs.h"
	.file 49 "/home/jenkins1/slave_49/workspace/CHICAGO_B100_chipset_component/opensource/component_code/vendor/huawei/extra/build/build_script/kirin_kernel_release/kernel/include/uapi/asm-generic/siginfo.h"
	.file 50 "/home/jenkins1/slave_49/workspace/CHICAGO_B100_chipset_component/opensource/component_code/vendor/huawei/extra/build/build_script/kirin_kernel_release/kernel/include/linux/signal.h"
	.file 51 "/home/jenkins1/slave_49/workspace/CHICAGO_B100_chipset_component/opensource/component_code/vendor/huawei/extra/build/build_script/kirin_kernel_release/kernel/include/linux/pid.h"
	.file 52 "/home/jenkins1/slave_49/workspace/CHICAGO_B100_chipset_component/opensource/component_code/vendor/huawei/extra/build/build_script/kirin_kernel_release/kernel/include/linux/mmzone.h"
	.file 53 "/home/jenkins1/slave_49/workspace/CHICAGO_B100_chipset_component/opensource/component_code/vendor/huawei/extra/build/build_script/kirin_kernel_release/kernel/include/linux/mutex.h"
	.file 54 "/home/jenkins1/slave_49/workspace/CHICAGO_B100_chipset_component/opensource/component_code/vendor/huawei/extra/build/build_script/kirin_kernel_release/kernel/include/linux/timer.h"
	.file 55 "/home/jenkins1/slave_49/workspace/CHICAGO_B100_chipset_component/opensource/component_code/vendor/huawei/extra/build/build_script/kirin_kernel_release/kernel/include/linux/sysctl.h"
	.file 56 "/home/jenkins1/slave_49/workspace/CHICAGO_B100_chipset_component/opensource/component_code/vendor/huawei/extra/build/build_script/kirin_kernel_release/kernel/include/linux/nsproxy.h"
	.file 57 "/home/jenkins1/slave_49/workspace/CHICAGO_B100_chipset_component/opensource/component_code/vendor/huawei/extra/build/build_script/kirin_kernel_release/kernel/include/linux/workqueue.h"
	.file 58 "/home/jenkins1/slave_49/workspace/CHICAGO_B100_chipset_component/opensource/component_code/vendor/huawei/extra/build/build_script/kirin_kernel_release/kernel/include/linux/notifier.h"
	.file 59 "/home/jenkins1/slave_49/workspace/CHICAGO_B100_chipset_component/opensource/component_code/vendor/huawei/extra/build/build_script/kirin_kernel_release/kernel/include/linux/percpu_counter.h"
	.file 60 "/home/jenkins1/slave_49/workspace/CHICAGO_B100_chipset_component/opensource/component_code/vendor/huawei/extra/build/build_script/kirin_kernel_release/kernel/include/linux/seccomp.h"
	.file 61 "/home/jenkins1/slave_49/workspace/CHICAGO_B100_chipset_component/opensource/component_code/vendor/huawei/extra/build/build_script/kirin_kernel_release/kernel/include/uapi/linux/resource.h"
	.file 62 "/home/jenkins1/slave_49/workspace/CHICAGO_B100_chipset_component/opensource/component_code/vendor/huawei/extra/build/build_script/kirin_kernel_release/kernel/include/linux/timerqueue.h"
	.file 63 "/home/jenkins1/slave_49/workspace/CHICAGO_B100_chipset_component/opensource/component_code/vendor/huawei/extra/build/build_script/kirin_kernel_release/kernel/include/linux/hrtimer.h"
	.file 64 "/home/jenkins1/slave_49/workspace/CHICAGO_B100_chipset_component/opensource/component_code/vendor/huawei/extra/build/build_script/kirin_kernel_release/kernel/include/linux/task_io_accounting.h"
	.file 65 "/home/jenkins1/slave_49/workspace/CHICAGO_B100_chipset_component/opensource/component_code/vendor/huawei/extra/build/build_script/kirin_kernel_release/kernel/include/linux/assoc_array.h"
	.file 66 "/home/jenkins1/slave_49/workspace/CHICAGO_B100_chipset_component/opensource/component_code/vendor/huawei/extra/build/build_script/kirin_kernel_release/kernel/include/linux/key.h"
	.file 67 "/home/jenkins1/slave_49/workspace/CHICAGO_B100_chipset_component/opensource/component_code/vendor/huawei/extra/build/build_script/kirin_kernel_release/kernel/include/linux/cred.h"
	.file 68 "/home/jenkins1/slave_49/workspace/CHICAGO_B100_chipset_component/opensource/component_code/vendor/huawei/extra/build/build_script/kirin_kernel_release/kernel/include/linux/idr.h"
	.file 69 "/home/jenkins1/slave_49/workspace/CHICAGO_B100_chipset_component/opensource/component_code/vendor/huawei/extra/build/build_script/kirin_kernel_release/kernel/include/linux/percpu-refcount.h"
	.file 70 "/home/jenkins1/slave_49/workspace/CHICAGO_B100_chipset_component/opensource/component_code/vendor/huawei/extra/build/build_script/kirin_kernel_release/kernel/include/linux/rcu_sync.h"
	.file 71 "/home/jenkins1/slave_49/workspace/CHICAGO_B100_chipset_component/opensource/component_code/vendor/huawei/extra/build/build_script/kirin_kernel_release/kernel/include/linux/percpu-rwsem.h"
	.file 72 "/home/jenkins1/slave_49/workspace/CHICAGO_B100_chipset_component/opensource/component_code/vendor/huawei/extra/build/build_script/kirin_kernel_release/kernel/include/linux/cgroup-defs.h"
	.file 73 "/home/jenkins1/slave_49/workspace/CHICAGO_B100_chipset_component/opensource/component_code/vendor/huawei/extra/build/build_script/kirin_kernel_release/kernel/include/linux/kernfs.h"
	.file 74 "/home/jenkins1/slave_49/workspace/CHICAGO_B100_chipset_component/opensource/component_code/vendor/huawei/extra/build/build_script/kirin_kernel_release/kernel/include/linux/seq_file.h"
	.file 75 "/home/jenkins1/slave_49/workspace/CHICAGO_B100_chipset_component/opensource/component_code/vendor/huawei/extra/build/build_script/kirin_kernel_release/kernel/include/uapi/linux/taskstats.h"
	.file 76 "/home/jenkins1/slave_49/workspace/CHICAGO_B100_chipset_component/opensource/component_code/vendor/huawei/extra/build/build_script/kirin_kernel_release/kernel/include/linux/backing-dev-defs.h"
	.file 77 "/home/jenkins1/slave_49/workspace/CHICAGO_B100_chipset_component/opensource/component_code/vendor/huawei/extra/build/build_script/kirin_kernel_release/kernel/include/linux/compat.h"
	.file 78 "/home/jenkins1/slave_49/workspace/CHICAGO_B100_chipset_component/opensource/component_code/vendor/huawei/extra/build/build_script/kirin_kernel_release/kernel/include/linux/pipe_fs_i.h"
	.file 79 "/home/jenkins1/slave_49/workspace/CHICAGO_B100_chipset_component/opensource/component_code/vendor/huawei/extra/build/build_script/kirin_kernel_release/kernel/include/linux/stat.h"
	.file 80 "/home/jenkins1/slave_49/workspace/CHICAGO_B100_chipset_component/opensource/component_code/vendor/huawei/extra/build/build_script/kirin_kernel_release/kernel/include/uapi/linux/elf.h"
	.file 81 "/home/jenkins1/slave_49/workspace/CHICAGO_B100_chipset_component/opensource/component_code/vendor/huawei/extra/build/build_script/kirin_kernel_release/kernel/include/linux/kobject_ns.h"
	.file 82 "/home/jenkins1/slave_49/workspace/CHICAGO_B100_chipset_component/opensource/component_code/vendor/huawei/extra/build/build_script/kirin_kernel_release/kernel/include/net/sock.h"
	.file 83 "/home/jenkins1/slave_49/workspace/CHICAGO_B100_chipset_component/opensource/component_code/vendor/huawei/extra/build/build_script/kirin_kernel_release/kernel/include/linux/sysfs.h"
	.file 84 "/home/jenkins1/slave_49/workspace/CHICAGO_B100_chipset_component/opensource/component_code/vendor/huawei/extra/build/build_script/kirin_kernel_release/kernel/include/linux/kobject.h"
	.file 85 "/home/jenkins1/slave_49/workspace/CHICAGO_B100_chipset_component/opensource/component_code/vendor/huawei/extra/build/build_script/kirin_kernel_release/kernel/include/linux/kref.h"
	.file 86 "/home/jenkins1/slave_49/workspace/CHICAGO_B100_chipset_component/opensource/component_code/vendor/huawei/extra/build/build_script/kirin_kernel_release/kernel/include/linux/moduleparam.h"
	.file 87 "/home/jenkins1/slave_49/workspace/CHICAGO_B100_chipset_component/opensource/component_code/vendor/huawei/extra/build/build_script/kirin_kernel_release/kernel/include/linux/module.h"
	.file 88 "/home/jenkins1/slave_49/workspace/CHICAGO_B100_chipset_component/opensource/component_code/vendor/huawei/extra/build/build_script/kirin_kernel_release/kernel/include/linux/jump_label.h"
	.file 89 "/home/jenkins1/slave_49/workspace/CHICAGO_B100_chipset_component/opensource/component_code/vendor/huawei/extra/build/build_script/kirin_kernel_release/kernel/include/linux/rbtree_latch.h"
	.file 90 "/home/jenkins1/slave_49/workspace/CHICAGO_B100_chipset_component/opensource/component_code/vendor/huawei/extra/build/build_script/kirin_kernel_release/kernel/arch/arm64/include/asm/module.h"
	.file 91 "/home/jenkins1/slave_49/workspace/CHICAGO_B100_chipset_component/opensource/component_code/vendor/huawei/extra/build/build_script/kirin_kernel_release/kernel/arch/arm64/include/asm/uaccess.h"
	.file 92 "/home/jenkins1/slave_49/workspace/CHICAGO_B100_chipset_component/opensource/component_code/vendor/huawei/extra/build/build_script/kirin_kernel_release/kernel/include/linux/klist.h"
	.file 93 "/home/jenkins1/slave_49/workspace/CHICAGO_B100_chipset_component/opensource/component_code/vendor/huawei/extra/build/build_script/kirin_kernel_release/kernel/include/linux/pinctrl/devinfo.h"
	.file 94 "/home/jenkins1/slave_49/workspace/CHICAGO_B100_chipset_component/opensource/component_code/vendor/huawei/extra/build/build_script/kirin_kernel_release/kernel/include/linux/pm.h"
	.file 95 "/home/jenkins1/slave_49/workspace/CHICAGO_B100_chipset_component/opensource/component_code/vendor/huawei/extra/build/build_script/kirin_kernel_release/kernel/include/linux/device.h"
	.file 96 "/home/jenkins1/slave_49/workspace/CHICAGO_B100_chipset_component/opensource/component_code/vendor/huawei/extra/build/build_script/kirin_kernel_release/kernel/include/linux/pm_wakeup.h"
	.file 97 "/home/jenkins1/slave_49/workspace/CHICAGO_B100_chipset_component/opensource/component_code/vendor/huawei/extra/build/build_script/kirin_kernel_release/kernel/arch/arm64/include/asm/device.h"
	.file 98 "/home/jenkins1/slave_49/workspace/CHICAGO_B100_chipset_component/opensource/component_code/vendor/huawei/extra/build/build_script/kirin_kernel_release/kernel/include/linux/dma-mapping.h"
	.file 99 "/home/jenkins1/slave_49/workspace/CHICAGO_B100_chipset_component/opensource/component_code/vendor/huawei/extra/build/build_script/kirin_kernel_release/kernel/include/linux/mod_devicetable.h"
	.file 100 "/home/jenkins1/slave_49/workspace/CHICAGO_B100_chipset_component/opensource/component_code/vendor/huawei/extra/build/build_script/kirin_kernel_release/kernel/include/linux/of.h"
	.file 101 "/home/jenkins1/slave_49/workspace/CHICAGO_B100_chipset_component/opensource/component_code/vendor/huawei/extra/build/build_script/kirin_kernel_release/kernel/include/linux/fwnode.h"
	.file 102 "/home/jenkins1/slave_49/workspace/CHICAGO_B100_chipset_component/opensource/component_code/vendor/huawei/extra/build/build_script/kirin_kernel_release/kernel/include/uapi/linux/uio.h"
	.file 103 "/home/jenkins1/slave_49/workspace/CHICAGO_B100_chipset_component/opensource/component_code/vendor/huawei/extra/build/build_script/kirin_kernel_release/kernel/include/linux/uio.h"
	.file 104 "/home/jenkins1/slave_49/workspace/CHICAGO_B100_chipset_component/opensource/component_code/vendor/huawei/extra/build/build_script/kirin_kernel_release/kernel/include/linux/blk_types.h"
	.file 105 "/home/jenkins1/slave_49/workspace/CHICAGO_B100_chipset_component/opensource/component_code/vendor/huawei/extra/build/build_script/kirin_kernel_release/kernel/include/linux/shrinker.h"
	.file 106 "/home/jenkins1/slave_49/workspace/CHICAGO_B100_chipset_component/opensource/component_code/vendor/huawei/extra/build/build_script/kirin_kernel_release/kernel/include/linux/vmstat.h"
	.file 107 "/home/jenkins1/slave_49/workspace/CHICAGO_B100_chipset_component/opensource/component_code/vendor/huawei/extra/build/build_script/kirin_kernel_release/kernel/include/linux/scatterlist.h"
	.file 108 "/home/jenkins1/slave_49/workspace/CHICAGO_B100_chipset_component/opensource/component_code/vendor/huawei/extra/build/build_script/kirin_kernel_release/kernel/include/linux/dynamic_queue_limits.h"
	.file 109 "/home/jenkins1/slave_49/workspace/CHICAGO_B100_chipset_component/opensource/component_code/vendor/huawei/extra/build/build_script/kirin_kernel_release/kernel/include/uapi/linux/socket.h"
	.file 110 "/home/jenkins1/slave_49/workspace/CHICAGO_B100_chipset_component/opensource/component_code/vendor/huawei/extra/build/build_script/kirin_kernel_release/kernel/include/linux/socket.h"
	.file 111 "/home/jenkins1/slave_49/workspace/CHICAGO_B100_chipset_component/opensource/component_code/vendor/huawei/extra/build/build_script/kirin_kernel_release/kernel/include/uapi/linux/hdlc/ioctl.h"
	.file 112 "/home/jenkins1/slave_49/workspace/CHICAGO_B100_chipset_component/opensource/component_code/vendor/huawei/extra/build/build_script/kirin_kernel_release/kernel/include/uapi/linux/if.h"
	.file 113 "/home/jenkins1/slave_49/workspace/CHICAGO_B100_chipset_component/opensource/component_code/vendor/huawei/extra/build/build_script/kirin_kernel_release/kernel/include/linux/list_bl.h"
	.file 114 "/home/jenkins1/slave_49/workspace/CHICAGO_B100_chipset_component/opensource/component_code/vendor/huawei/extra/build/build_script/kirin_kernel_release/kernel/include/linux/lockref.h"
	.file 115 "/home/jenkins1/slave_49/workspace/CHICAGO_B100_chipset_component/opensource/component_code/vendor/huawei/extra/build/build_script/kirin_kernel_release/kernel/include/linux/dcache.h"
	.file 116 "/home/jenkins1/slave_49/workspace/CHICAGO_B100_chipset_component/opensource/component_code/vendor/huawei/extra/build/build_script/kirin_kernel_release/kernel/include/linux/path.h"
	.file 117 "/home/jenkins1/slave_49/workspace/CHICAGO_B100_chipset_component/opensource/component_code/vendor/huawei/extra/build/build_script/kirin_kernel_release/kernel/include/linux/list_lru.h"
	.file 118 "/home/jenkins1/slave_49/workspace/CHICAGO_B100_chipset_component/opensource/component_code/vendor/huawei/extra/build/build_script/kirin_kernel_release/kernel/include/linux/radix-tree.h"
	.file 119 "/home/jenkins1/slave_49/workspace/CHICAGO_B100_chipset_component/opensource/component_code/vendor/huawei/extra/build/build_script/kirin_kernel_release/kernel/include/uapi/linux/fiemap.h"
	.file 120 "/home/jenkins1/slave_49/workspace/CHICAGO_B100_chipset_component/opensource/component_code/vendor/huawei/extra/build/build_script/kirin_kernel_release/kernel/include/linux/migrate_mode.h"
	.file 121 "/home/jenkins1/slave_49/workspace/CHICAGO_B100_chipset_component/opensource/component_code/vendor/huawei/extra/build/build_script/kirin_kernel_release/kernel/include/linux/quota.h"
	.file 122 "/home/jenkins1/slave_49/workspace/CHICAGO_B100_chipset_component/opensource/component_code/vendor/huawei/extra/build/build_script/kirin_kernel_release/kernel/include/linux/projid.h"
	.file 123 "/home/jenkins1/slave_49/workspace/CHICAGO_B100_chipset_component/opensource/component_code/vendor/huawei/extra/build/build_script/kirin_kernel_release/kernel/include/linux/writeback.h"
	.file 124 "/home/jenkins1/slave_49/workspace/CHICAGO_B100_chipset_component/opensource/component_code/vendor/huawei/extra/build/build_script/kirin_kernel_release/kernel/include/linux/nfs_fs_i.h"
	.file 125 "/home/jenkins1/slave_49/workspace/CHICAGO_B100_chipset_component/opensource/component_code/vendor/huawei/extra/build/build_script/kirin_kernel_release/kernel/include/linux/poll.h"
	.file 126 "/home/jenkins1/slave_49/workspace/CHICAGO_B100_chipset_component/opensource/component_code/vendor/huawei/extra/build/build_script/kirin_kernel_release/kernel/include/linux/stddef.h"
	.file 127 "/home/jenkins1/slave_49/workspace/CHICAGO_B100_chipset_component/opensource/component_code/vendor/huawei/extra/build/build_script/kirin_kernel_release/kernel/include/uapi/linux/net.h"
	.file 128 "/home/jenkins1/slave_49/workspace/CHICAGO_B100_chipset_component/opensource/component_code/vendor/huawei/extra/build/build_script/kirin_kernel_release/kernel/include/linux/net.h"
	.file 129 "/home/jenkins1/slave_49/workspace/CHICAGO_B100_chipset_component/opensource/component_code/vendor/huawei/extra/build/build_script/kirin_kernel_release/kernel/include/net/net_namespace.h"
	.file 130 "/home/jenkins1/slave_49/workspace/CHICAGO_B100_chipset_component/opensource/component_code/vendor/huawei/extra/build/build_script/kirin_kernel_release/kernel/include/linux/dma-attrs.h"
	.file 131 "/home/jenkins1/slave_49/workspace/CHICAGO_B100_chipset_component/opensource/component_code/vendor/huawei/extra/build/build_script/kirin_kernel_release/kernel/include/linux/dma-direction.h"
	.file 132 "/home/jenkins1/slave_49/workspace/CHICAGO_B100_chipset_component/opensource/component_code/vendor/huawei/extra/build/build_script/kirin_kernel_release/kernel/include/linux/netdev_features.h"
	.file 133 "/home/jenkins1/slave_49/workspace/CHICAGO_B100_chipset_component/opensource/component_code/vendor/huawei/extra/build/build_script/kirin_kernel_release/kernel/include/uapi/linux/in6.h"
	.file 134 "/home/jenkins1/slave_49/workspace/CHICAGO_B100_chipset_component/opensource/component_code/vendor/huawei/extra/build/build_script/kirin_kernel_release/kernel/include/uapi/linux/if_ether.h"
	.file 135 "/home/jenkins1/slave_49/workspace/CHICAGO_B100_chipset_component/opensource/component_code/vendor/huawei/extra/build/build_script/kirin_kernel_release/kernel/include/net/flow_dissector.h"
	.file 136 "/home/jenkins1/slave_49/workspace/CHICAGO_B100_chipset_component/opensource/component_code/vendor/huawei/extra/build/build_script/kirin_kernel_release/kernel/include/net/flow.h"
	.file 137 "/home/jenkins1/slave_49/workspace/CHICAGO_B100_chipset_component/opensource/component_code/vendor/huawei/extra/build/build_script/kirin_kernel_release/kernel/include/linux/skbuff.h"
	.file 138 "/home/jenkins1/slave_49/workspace/CHICAGO_B100_chipset_component/opensource/component_code/vendor/huawei/extra/build/build_script/kirin_kernel_release/kernel/include/linux/netdevice.h"
	.file 139 "/home/jenkins1/slave_49/workspace/CHICAGO_B100_chipset_component/opensource/component_code/vendor/huawei/extra/build/build_script/kirin_kernel_release/kernel/include/uapi/linux/ethtool.h"
	.file 140 "/home/jenkins1/slave_49/workspace/CHICAGO_B100_chipset_component/opensource/component_code/vendor/huawei/extra/build/build_script/kirin_kernel_release/kernel/include/linux/ethtool.h"
	.file 141 "/home/jenkins1/slave_49/workspace/CHICAGO_B100_chipset_component/opensource/component_code/vendor/huawei/extra/build/build_script/kirin_kernel_release/kernel/include/net/netns/core.h"
	.file 142 "/home/jenkins1/slave_49/workspace/CHICAGO_B100_chipset_component/opensource/component_code/vendor/huawei/extra/build/build_script/kirin_kernel_release/kernel/include/linux/u64_stats_sync.h"
	.file 143 "/home/jenkins1/slave_49/workspace/CHICAGO_B100_chipset_component/opensource/component_code/vendor/huawei/extra/build/build_script/kirin_kernel_release/kernel/include/net/snmp.h"
	.file 144 "/home/jenkins1/slave_49/workspace/CHICAGO_B100_chipset_component/opensource/component_code/vendor/huawei/extra/build/build_script/kirin_kernel_release/kernel/include/net/netns/mib.h"
	.file 145 "/home/jenkins1/slave_49/workspace/CHICAGO_B100_chipset_component/opensource/component_code/vendor/huawei/extra/build/build_script/kirin_kernel_release/kernel/include/net/netns/unix.h"
	.file 146 "/home/jenkins1/slave_49/workspace/CHICAGO_B100_chipset_component/opensource/component_code/vendor/huawei/extra/build/build_script/kirin_kernel_release/kernel/include/net/netns/packet.h"
	.file 147 "/home/jenkins1/slave_49/workspace/CHICAGO_B100_chipset_component/opensource/component_code/vendor/huawei/extra/build/build_script/kirin_kernel_release/kernel/include/net/inet_frag.h"
	.file 148 "/home/jenkins1/slave_49/workspace/CHICAGO_B100_chipset_component/opensource/component_code/vendor/huawei/extra/build/build_script/kirin_kernel_release/kernel/include/net/netns/ipv4.h"
	.file 149 "/home/jenkins1/slave_49/workspace/CHICAGO_B100_chipset_component/opensource/component_code/vendor/huawei/extra/build/build_script/kirin_kernel_release/kernel/include/net/dst_ops.h"
	.file 150 "/home/jenkins1/slave_49/workspace/CHICAGO_B100_chipset_component/opensource/component_code/vendor/huawei/extra/build/build_script/kirin_kernel_release/kernel/include/net/dst.h"
	.file 151 "/home/jenkins1/slave_49/workspace/CHICAGO_B100_chipset_component/opensource/component_code/vendor/huawei/extra/build/build_script/kirin_kernel_release/kernel/include/net/neighbour.h"
	.file 152 "/home/jenkins1/slave_49/workspace/CHICAGO_B100_chipset_component/opensource/component_code/vendor/huawei/extra/build/build_script/kirin_kernel_release/kernel/include/net/netns/ipv6.h"
	.file 153 "/home/jenkins1/slave_49/workspace/CHICAGO_B100_chipset_component/opensource/component_code/vendor/huawei/extra/build/build_script/kirin_kernel_release/kernel/include/uapi/linux/netfilter.h"
	.file 154 "/home/jenkins1/slave_49/workspace/CHICAGO_B100_chipset_component/opensource/component_code/vendor/huawei/extra/build/build_script/kirin_kernel_release/kernel/include/net/netns/netfilter.h"
	.file 155 "/home/jenkins1/slave_49/workspace/CHICAGO_B100_chipset_component/opensource/component_code/vendor/huawei/extra/build/build_script/kirin_kernel_release/kernel/include/net/netns/x_tables.h"
	.file 156 "/home/jenkins1/slave_49/workspace/CHICAGO_B100_chipset_component/opensource/component_code/vendor/huawei/extra/build/build_script/kirin_kernel_release/kernel/include/linux/list_nulls.h"
	.file 157 "/home/jenkins1/slave_49/workspace/CHICAGO_B100_chipset_component/opensource/component_code/vendor/huawei/extra/build/build_script/kirin_kernel_release/kernel/include/uapi/linux/netfilter/nf_conntrack_tcp.h"
	.file 158 "/home/jenkins1/slave_49/workspace/CHICAGO_B100_chipset_component/opensource/component_code/vendor/huawei/extra/build/build_script/kirin_kernel_release/kernel/include/net/netns/conntrack.h"
	.file 159 "/home/jenkins1/slave_49/workspace/CHICAGO_B100_chipset_component/opensource/component_code/vendor/huawei/extra/build/build_script/kirin_kernel_release/kernel/include/net/netns/nftables.h"
	.file 160 "/home/jenkins1/slave_49/workspace/CHICAGO_B100_chipset_component/opensource/component_code/vendor/huawei/extra/build/build_script/kirin_kernel_release/kernel/include/uapi/linux/xfrm.h"
	.file 161 "/home/jenkins1/slave_49/workspace/CHICAGO_B100_chipset_component/opensource/component_code/vendor/huawei/extra/build/build_script/kirin_kernel_release/kernel/include/linux/interrupt.h"
	.file 162 "/home/jenkins1/slave_49/workspace/CHICAGO_B100_chipset_component/opensource/component_code/vendor/huawei/extra/build/build_script/kirin_kernel_release/kernel/include/net/flowcache.h"
	.file 163 "/home/jenkins1/slave_49/workspace/CHICAGO_B100_chipset_component/opensource/component_code/vendor/huawei/extra/build/build_script/kirin_kernel_release/kernel/include/net/netns/xfrm.h"
	.file 164 "/home/jenkins1/slave_49/workspace/CHICAGO_B100_chipset_component/opensource/component_code/vendor/huawei/extra/build/build_script/kirin_kernel_release/kernel/include/linux/ns_common.h"
	.file 165 "/home/jenkins1/slave_49/workspace/CHICAGO_B100_chipset_component/opensource/component_code/vendor/huawei/extra/build/build_script/kirin_kernel_release/kernel/include/linux/phy.h"
	.file 166 "/home/jenkins1/slave_49/workspace/CHICAGO_B100_chipset_component/opensource/component_code/vendor/huawei/extra/build/build_script/kirin_kernel_release/kernel/include/uapi/linux/netlink.h"
	.file 167 "/home/jenkins1/slave_49/workspace/CHICAGO_B100_chipset_component/opensource/component_code/vendor/huawei/extra/build/build_script/kirin_kernel_release/kernel/include/linux/netlink.h"
	.file 168 "/home/jenkins1/slave_49/workspace/CHICAGO_B100_chipset_component/opensource/component_code/vendor/huawei/extra/build/build_script/kirin_kernel_release/kernel/include/uapi/linux/neighbour.h"
	.file 169 "/home/jenkins1/slave_49/workspace/CHICAGO_B100_chipset_component/opensource/component_code/vendor/huawei/extra/build/build_script/kirin_kernel_release/kernel/include/uapi/linux/if_link.h"
	.file 170 "/home/jenkins1/slave_49/workspace/CHICAGO_B100_chipset_component/opensource/component_code/vendor/huawei/extra/build/build_script/kirin_kernel_release/kernel/include/linux/if_link.h"
	.file 171 "/home/jenkins1/slave_49/workspace/CHICAGO_B100_chipset_component/opensource/component_code/vendor/huawei/extra/build/build_script/kirin_kernel_release/kernel/include/net/sch_generic.h"
	.file 172 "/home/jenkins1/slave_49/workspace/CHICAGO_B100_chipset_component/opensource/component_code/vendor/huawei/extra/build/build_script/kirin_kernel_release/kernel/include/net/rtnetlink.h"
	.file 173 "/home/jenkins1/slave_49/workspace/CHICAGO_B100_chipset_component/opensource/component_code/vendor/huawei/extra/build/build_script/kirin_kernel_release/kernel/include/linux/netfilter.h"
	.file 174 "/home/jenkins1/slave_49/workspace/CHICAGO_B100_chipset_component/opensource/component_code/vendor/huawei/extra/build/build_script/kirin_kernel_release/kernel/include/linux/page_counter.h"
	.file 175 "/home/jenkins1/slave_49/workspace/CHICAGO_B100_chipset_component/opensource/component_code/vendor/huawei/extra/build/build_script/kirin_kernel_release/kernel/include/linux/flex_proportions.h"
	.file 176 "/home/jenkins1/slave_49/workspace/CHICAGO_B100_chipset_component/opensource/component_code/vendor/huawei/extra/build/build_script/kirin_kernel_release/kernel/include/linux/memcontrol.h"
	.file 177 "/home/jenkins1/slave_49/workspace/CHICAGO_B100_chipset_component/opensource/component_code/vendor/huawei/extra/build/build_script/kirin_kernel_release/kernel/include/uapi/linux/pkt_sched.h"
	.file 178 "/home/jenkins1/slave_49/workspace/CHICAGO_B100_chipset_component/opensource/component_code/vendor/huawei/extra/build/build_script/kirin_kernel_release/kernel/include/uapi/linux/gen_stats.h"
	.file 179 "/home/jenkins1/slave_49/workspace/CHICAGO_B100_chipset_component/opensource/component_code/vendor/huawei/extra/build/build_script/kirin_kernel_release/kernel/include/uapi/linux/rtnetlink.h"
	.file 180 "/home/jenkins1/slave_49/workspace/CHICAGO_B100_chipset_component/opensource/component_code/vendor/huawei/extra/build/build_script/kirin_kernel_release/kernel/include/net/gen_stats.h"
	.file 181 "/home/jenkins1/slave_49/workspace/CHICAGO_B100_chipset_component/opensource/component_code/vendor/huawei/extra/build/build_script/kirin_kernel_release/kernel/include/net/netlink.h"
	.file 182 "/home/jenkins1/slave_49/workspace/CHICAGO_B100_chipset_component/opensource/component_code/vendor/huawei/extra/build/build_script/kirin_kernel_release/kernel/include/uapi/linux/filter.h"
	.file 183 "/home/jenkins1/slave_49/workspace/CHICAGO_B100_chipset_component/opensource/component_code/vendor/huawei/extra/build/build_script/kirin_kernel_release/kernel/include/uapi/linux/bpf.h"
	.file 184 "/home/jenkins1/slave_49/workspace/CHICAGO_B100_chipset_component/opensource/component_code/vendor/huawei/extra/build/build_script/kirin_kernel_release/kernel/include/linux/filter.h"
	.file 185 "/home/jenkins1/slave_49/workspace/CHICAGO_B100_chipset_component/opensource/component_code/vendor/huawei/extra/build/build_script/kirin_kernel_release/kernel/include/huawei_platform/emcom/smartcare/network_measurement/nm_types.h"
	.file 186 "/home/jenkins1/slave_49/workspace/CHICAGO_B100_chipset_component/opensource/component_code/vendor/huawei/extra/build/build_script/kirin_kernel_release/kernel/include/net/inet_timewait_sock.h"
	.file 187 "/home/jenkins1/slave_49/workspace/CHICAGO_B100_chipset_component/opensource/component_code/vendor/huawei/extra/build/build_script/kirin_kernel_release/kernel/include/net/request_sock.h"
	.file 188 "/home/jenkins1/slave_49/workspace/CHICAGO_B100_chipset_component/opensource/component_code/vendor/huawei/extra/build/build_script/kirin_kernel_release/kernel/include/net/timewait_sock.h"
	.file 189 "/home/jenkins1/slave_49/workspace/CHICAGO_B100_chipset_component/opensource/component_code/vendor/huawei/extra/build/build_script/kirin_kernel_release/kernel/include/huawei_platform/log/hw_log.h"
	.file 190 "/home/jenkins1/slave_49/workspace/CHICAGO_B100_chipset_component/opensource/component_code/vendor/huawei/extra/build/build_script/kirin_kernel_release/kernel/drivers/huawei_platform/net/hw_netfilter/nf_app_dl_monitor.h"
	.file 191 "/home/jenkins1/slave_49/workspace/CHICAGO_B100_chipset_component/opensource/component_code/vendor/huawei/extra/build/build_script/kirin_kernel_release/kernel/include/asm-generic/bitops/builtin-__fls.h"
	.file 192 "/home/jenkins1/slave_49/workspace/CHICAGO_B100_chipset_component/opensource/component_code/vendor/huawei/extra/build/build_script/kirin_kernel_release/kernel/include/asm-generic/bitops/fls64.h"
	.file 193 "/home/jenkins1/slave_49/workspace/CHICAGO_B100_chipset_component/opensource/component_code/vendor/huawei/extra/build/build_script/kirin_kernel_release/kernel/include/linux/log2.h"
	.file 194 "/home/jenkins1/slave_49/workspace/CHICAGO_B100_chipset_component/opensource/component_code/vendor/huawei/extra/build/build_script/kirin_kernel_release/kernel/include/asm-generic/getorder.h"
	.file 195 "/home/jenkins1/slave_49/workspace/CHICAGO_B100_chipset_component/opensource/component_code/vendor/huawei/extra/build/build_script/kirin_kernel_release/kernel/include/huawei_platform/emcom/argo/tcp_argo.h"
	.file 196 "/home/jenkins1/slave_49/workspace/CHICAGO_B100_chipset_component/opensource/component_code/vendor/huawei/extra/build/build_script/kirin_kernel_release/kernel/arch/arm64/include/asm/cachetype.h"
	.file 197 "/home/jenkins1/slave_49/workspace/CHICAGO_B100_chipset_component/opensource/component_code/vendor/huawei/extra/build/build_script/kirin_kernel_release/kernel/include/linux/printk.h"
	.file 198 "/home/jenkins1/slave_49/workspace/CHICAGO_B100_chipset_component/opensource/component_code/vendor/huawei/extra/build/build_script/kirin_kernel_release/kernel/include/linux/kernel.h"
	.file 199 "/home/jenkins1/slave_49/workspace/CHICAGO_B100_chipset_component/opensource/component_code/vendor/huawei/extra/build/build_script/kirin_kernel_release/kernel/arch/arm64/include/asm/thread_info.h"
	.file 200 "/home/jenkins1/slave_49/workspace/CHICAGO_B100_chipset_component/opensource/component_code/vendor/huawei/extra/build/build_script/kirin_kernel_release/kernel/include/chipset_common/kernel_harden/kaslr.h"
	.file 201 "/home/jenkins1/slave_49/workspace/CHICAGO_B100_chipset_component/opensource/component_code/vendor/huawei/extra/build/build_script/kirin_kernel_release/kernel/arch/arm64/include/asm/hwcap.h"
	.file 202 "/home/jenkins1/slave_49/workspace/CHICAGO_B100_chipset_component/opensource/component_code/vendor/huawei/extra/build/build_script/kirin_kernel_release/kernel/arch/arm64/include/asm/cpufeature.h"
	.file 203 "/home/jenkins1/slave_49/workspace/CHICAGO_B100_chipset_component/opensource/component_code/vendor/huawei/extra/build/build_script/kirin_kernel_release/kernel/include/linux/jiffies.h"
	.file 204 "/home/jenkins1/slave_49/workspace/CHICAGO_B100_chipset_component/opensource/component_code/vendor/huawei/extra/build/build_script/kirin_kernel_release/kernel/arch/arm64/include/asm/memory.h"
	.file 205 "/home/jenkins1/slave_49/workspace/CHICAGO_B100_chipset_component/opensource/component_code/vendor/huawei/extra/build/build_script/kirin_kernel_release/kernel/include/linux/highuid.h"
	.file 206 "/home/jenkins1/slave_49/workspace/CHICAGO_B100_chipset_component/opensource/component_code/vendor/huawei/extra/build/build_script/kirin_kernel_release/kernel/include/asm-generic/percpu.h"
	.file 207 "/home/jenkins1/slave_49/workspace/CHICAGO_B100_chipset_component/opensource/component_code/vendor/huawei/extra/build/build_script/kirin_kernel_release/kernel/include/asm-generic/pgtable.h"
	.file 208 "/home/jenkins1/slave_49/workspace/CHICAGO_B100_chipset_component/opensource/component_code/vendor/huawei/extra/build/build_script/kirin_kernel_release/kernel/include/linux/debug_locks.h"
	.file 209 "/home/jenkins1/slave_49/workspace/CHICAGO_B100_chipset_component/opensource/component_code/vendor/huawei/extra/build/build_script/kirin_kernel_release/kernel/arch/arm64/include/../../arm/include/asm/xen/hypervisor.h"
	.file 210 "/home/jenkins1/slave_49/workspace/CHICAGO_B100_chipset_component/opensource/component_code/vendor/huawei/extra/build/build_script/kirin_kernel_release/kernel/arch/arm64/include/asm/dma-mapping.h"
	.file 211 "/home/jenkins1/slave_49/workspace/CHICAGO_B100_chipset_component/opensource/component_code/vendor/huawei/extra/build/build_script/kirin_kernel_release/kernel/arch/arm64/include/asm/irq.h"
	.file 212 "/home/jenkins1/slave_49/workspace/CHICAGO_B100_chipset_component/opensource/component_code/vendor/huawei/extra/build/build_script/kirin_kernel_release/kernel/arch/arm64/include/asm/hardirq.h"
	.file 213 "/home/jenkins1/slave_49/workspace/CHICAGO_B100_chipset_component/opensource/component_code/vendor/huawei/extra/build/build_script/kirin_kernel_release/kernel/include/linux/cgroup.h"
	.file 214 "/home/jenkins1/slave_49/workspace/CHICAGO_B100_chipset_component/opensource/component_code/vendor/huawei/extra/build/build_script/kirin_kernel_release/kernel/include/net/inet_connection_sock.h"
	.file 215 "/home/jenkins1/slave_49/workspace/CHICAGO_B100_chipset_component/opensource/component_code/vendor/huawei/extra/build/build_script/kirin_kernel_release/kernel/include/linux/ctype.h"
	.file 216 "/home/jenkins1/slave_49/workspace/CHICAGO_B100_chipset_component/opensource/component_code/vendor/huawei/extra/build/build_script/kirin_kernel_release/kernel/include/linux/spinlock_api_smp.h"
	.file 217 "/home/jenkins1/slave_49/workspace/CHICAGO_B100_chipset_component/opensource/component_code/vendor/huawei/extra/build/build_script/kirin_kernel_release/kernel/drivers/huawei_platform/net/hw_netfilter/nf_hw_common.h"
	.file 218 "/home/jenkins1/slave_49/workspace/CHICAGO_B100_chipset_component/opensource/component_code/vendor/huawei/extra/build/build_script/kirin_kernel_release/kernel/arch/arm64/include/asm/string.h"
	.file 219 "/home/jenkins1/slave_49/workspace/CHICAGO_B100_chipset_component/opensource/component_code/vendor/huawei/extra/build/build_script/kirin_kernel_release/kernel/include/asm-generic/delay.h"
	.file 220 "<built-in>"
	.section	.note.GNU-stack,"",%progbits
