	.cpu generic+fp+simd
	.file	"hevc.c"
	.text
.Ltext0:
	.cfi_sections	.debug_frame
#APP
	.irp	num,0,1,2,3,4,5,6,7,8,9,10,11,12,13,14,15,16,17,18,19,20,21,22,23,24,25,26,27,28,29,30
	.equ	.L__reg_num_x\num, \num
	.endr
	.equ	.L__reg_num_xzr, 31

	.macro	mrs_s, rt, sreg
	.inst	0xd5200000|(\sreg)|(.L__reg_num_\rt)
	.endm

	.macro	msr_s, sreg, rt
	.inst	0xd5000000|(\sreg)|(.L__reg_num_\rt)
	.endm

#NO_APP
	.align	2
	.type	compare_pic_by_poc_asc, %function
compare_pic_by_poc_asc:
.LFB2389:
	.file 1 "/home/jenkins1/slave_49/workspace/CHICAGO_B100_chipset_component/opensource/component_code/vendor/huawei/extra/build/build_script/kirin_kernel_release/kernel/drivers/vcodec/hi_vcodec/vdec/vfmw/vfmw_v4.0/firmware/common/syntax/hevc.c"
	.loc 1 6377 0
	.cfi_startproc
.LVL0:
	.loc 1 6378 0
	ldr	x2, [x0]
	ldr	x0, [x1]
.LVL1:
	ldr	w2, [x2,12]
	ldr	w1, [x0,12]
.LVL2:
	cmp	w2, w1
	.loc 1 6383 0
	cset	w0, gt
	cmp	w2, w1
	csinv	w0, w0, wzr, ge
	.loc 1 6391 0
	ret
	.cfi_endproc
.LFE2389:
	.size	compare_pic_by_poc_asc, .-compare_pic_by_poc_asc
	.align	2
	.type	HEVC_SetFrmRepeatCount.part.3, %function
HEVC_SetFrmRepeatCount.part.3:
.LFB2482:
	.loc 1 7085 0
	.cfi_startproc
.LVL3:
	.loc 1 7089 0
	ldr	w4, [x0,2672]
	ldr	w3, [x0,272]
	ldr	w2, [x0,268]
	add	w3, w4, w3
	add	w4, w3, 1
	cmp	w2, w4
	bcc	.L5
	sub	w2, w2, #1
	.loc 1 7091 0
	sub	w2, w2, w3
	cmp	w2, 1
	bls	.L6
	.loc 1 7093 0
	mov	w2, 2
	str	w2, [x1,24]
	.loc 1 7094 0
	ldr	w1, [x0,272]
.LVL4:
	add	w1, w1, w2
	str	w1, [x0,272]
	.loc 1 7113 0
	ret
.LVL5:
.L5:
	.loc 1 7104 0
	str	wzr, [x1,24]
	.loc 1 7113 0
	ret
.L6:
	.loc 1 7098 0
	mov	w2, 1
	str	w2, [x1,24]
	.loc 1 7099 0
	ldr	w1, [x0,272]
.LVL6:
	add	w1, w1, w2
	str	w1, [x0,272]
	.loc 1 7113 0
	ret
	.cfi_endproc
.LFE2482:
	.size	HEVC_SetFrmRepeatCount.part.3, .-HEVC_SetFrmRepeatCount.part.3
	.align	2
	.global	HEVC_InitSigLastScan
	.type	HEVC_InitSigLastScan, %function
HEVC_InitSigLastScan:
.LFB2316:
	.loc 1 125 0
	.cfi_startproc
.LVL7:
	.loc 1 137 0
	cmp	w5, 15
	.loc 1 135 0
	mul	w10, w5, w5
.LVL8:
	.loc 1 137 0
	ble	.L10
.L24:
	.loc 1 169 0
	asr	w14, w5, 2
.LVL9:
	.loc 1 171 0
	add	x1, x0, x14, uxtw
.LVL10:
	ldrsb	w10, [x1,10]
.LVL11:
	.loc 1 170 0
	mul	w3, w14, w14
.LVL12:
	.loc 1 171 0
	add	w2, w10, 1
.LVL13:
	.loc 1 173 0 discriminator 1
	cbz	w3, .L9
.LVL14:
.L11:
	sub	w3, w3, #1
.LVL15:
	mov	x6, 10900
.LVL16:
	add	x1, x3, 16384
	mov	w11, 16384
	add	x1, x1, 2726
	sxtw	x10, w2
.LVL17:
	movk	x6, 0x1, lsl 16
	mov	w8, 65536
	smaddl	x12, w2, w11, x1
	neg	x15, x10, lsl 16
	mov	w10, 1
	smaddl	x8, w2, w8, x6
	sub	x15, x15, #73728
	.loc 1 169 0
	mov	w9, 0
	add	x13, x0, x8
	sub	x15, x15, #2388
	add	x0, x0, x12, lsl 2
.LVL18:
	sub	w10, w10, w5
.LVL19:
.L33:
	.loc 1 178 0
	cmp	w5, 32
	.loc 1 176 0
	ldr	w12, [x13]
.LVL20:
	.loc 1 178 0
	beq	.L64
.L25:
.LVL21:
	.loc 1 183 0
	udiv	w2, w12, w14
.LVL22:
	.loc 1 188 0
	mov	w11, 0
	.loc 1 175 0
	mov	w1, 0
	.loc 1 185 0
	mov	w8, 0
	.loc 1 188 0
	mov	w3, 0
	madd	w12, w2, w5, w12
.LVL23:
	.loc 1 185 0
	msub	w12, w2, w14, w12
	lsl	w12, w12, 2
.LVL24:
.L26:
	.loc 1 199 0
	cmp	w8, 3
	bgt	.L27
	tbnz	w3, #31, .L27
.LVL25:
	madd	w2, w5, w3, w8
	sub	w8, w8, w1
	add	w2, w2, w12
	b	.L28
.LVL26:
.L65:
	tbnz	w3, #31, .L27
.LVL27:
.L28:
	add	w6, w1, w9
	.loc 1 202 0
	add	w1, w1, 1
	add	w7, w8, w1
.LVL28:
	.loc 1 204 0
	sub	w3, w3, #1
	.loc 1 199 0
	cmp	w7, 3
	.loc 1 201 0
	str	w2, [x4,w6,uxtw 2]
	add	w2, w2, w10
	.loc 1 199 0
	ble	.L65
.LVL29:
.L27:
	.loc 1 188 0 discriminator 1
	cmp	w1, 15
	.loc 1 188 0 is_stmt 0 discriminator 2
	add	w11, w11, 1
	.loc 1 188 0 discriminator 1
	bhi	.L30
	.loc 1 193 0 is_stmt 1
	cmp	w11, 3
	ble	.L66
	sub	w8, w11, #3
	.loc 1 196 0
	mov	w3, 3
	b	.L26
.L30:
	add	x13, x13, 4
	add	w9, w9, 16
	.loc 1 173 0 discriminator 1
	cmp	x13, x0
	bne	.L33
.LVL30:
.L9:
	.loc 1 213 0
	ret
.LVL31:
.L64:
	.loc 1 180 0
	ldr	w12, [x13,x15]
	b	.L25
.LVL32:
.L10:
	.loc 1 141 0
	cmp	w5, 8
	beq	.L67
	.loc 1 139 0
	mov	x2, x4
.LVL33:
	.loc 1 146 0 discriminator 1
	cbz	w10, .L16
.L14:
	mov	w1, 1
.LVL34:
	.loc 1 139 0
	mov	w3, 0
.LVL35:
	mov	w8, 0
	sub	w1, w1, w5
.L21:
	.loc 1 151 0
	cmp	w5, w8
	mov	w12, w8
	mov	w6, 0
.LVL36:
	bgt	.L23
.L50:
	.loc 1 154 0
	sub	w12, w12, #1
	.loc 1 153 0
	add	w6, w6, 1
	.loc 1 151 0
	cmp	w5, w12
	ble	.L50
.L23:
	.loc 1 157 0
	cmp	w5, w6
	ble	.L18
	tbnz	w12, #31, .L18
.LVL37:
	madd	w7, w5, w12, w6
	sub	w6, w6, w3
	b	.L19
.L68:
	tbnz	w12, #31, .L18
.L19:
	.loc 1 159 0
	str	w7, [x2,w3,uxtw 2]
	.loc 1 160 0
	add	w3, w3, 1
	add	w9, w6, w3
	.loc 1 162 0
	sub	w12, w12, #1
	.loc 1 157 0
	cmp	w5, w9
	add	w7, w7, w1
	bgt	.L68
.LVL38:
.L18:
	.loc 1 146 0 discriminator 1
	cmp	w10, w3
	.loc 1 146 0 is_stmt 0 discriminator 2
	add	w8, w8, 1
	.loc 1 146 0 discriminator 1
	bhi	.L21
.LVL39:
.L16:
	.loc 1 167 0 is_stmt 1
	cmp	w5, 4
	bgt	.L24
	.loc 1 213 0
	ret
.LVL40:
.L67:
	.loc 1 143 0
	add	x2, x0, 320
.LVL41:
	.loc 1 146 0 discriminator 1
	cbnz	w10, .L14
	.loc 1 171 0
	ldrsb	w1, [x0,12]
.LVL42:
	.loc 1 170 0
	mov	w3, 4
.LVL43:
	.loc 1 169 0
	mov	w14, 2
.LVL44:
	.loc 1 171 0
	add	w2, w1, 1
.LVL45:
	b	.L11
.LVL46:
.L66:
	.loc 1 193 0
	mov	w3, w11
	mov	w8, 0
	b	.L26
	.cfi_endproc
.LFE2316:
	.size	HEVC_InitSigLastScan, .-HEVC_InitSigLastScan
	.align	2
	.global	HEVC_InitScalingOrderTable
	.type	HEVC_InitScalingOrderTable, %function
HEVC_InitScalingOrderTable:
.LFB2315:
	.loc 1 88 0
	.cfi_startproc
.LVL47:
	stp	x29, x30, [sp, -48]!
	.cfi_def_cfa_offset 48
	.cfi_offset 29, -48
	.cfi_offset 30, -40
	.loc 1 93 0
	mov	w2, -1
	.loc 1 88 0
	add	x29, sp, 0
	.cfi_def_cfa_register 29
	stp	x21, x22, [sp,32]
	.cfi_offset 21, -16
	.cfi_offset 22, -8
	mov	x22, x0
	add	x0, x0, 10
.LVL48:
	stp	x19, x20, [sp,16]
	.cfi_offset 19, -32
	.cfi_offset 20, -24
	add	x1, x22, 139
.L70:
	.loc 1 93 0
	strb	w2, [x0],1
	.loc 1 91 0 discriminator 1
	cmp	x0, x1
	bne	.L70
	.loc 1 108 0
	mov	w0, 1
	strb	w0, [x22,18]
	mov	w0, 2
	add	x21, x22, 73728
	strb	w0, [x22,26]
	mov	w0, 3
	strb	wzr, [x22,14]
	add	x21, x21, 2708
	strb	w0, [x22,42]
	mov	w20, 2
.LVL49:
	mov	w0, 4
	mov	w19, 0
.LVL50:
	strb	w0, [x22,74]
.L71:
	.loc 1 116 0
	mov	x4, x21
	mov	w5, w20
	mov	w6, w20
	mov	w7, w19
	mov	x0, x22
	mov	x1, 0
	mov	x2, 0
	mov	x3, 0
	.loc 1 114 0 discriminator 3
	add	w19, w19, 1
	.loc 1 117 0
	lsl	w20, w20, 1
	.loc 1 116 0
	bl	HEVC_InitSigLastScan
.LVL51:
	add	x21, x21, 65536
	.loc 1 114 0 discriminator 1
	cmp	w19, 7
	bne	.L71
	.loc 1 121 0
	ldp	x19, x20, [sp,16]
	.cfi_restore 20
	.cfi_restore 19
.LVL52:
	ldp	x21, x22, [sp,32]
	.cfi_restore 22
	.cfi_restore 21
.LVL53:
	ldp	x29, x30, [sp], 48
	.cfi_restore 30
	.cfi_restore 29
	.cfi_def_cfa 31, 0
	ret
	.cfi_endproc
.LFE2315:
	.size	HEVC_InitScalingOrderTable, .-HEVC_InitScalingOrderTable
	.align	2
	.global	HEVCGetDar
	.type	HEVCGetDar, %function
HEVCGetDar:
.LFB2317:
	.loc 1 221 0
	.cfi_startproc
.LVL54:
	stp	x29, x30, [sp, -32]!
	.cfi_def_cfa_offset 32
	.cfi_offset 29, -32
	.cfi_offset 30, -24
	add	x29, sp, 0
	.cfi_def_cfa_register 29
	str	x19, [sp,16]
	.cfi_offset 19, -16
	.loc 1 231 0
	mov	w19, 0
.LVL55:
	.loc 1 229 0
	cbz	w0, .L75
	.loc 1 229 0 is_stmt 0 discriminator 1
	cmp	w0, 255
	cset	w5, ne
	cbz	w5, .L94
	cmp	w0, 16
	ble	.L94
.LVL56:
.L75:
	.loc 1 273 0 is_stmt 1
	adrp	x1, .LC0
.LVL57:
	mov	w2, w19
.LVL58:
	add	x1, x1, :lo12:.LC0
	mov	w0, 22
.LVL59:
	bl	dprint_linux_kernel
.LVL60:
	.loc 1 276 0
	mov	w0, w19
	ldr	x19, [sp,16]
	.cfi_remember_state
	.cfi_restore 19
.LVL61:
	ldp	x29, x30, [sp], 32
	.cfi_restore 30
	.cfi_restore 29
	.cfi_def_cfa 31, 0
	ret
.LVL62:
.L94:
	.cfi_restore_state
	.loc 1 229 0 discriminator 3
	cmp	w0, 255
	bne	.L95
	.loc 1 229 0 is_stmt 0 discriminator 2
	cmp	w1, wzr
	cset	w7, eq
	cmp	w2, wzr
	cset	w6, eq
	.loc 1 229 0 discriminator 3
	orr	w6, w7, w6
	cbnz	w6, .L87
.L95:
	.loc 1 238 0 is_stmt 1
	cmp	w0, 1
	.loc 1 240 0
	mov	w19, 5
	.loc 1 238 0
	beq	.L75
	.loc 1 244 0
	cbz	w5, .L78
	.loc 1 246 0
	adrp	x1, .LANCHOR0
.LVL63:
	sbfiz	x0, x0, 3, 32
.LVL64:
	add	x1, x1, :lo12:.LANCHOR0
	add	x2, x1, x0
.LVL65:
	ldr	w1, [x1,x0]
	.loc 1 247 0
	ldr	w2, [x2,4]
.LVL66:
.L78:
	.loc 1 253 0
	lsl	w1, w1, 10
.LVL67:
	lsl	w3, w3, 10
.LVL68:
	sdiv	w0, w1, w2
.LVL69:
	sdiv	w4, w3, w4
.LVL70:
	mul	w1, w0, w4
	cmp	w1, wzr
	add	w0, w1, 1023
	csel	w1, w0, w1, lt
	asr	w1, w1, 10
.LVL71:
	.loc 1 255 0
	subs	w2, w1, #2406
.LVL72:
	bmi	.L108
.L79:
	.loc 1 255 0 is_stmt 0 discriminator 4
	subs	w0, w1, #2263
	bmi	.L109
	.loc 1 255 0 discriminator 8
	cmp	w2, w0
	.loc 1 257 0 is_stmt 1
	mov	w19, 4
	.loc 1 255 0 discriminator 8
	blt	.L75
.L83:
	.loc 1 259 0 discriminator 4
	subs	w2, w1, #1820
	bmi	.L110
	.loc 1 259 0 is_stmt 0 discriminator 8
	cmp	w0, w2
	.loc 1 261 0 is_stmt 1
	mov	w19, 3
	.loc 1 259 0 discriminator 8
	blt	.L75
.L84:
	.loc 1 263 0 discriminator 4
	subs	w0, w1, #1365
	bmi	.L111
.L82:
	.loc 1 269 0
	cmp	w2, w0
	mov	w19, 2
.LVL73:
	csinc	w19, w19, wzr, lt
.LVL74:
	b	.L75
.LVL75:
.L87:
	.loc 1 231 0
	mov	w19, 0
	b	.L75
.LVL76:
.L109:
	.loc 1 255 0 discriminator 5
	mov	w0, 2263
	.loc 1 257 0
	mov	w19, 4
	.loc 1 255 0 discriminator 5
	sub	w0, w0, w1
	.loc 1 255 0 is_stmt 0 discriminator 8
	cmp	w2, w0
	blt	.L75
	b	.L83
.L108:
	.loc 1 255 0 discriminator 1
	mov	w2, 2406
	sub	w2, w2, w1
	b	.L79
.L110:
	.loc 1 259 0 is_stmt 1 discriminator 5
	mov	w2, 1820
	.loc 1 261 0
	mov	w19, 3
	.loc 1 259 0 discriminator 5
	sub	w2, w2, w1
	.loc 1 259 0 is_stmt 0 discriminator 8
	cmp	w0, w2
	blt	.L75
	b	.L84
.L111:
	.loc 1 263 0 is_stmt 1 discriminator 5
	mov	w0, 1365
	sub	w0, w0, w1
	b	.L82
	.cfi_endproc
.LFE2317:
	.size	HEVCGetDar, .-HEVCGetDar
	.align	2
	.global	HEVC_PrintNaluArraySlot
	.type	HEVC_PrintNaluArraySlot, %function
HEVC_PrintNaluArraySlot:
.LFB2318:
	.loc 1 279 0
	.cfi_startproc
.LVL77:
	stp	x29, x30, [sp, -64]!
	.cfi_def_cfa_offset 64
	.cfi_offset 29, -64
	.cfi_offset 30, -56
	.loc 1 282 0
	adrp	x1, .LC1
	.loc 1 279 0
	add	x29, sp, 0
	.cfi_def_cfa_register 29
	stp	x19, x20, [sp,16]
	.loc 1 282 0
	add	x1, x1, :lo12:.LC1
	.cfi_offset 19, -48
	.cfi_offset 20, -40
	.loc 1 279 0
	mov	x19, x0
	.loc 1 282 0
	mov	w0, 1
.LVL78:
	.loc 1 279 0
	stp	x23, x24, [sp,48]
	stp	x21, x22, [sp,32]
	.cfi_offset 23, -16
	.cfi_offset 24, -8
	.cfi_offset 21, -32
	.cfi_offset 22, -24
	.loc 1 282 0
	bl	dprint_linux_kernel
.LVL79:
	adrp	x23, .LC2
	.loc 1 284 0 discriminator 1
	ldr	w0, [x19,160]
	cmn	w0, #1
	beq	.L115
	.loc 1 286 0
	adrp	x20, .LC4
	.loc 1 284 0 discriminator 1
	mov	w24, 0
.LVL80:
	add	x21, x19, 61440
	.loc 1 286 0
	add	x20, x20, :lo12:.LC4
	.loc 1 290 0
	add	x22, x23, :lo12:.LC2
	b	.L113
.L114:
	.loc 1 284 0 discriminator 1
	ldr	w0, [x19,160]
	add	w0, w0, 1
	cmp	w0, w24
	bls	.L115
.L113:
	.loc 1 286 0
	uxtw	x0, w24
.LVL81:
	ldr	x3, [x21,3496]
	lsl	x1, x0, 7
	mov	w2, w24
	sub	x0, x1, x0, lsl 4
.LVL82:
	mov	x1, x20
	add	x3, x3, x0
	mov	w0, 1
	ldr	w4, [x3,36]
	bl	dprint_linux_kernel
.LVL83:
	.loc 1 288 0
	mov	w0, 52429
	movk	w0, 0xcccc, lsl 16
	umull	x0, w24, w0
	lsr	x0, x0, 32
	lsr	w0, w0, 3
	lsl	w1, w0, 3
	add	w0, w1, w0, lsl 1
	cmp	w24, w0
	.loc 1 284 0 discriminator 2
	add	w24, w24, 1
	.loc 1 288 0
	bne	.L114
	.loc 1 290 0
	mov	w0, 1
	mov	x1, x22
	bl	dprint_linux_kernel
.LVL84:
	.loc 1 284 0 discriminator 1
	ldr	w0, [x19,160]
	add	w0, w0, 1
	cmp	w0, w24
	bhi	.L113
.L115:
	.loc 1 293 0
	add	x1, x23, :lo12:.LC2
	mov	w0, 1
	bl	dprint_linux_kernel
.LVL85:
	.loc 1 294 0
	adrp	x1, .LC3
	mov	w0, 1
	add	x1, x1, :lo12:.LC3
	bl	dprint_linux_kernel
.LVL86:
	.loc 1 297 0
	ldp	x19, x20, [sp,16]
	.cfi_restore 20
	.cfi_restore 19
.LVL87:
	ldp	x21, x22, [sp,32]
	.cfi_restore 22
	.cfi_restore 21
	ldp	x23, x24, [sp,48]
	.cfi_restore 24
	.cfi_restore 23
.LVL88:
	ldp	x29, x30, [sp], 64
	.cfi_restore 30
	.cfi_restore 29
	.cfi_def_cfa 31, 0
	ret
	.cfi_endproc
.LFE2318:
	.size	HEVC_PrintNaluArraySlot, .-HEVC_PrintNaluArraySlot
	.align	2
	.global	HEVC_PrintCurrSlicelistX
	.type	HEVC_PrintCurrSlicelistX, %function
HEVC_PrintCurrSlicelistX:
.LFB2319:
	.loc 1 300 0
	.cfi_startproc
.LVL89:
	stp	x29, x30, [sp, -80]!
	.cfi_def_cfa_offset 80
	.cfi_offset 29, -80
	.cfi_offset 30, -72
	.loc 1 303 0
	adrp	x1, .LC5
	.loc 1 300 0
	add	x29, sp, 0
	.cfi_def_cfa_register 29
	stp	x21, x22, [sp,32]
	stp	x23, x24, [sp,48]
	.cfi_offset 21, -48
	.cfi_offset 22, -40
	.cfi_offset 23, -32
	.cfi_offset 24, -24
	.loc 1 304 0
	add	x21, x0, 49152
	.loc 1 303 0
	add	x1, x1, :lo12:.LC5
	.loc 1 300 0
	mov	x23, x0
	.loc 1 303 0
	mov	w0, 1
.LVL90:
	.loc 1 300 0
	stp	x19, x20, [sp,16]
	stp	x25, x26, [sp,64]
	.cfi_offset 19, -64
	.cfi_offset 20, -56
	.cfi_offset 25, -16
	.cfi_offset 26, -8
	.loc 1 303 0
	bl	dprint_linux_kernel
.LVL91:
	.loc 1 304 0
	ldr	w2, [x21,2864]
	adrp	x1, .LC6
	mov	w0, 1
	add	x1, x1, :lo12:.LC6
	bl	dprint_linux_kernel
.LVL92:
	.loc 1 305 0 discriminator 1
	ldr	w0, [x21,2864]
	cbz	w0, .L127
	.loc 1 307 0
	adrp	x25, .LC8
	.loc 1 310 0
	adrp	x24, .LC9
	.loc 1 313 0 discriminator 1
	adrp	x26, .LC10
	add	x19, x23, 2360
	.loc 1 305 0 discriminator 1
	mov	w20, 0
	adrp	x22, .LC2
	.loc 1 307 0
	add	x25, x25, :lo12:.LC8
	.loc 1 310 0
	add	x24, x24, :lo12:.LC9
	.loc 1 313 0 discriminator 1
	add	x26, x26, :lo12:.LC10
.L126:
	.loc 1 307 0
	ldr	x3, [x19]
	mov	w2, w20
	mov	x1, x25
	mov	w0, 1
	.loc 1 305 0 discriminator 2
	add	w20, w20, w0
	.loc 1 307 0
	bl	dprint_linux_kernel
.LVL93:
	.loc 1 308 0
	ldr	x2, [x19]
	.loc 1 310 0
	mov	x1, x24
	mov	w0, 1
	.loc 1 308 0
	cbz	x2, .L124
	.loc 1 310 0
	ldr	x2, [x2,32]
	bl	dprint_linux_kernel
.LVL94:
	.loc 1 311 0
	ldr	x0, [x19]
	ldr	x0, [x0,32]
	cbz	x0, .L124
	.loc 1 313 0
	ldr	w1, [x0,32]
	ldr	w0, [x23,240]
	bl	FSP_GetLogicFs
.LVL95:
	.loc 1 313 0 is_stmt 0 discriminator 1
	mov	x2, x0
	mov	x1, x26
	mov	w0, 1
	bl	dprint_linux_kernel
.LVL96:
.L124:
	.loc 1 316 0 is_stmt 1
	mov	w0, 1
	add	x1, x22, :lo12:.LC2
	add	x19, x19, 8
	bl	dprint_linux_kernel
.LVL97:
	.loc 1 305 0 discriminator 1
	ldr	w0, [x21,2864]
	cmp	w0, w20
	bhi	.L126
.L127:
	.loc 1 319 0
	ldr	w2, [x21,2868]
	adrp	x1, .LC7
	mov	w0, 1
	add	x1, x1, :lo12:.LC7
	bl	dprint_linux_kernel
.LVL98:
	.loc 1 320 0 discriminator 1
	ldr	w0, [x21,2868]
	cbz	w0, .L122
	.loc 1 322 0
	adrp	x25, .LC12
	.loc 1 325 0
	adrp	x24, .LC9
	.loc 1 328 0 discriminator 1
	adrp	x26, .LC10
	add	x19, x23, 2496
	.loc 1 320 0 discriminator 1
	mov	w20, 0
	adrp	x22, .LC2
	.loc 1 322 0
	add	x25, x25, :lo12:.LC12
	.loc 1 325 0
	add	x24, x24, :lo12:.LC9
	.loc 1 328 0 discriminator 1
	add	x26, x26, :lo12:.LC10
.L131:
	.loc 1 322 0
	ldr	x3, [x19]
	mov	w2, w20
	mov	x1, x25
	mov	w0, 1
	.loc 1 320 0 discriminator 2
	add	w20, w20, w0
	.loc 1 322 0
	bl	dprint_linux_kernel
.LVL99:
	.loc 1 323 0
	ldr	x2, [x19]
	.loc 1 325 0
	mov	x1, x24
	mov	w0, 1
	.loc 1 323 0
	cbz	x2, .L129
	.loc 1 325 0
	ldr	x2, [x2,32]
	bl	dprint_linux_kernel
.LVL100:
	.loc 1 326 0
	ldr	x0, [x19]
	ldr	x0, [x0,32]
	cbz	x0, .L129
	.loc 1 328 0
	ldr	w1, [x0,32]
	ldr	w0, [x23,240]
	bl	FSP_GetLogicFs
.LVL101:
	.loc 1 328 0 is_stmt 0 discriminator 1
	mov	x2, x0
	mov	x1, x26
	mov	w0, 1
	bl	dprint_linux_kernel
.LVL102:
.L129:
	.loc 1 331 0 is_stmt 1
	mov	w0, 1
	add	x1, x22, :lo12:.LC2
	add	x19, x19, 8
	bl	dprint_linux_kernel
.LVL103:
	.loc 1 320 0 discriminator 1
	ldr	w0, [x21,2868]
	cmp	w0, w20
	bhi	.L131
.L122:
	.loc 1 333 0
	adrp	x1, .LC11
	mov	w0, 1
	add	x1, x1, :lo12:.LC11
	bl	dprint_linux_kernel
.LVL104:
	.loc 1 336 0
	ldp	x19, x20, [sp,16]
	.cfi_restore 20
	.cfi_restore 19
	ldp	x21, x22, [sp,32]
	.cfi_restore 22
	.cfi_restore 21
	ldp	x23, x24, [sp,48]
	.cfi_restore 24
	.cfi_restore 23
.LVL105:
	ldp	x25, x26, [sp,64]
	.cfi_restore 26
	.cfi_restore 25
	ldp	x29, x30, [sp], 80
	.cfi_restore 30
	.cfi_restore 29
	.cfi_def_cfa 31, 0
	ret
	.cfi_endproc
.LFE2319:
	.size	HEVC_PrintCurrSlicelistX, .-HEVC_PrintCurrSlicelistX
	.align	2
	.global	HEVC_PrintFrameStoreState
	.type	HEVC_PrintFrameStoreState, %function
HEVC_PrintFrameStoreState:
.LFB2320:
	.loc 1 339 0
	.cfi_startproc
.LVL106:
	stp	x29, x30, [sp, -80]!
	.cfi_def_cfa_offset 80
	.cfi_offset 29, -80
	.cfi_offset 30, -72
	.loc 1 343 0
	adrp	x1, .LC13
	.loc 1 339 0
	add	x29, sp, 0
	.cfi_def_cfa_register 29
	stp	x23, x24, [sp,48]
	.loc 1 343 0
	add	x1, x1, :lo12:.LC13
	.cfi_offset 23, -32
	.cfi_offset 24, -24
	.loc 1 339 0
	mov	x24, x0
	.loc 1 343 0
	mov	w0, 1
.LVL107:
	.loc 1 339 0
	stp	x19, x20, [sp,16]
	stp	x21, x22, [sp,32]
	stp	x25, x26, [sp,64]
	.cfi_offset 19, -64
	.cfi_offset 20, -56
	.cfi_offset 21, -48
	.cfi_offset 22, -40
	.cfi_offset 25, -16
	.cfi_offset 26, -8
	.loc 1 343 0
	bl	dprint_linux_kernel
.LVL108:
	.loc 1 344 0 discriminator 1
	ldr	w0, [x24,172]
	cbz	w0, .L145
	add	x21, x24, 65536
	.loc 1 346 0
	adrp	x26, .LC15
	.loc 1 351 0
	adrp	x22, .LC16
	.loc 1 353 0
	adrp	x25, .LC2
	add	x21, x21, 216
	.loc 1 344 0 discriminator 1
	mov	w23, 0
.LVL109:
	.loc 1 346 0
	add	x26, x26, :lo12:.LC15
	.loc 1 351 0
	add	x22, x22, :lo12:.LC16
	.loc 1 353 0
	add	x25, x25, :lo12:.LC2
.LVL110:
.L144:
	.loc 1 346 0
	ldr	w4, [x21,4]
	mov	w0, 1
	ldrb	w5, [x21,1]
	mov	x1, x26
	ldrb	w6, [x21,2]
	mov	w2, w23
	mov	x3, x21
	add	x20, x21, 328
	.loc 1 349 0
	mov	w19, 0
	.loc 1 346 0
	bl	dprint_linux_kernel
.LVL111:
.L143:
	.loc 1 351 0
	ldr	x3, [x20],8
	mov	w2, w19
	mov	w0, 1
	mov	x1, x22
	.loc 1 349 0 discriminator 3
	add	w19, w19, w0
	.loc 1 351 0
	bl	dprint_linux_kernel
.LVL112:
	.loc 1 349 0 discriminator 1
	cmp	w19, 4
	bne	.L143
	.loc 1 353 0
	mov	w0, 1
	mov	x1, x25
	.loc 1 344 0 discriminator 2
	add	w23, w23, w0
	add	x21, x21, 360
	.loc 1 353 0
	bl	dprint_linux_kernel
.LVL113:
	.loc 1 344 0 discriminator 1
	ldr	w0, [x24,172]
	cmp	w0, w23
	bhi	.L144
.L145:
	.loc 1 355 0
	adrp	x1, .LC14
	mov	w0, 1
	add	x1, x1, :lo12:.LC14
	bl	dprint_linux_kernel
.LVL114:
	.loc 1 358 0
	ldp	x19, x20, [sp,16]
	.cfi_restore 20
	.cfi_restore 19
.LVL115:
	ldp	x21, x22, [sp,32]
	.cfi_restore 22
	.cfi_restore 21
	ldp	x23, x24, [sp,48]
	.cfi_restore 24
	.cfi_restore 23
.LVL116:
	ldp	x25, x26, [sp,64]
	.cfi_restore 26
	.cfi_restore 25
	ldp	x29, x30, [sp], 80
	.cfi_restore 30
	.cfi_restore 29
	.cfi_def_cfa 31, 0
	ret
	.cfi_endproc
.LFE2320:
	.size	HEVC_PrintFrameStoreState, .-HEVC_PrintFrameStoreState
	.align	2
	.global	HEVC_PrintAPCState
	.type	HEVC_PrintAPCState, %function
HEVC_PrintAPCState:
.LFB2321:
	.loc 1 361 0
	.cfi_startproc
.LVL117:
	stp	x29, x30, [sp, -48]!
	.cfi_def_cfa_offset 48
	.cfi_offset 29, -48
	.cfi_offset 30, -40
	.loc 1 364 0
	adrp	x1, .LC17
	.loc 1 361 0
	add	x29, sp, 0
	.cfi_def_cfa_register 29
	str	x21, [sp,32]
	.loc 1 364 0
	add	x1, x1, :lo12:.LC17
	.cfi_offset 21, -16
	.loc 1 361 0
	mov	x21, x0
	.loc 1 364 0
	mov	w0, 1
.LVL118:
	.loc 1 361 0
	stp	x19, x20, [sp,16]
	.cfi_offset 19, -32
	.cfi_offset 20, -24
	.loc 1 364 0
	bl	dprint_linux_kernel
.LVL119:
	add	x19, x21, 3248
	.loc 1 366 0
	ldr	w2, [x21,3244]
	adrp	x1, .LC18
	ldr	w3, [x21,3240]
	adrp	x21, .LC19
.LVL120:
	mov	w0, 1
	add	x1, x1, :lo12:.LC18
	.loc 1 367 0
	mov	w20, 0
.LVL121:
	.loc 1 369 0
	add	x21, x21, :lo12:.LC19
	.loc 1 366 0
	bl	dprint_linux_kernel
.LVL122:
.L150:
	.loc 1 369 0
	ldr	w3, [x19]
	mov	w2, w20
	ldr	w4, [x19,64]
	mov	w0, 1
	ldr	w5, [x19,128]
	mov	x1, x21
	.loc 1 367 0 discriminator 3
	add	w20, w20, w0
	add	x19, x19, 4
	.loc 1 369 0
	bl	dprint_linux_kernel
.LVL123:
	.loc 1 367 0 discriminator 1
	cmp	w20, 16
	bne	.L150
	.loc 1 371 0
	adrp	x1, .LC20
	mov	w0, 1
	add	x1, x1, :lo12:.LC20
	bl	dprint_linux_kernel
.LVL124:
	.loc 1 374 0
	ldr	x21, [sp,32]
	.cfi_restore 21
	ldp	x19, x20, [sp,16]
	.cfi_restore 20
	.cfi_restore 19
.LVL125:
	ldp	x29, x30, [sp], 48
	.cfi_restore 30
	.cfi_restore 29
	.cfi_def_cfa 31, 0
	ret
	.cfi_endproc
.LFE2321:
	.size	HEVC_PrintAPCState, .-HEVC_PrintAPCState
	.align	2
	.global	HEVC_PrintDPBState
	.type	HEVC_PrintDPBState, %function
HEVC_PrintDPBState:
.LFB2322:
	.loc 1 377 0
	.cfi_startproc
.LVL126:
	sub	sp, sp, #192
	.cfi_def_cfa_offset 192
	.loc 1 383 0
	adrp	x1, .LC21
	add	x1, x1, :lo12:.LC21
	.loc 1 377 0
	stp	x29, x30, [sp,64]
	.cfi_offset 29, -128
	.cfi_offset 30, -120
	add	x29, sp, 64
	.cfi_def_cfa 29, 128
	stp	x19, x20, [sp,80]
	.cfi_offset 19, -112
	.cfi_offset 20, -104
	mov	x19, x0
	.loc 1 383 0
	mov	w0, 1
.LVL127:
	.loc 1 377 0
	stp	x21, x22, [sp,96]
	stp	x23, x24, [sp,112]
	stp	x25, x26, [sp,128]
	stp	x27, x28, [sp,144]
	.cfi_offset 21, -96
	.cfi_offset 22, -88
	.cfi_offset 23, -80
	.cfi_offset 24, -72
	.cfi_offset 25, -64
	.cfi_offset 26, -56
	.cfi_offset 27, -48
	.cfi_offset 28, -40
	.loc 1 383 0
	bl	dprint_linux_kernel
.LVL128:
	.loc 1 385 0
	ldr	w2, [x19,2672]
	adrp	x1, .LC22
	ldr	w3, [x19,2676]
	mov	w0, 1
	ldr	w4, [x19,2688]
	add	x1, x1, :lo12:.LC22
	ldr	w5, [x19,2692]
	ldr	w6, [x19,2684]
	bl	dprint_linux_kernel
.LVL129:
	.loc 1 386 0 discriminator 1
	ldr	w0, [x19,2676]
	cbz	w0, .L157
	.loc 1 388 0 discriminator 3
	adrp	x22, .LC23
	add	x20, x19, 2696
	.loc 1 386 0 discriminator 1
	mov	w21, 0
	.loc 1 388 0 discriminator 3
	add	x22, x22, :lo12:.LC23
.L156:
	.loc 1 388 0 is_stmt 0
	ldr	x2, [x20]
	ldr	w0, [x19,240]
	ldrb	w4, [x2]
	ldr	w5, [x2,4]
	ldrb	w6, [x2,1]
	ldrb	w7, [x2,2]
	ldr	w1, [x2,32]
	ldr	w26, [x2,12]
	ldr	w25, [x2,56]
	str	x4, [x29,96]
	str	x5, [x29,104]
	str	x6, [x29,112]
	str	x7, [x29,120]
	bl	FSP_GetLogicFs
.LVL130:
	ldr	x1, [x20]
	mov	x24, x0
	.loc 1 388 0 discriminator 1
	ldr	w0, [x19,240]
	ldr	w1, [x1,32]
	bl	FSP_GetRef
.LVL131:
	mov	w23, w0
	.loc 1 388 0
	ldr	x1, [x20]
	.loc 1 388 0 discriminator 2
	ldr	w0, [x19,240]
	ldr	w1, [x1,32]
	bl	FSP_GetDisplay
.LVL132:
	.loc 1 388 0
	ldr	x8, [x20],8
	.loc 1 388 0 discriminator 3
	mov	w2, w21
	str	w0, [sp,32]
	mov	x1, x22
	str	w26, [sp]
	mov	x3, x8
	str	w25, [sp,8]
	mov	w0, 1
	str	x24, [sp,16]
	.loc 1 386 0 is_stmt 1 discriminator 3
	add	w21, w21, w0
	.loc 1 388 0 discriminator 3
	str	w23, [sp,24]
	ldr	x4, [x29,96]
	ldr	w9, [x8,32]
	str	w9, [sp,40]
	ldr	x5, [x29,104]
	ldr	w8, [x8,160]
	ldr	x6, [x29,112]
	ldr	x7, [x29,120]
	str	w8, [sp,48]
	bl	dprint_linux_kernel
.LVL133:
	.loc 1 386 0 discriminator 1
	ldr	w0, [x19,2676]
	cmp	w0, w21
	bhi	.L156
.L157:
	.loc 1 398 0
	adrp	x26, .LC2
	mov	w0, 1
	add	x1, x26, :lo12:.LC2
	bl	dprint_linux_kernel
.LVL134:
	.loc 1 399 0 discriminator 1
	ldr	w0, [x19,2676]
	cbz	w0, .L155
	.loc 1 414 0
	adrp	x0, .LC30
	.loc 1 407 0
	adrp	x25, .LC26
	.loc 1 408 0
	adrp	x28, .LC27
	.loc 1 414 0
	add	x0, x0, :lo12:.LC30
	add	x21, x19, 2696
	.loc 1 399 0 discriminator 1
	mov	w22, 0
	adrp	x27, .LC25
	.loc 1 414 0
	str	x0, [x29,120]
	.loc 1 407 0
	add	x25, x25, :lo12:.LC26
	.loc 1 408 0
	add	x28, x28, :lo12:.LC27
	b	.L164
.LVL135:
.L168:
	.loc 1 407 0
	bl	dprint_linux_kernel
.LVL136:
	.loc 1 408 0
	ldr	w2, [x20,288]
	mov	x1, x28
	mov	w0, 1
	bl	dprint_linux_kernel
.LVL137:
	.loc 1 409 0
	ldrsb	w2, [x20]
	adrp	x1, .LC28
	add	x1, x1, :lo12:.LC28
	mov	w0, 1
	bl	dprint_linux_kernel
.LVL138:
	.loc 1 410 0
	ldrsb	w2, [x20,1]
	adrp	x1, .LC29
	add	x1, x1, :lo12:.LC29
	mov	w0, 1
	bl	dprint_linux_kernel
.LVL139:
	.loc 1 419 0
	adrp	x1, .LC31
	mov	x2, x24
	add	x1, x1, :lo12:.LC31
	mov	w0, 1
	.loc 1 417 0
	cbz	x24, .L160
.L169:
	.loc 1 419 0
	bl	dprint_linux_kernel
.LVL140:
	.loc 1 420 0
	ldr	w2, [x24,36]
	adrp	x1, .LC32
	add	x1, x1, :lo12:.LC32
	mov	w0, 1
	bl	dprint_linux_kernel
.LVL141:
	.loc 1 429 0
	adrp	x1, .LC34
	mov	x2, x23
	add	x1, x1, :lo12:.LC34
	mov	w0, 1
	.loc 1 427 0
	cbz	x23, .L162
.L170:
	.loc 1 429 0
	bl	dprint_linux_kernel
.LVL142:
	add	x21, x21, 8
	.loc 1 430 0
	ldr	w2, [x23,36]
	adrp	x1, .LC35
	add	x1, x1, :lo12:.LC35
	mov	w0, 1
	bl	dprint_linux_kernel
.LVL143:
	.loc 1 437 0
	mov	w0, 1
	add	x1, x26, :lo12:.LC2
	.loc 1 399 0 discriminator 2
	add	w22, w22, w0
	.loc 1 437 0
	bl	dprint_linux_kernel
.LVL144:
	.loc 1 399 0 discriminator 1
	ldr	w0, [x19,2676]
	cmp	w0, w22
	bls	.L155
.L164:
	.loc 1 401 0
	ldr	x1, [x21]
	ldr	w0, [x19,240]
	ldr	w1, [x1,32]
	bl	FSP_GetLogicFs
.LVL145:
	mov	x20, x0
	.loc 1 402 0
	ldr	x1, [x21]
	ldr	w0, [x19,240]
	ldr	w1, [x1,32]
	bl	FSP_GetDecPhyFs
.LVL146:
	mov	x24, x0
	.loc 1 403 0
	ldr	x1, [x21]
	ldr	w0, [x19,240]
	ldr	w1, [x1,32]
	bl	FSP_GetDispPhyFs
.LVL147:
	mov	x23, x0
	.loc 1 404 0
	mov	w2, w22
	add	x1, x27, :lo12:.LC25
	mov	w0, 1
	bl	dprint_linux_kernel
.LVL148:
	.loc 1 407 0
	mov	x1, x25
	mov	x2, x20
	mov	w0, 1
	.loc 1 405 0
	cbnz	x20, .L168
	.loc 1 414 0
	ldr	x1, [x29,120]
	mov	w0, 1
	bl	dprint_linux_kernel
.LVL149:
	.loc 1 419 0
	adrp	x1, .LC31
	mov	x2, x24
	add	x1, x1, :lo12:.LC31
	mov	w0, 1
	.loc 1 417 0
	cbnz	x24, .L169
.L160:
	.loc 1 424 0
	adrp	x1, .LC33
	mov	w0, 1
	add	x1, x1, :lo12:.LC33
	bl	dprint_linux_kernel
.LVL150:
	.loc 1 429 0
	adrp	x1, .LC34
	mov	x2, x23
	add	x1, x1, :lo12:.LC34
	mov	w0, 1
	.loc 1 427 0
	cbnz	x23, .L170
.L162:
	.loc 1 434 0
	adrp	x1, .LC36
	mov	w0, 1
	add	x1, x1, :lo12:.LC36
	add	x21, x21, 8
	bl	dprint_linux_kernel
.LVL151:
	.loc 1 437 0
	mov	w0, 1
	add	x1, x26, :lo12:.LC2
	.loc 1 399 0 discriminator 2
	add	w22, w22, w0
	.loc 1 437 0
	bl	dprint_linux_kernel
.LVL152:
	.loc 1 399 0 discriminator 1
	ldr	w0, [x19,2676]
	cmp	w0, w22
	bhi	.L164
.L155:
	.loc 1 440 0
	adrp	x1, .LC24
	mov	w0, 1
	add	x1, x1, :lo12:.LC24
	bl	dprint_linux_kernel
.LVL153:
	.loc 1 443 0
	sub	sp, x29, #64
	.cfi_def_cfa 31, 192
	ldp	x19, x20, [sp,80]
	.cfi_restore 20
	.cfi_restore 19
.LVL154:
	ldp	x21, x22, [sp,96]
	.cfi_restore 22
	.cfi_restore 21
	ldp	x23, x24, [sp,112]
	.cfi_restore 24
	.cfi_restore 23
.LVL155:
	ldp	x25, x26, [sp,128]
	.cfi_restore 26
	.cfi_restore 25
	ldp	x27, x28, [sp,144]
	.cfi_restore 28
	.cfi_restore 27
	ldp	x29, x30, [sp,64]
	.cfi_restore 30
	.cfi_restore 29
	add	sp, sp, 192
	.cfi_def_cfa_offset 0
	ret
	.cfi_endproc
.LFE2322:
	.size	HEVC_PrintDPBState, .-HEVC_PrintDPBState
	.align	2
	.global	HEVC_IsSliceUnit
	.type	HEVC_IsSliceUnit, %function
HEVC_IsSliceUnit:
.LFB2323:
	.loc 1 455 0
	.cfi_startproc
.LVL156:
	.loc 1 472 0
	cmp	w0, 9
	mov	w1, 1
	bls	.L172
	.loc 1 462 0
	sub	w0, w0, #16
.LVL157:
	cmp	w0, 5
	cset	w1, ls
.LVL158:
.L172:
	.loc 1 473 0
	mov	w0, w1
.LVL159:
	ret
	.cfi_endproc
.LFE2323:
	.size	HEVC_IsSliceUnit, .-HEVC_IsSliceUnit
	.align	2
	.global	HEVC_IsIUnit
	.type	HEVC_IsIUnit, %function
HEVC_IsIUnit:
.LFB2324:
	.loc 1 484 0
	.cfi_startproc
.LVL160:
	.loc 1 490 0
	sub	w0, w0, #16
.LVL161:
	.loc 1 491 0
	cmp	w0, 5
	.loc 1 492 0
	cset	w0, ls
	ret
	.cfi_endproc
.LFE2324:
	.size	HEVC_IsIUnit, .-HEVC_IsIUnit
	.align	2
	.global	HEVC_IsNonRefPic
	.type	HEVC_IsNonRefPic, %function
HEVC_IsNonRefPic:
.LFB2325:
	.loc 1 503 0
	.cfi_startproc
.LVL162:
	.loc 1 512 0
	ands	w1, w0, -7
	.loc 1 512 0 is_stmt 0 discriminator 1
	mov	w0, 1
.LVL163:
	.loc 1 512 0
	beq	.L176
	.loc 1 509 0 is_stmt 1
	cmp	w1, 8
	cset	w0, eq
.L176:
	.loc 1 513 0
	ret
	.cfi_endproc
.LFE2325:
	.size	HEVC_IsNonRefPic, .-HEVC_IsNonRefPic
	.align	2
	.global	HEVC_IsFlushUnit
	.type	HEVC_IsFlushUnit, %function
HEVC_IsFlushUnit:
.LFB2326:
	.loc 1 524 0
	.cfi_startproc
.LVL164:
	.loc 1 529 0
	sub	w0, w0, #16
.LVL165:
	.loc 1 530 0
	cmp	w0, 4
	.loc 1 531 0
	cset	w0, ls
	ret
	.cfi_endproc
.LFE2326:
	.size	HEVC_IsFlushUnit, .-HEVC_IsFlushUnit
	.align	2
	.global	HEVC_IsPVRFlushPic
	.type	HEVC_IsPVRFlushPic, %function
HEVC_IsPVRFlushPic:
.LFB2327:
	.loc 1 543 0
	.cfi_startproc
.LVL166:
	.loc 1 544 0
	add	x2, x0, 49152
	.loc 1 549 0 discriminator 1
	mov	w1, 0
	.loc 1 549 0 is_stmt 0
	ldr	w2, [x2,2380]
	cbnz	w2, .L181
	.loc 1 545 0 is_stmt 1
	ldr	x0, [x0,2336]
.LVL167:
	ldr	w2, [x0,704]
	cmp	w2, 1
	beq	.L186
.LVL168:
.L181:
	.loc 1 550 0
	mov	w0, w1
.LVL169:
	ret
.L186:
	.loc 1 546 0
	ldr	w2, [x0,700]
	cbnz	w2, .L181
	.loc 1 547 0
	ldr	w2, [x0,708]
	cbnz	w2, .L181
	.loc 1 548 0
	ldr	w0, [x0,684]
	add	w0, w0, 1024
	.loc 1 549 0 discriminator 3
	cmp	w0, 2048
	cset	w1, hi
	b	.L181
	.cfi_endproc
.LFE2327:
	.size	HEVC_IsPVRFlushPic, .-HEVC_IsPVRFlushPic
	.align	2
	.global	HEVC_IsEosNal
	.type	HEVC_IsEosNal, %function
HEVC_IsEosNal:
.LFB2328:
	.loc 1 553 0
	.cfi_startproc
.LVL170:
	stp	x29, x30, [sp, -32]!
	.cfi_def_cfa_offset 32
	.cfi_offset 29, -32
	.cfi_offset 30, -24
	.loc 1 557 0
	mov	w1, 32
	.loc 1 553 0
	add	x29, sp, 0
	.cfi_def_cfa_register 29
	stp	x19, x20, [sp,16]
	.cfi_offset 19, -16
	.cfi_offset 20, -8
	.loc 1 553 0
	mov	x19, x0
	.loc 1 557 0
	ldr	x0, [x0,2304]
.LVL171:
	bl	BsGet
.LVL172:
	mov	w20, w0
	.loc 1 558 0
	ldr	x0, [x19,2304]
	mov	w1, 32
	bl	BsGet
.LVL173:
	.loc 1 560 0
	mov	w2, 20036
	mov	w1, 20553
	movk	w2, 0x4345, lsl 16
	movk	w1, 0x4853, lsl 16
	cmp	w0, w2
	cset	w2, eq
	cmp	w20, w1
	cset	w0, eq
	.loc 1 568 0
	and	w0, w2, w0
	ldp	x19, x20, [sp,16]
	.cfi_restore 20
	.cfi_restore 19
.LVL174:
	ldp	x29, x30, [sp], 32
	.cfi_restore 30
	.cfi_restore 29
	.cfi_def_cfa 31, 0
	ret
	.cfi_endproc
.LFE2328:
	.size	HEVC_IsEosNal, .-HEVC_IsEosNal
	.align	2
	.global	HEVC_CalcTileInfo
	.type	HEVC_CalcTileInfo, %function
HEVC_CalcTileInfo:
.LFB2332:
	.loc 1 1021 0
	.cfi_startproc
.LVL175:
	stp	x29, x30, [sp, -80]!
	.cfi_def_cfa_offset 80
	.cfi_offset 29, -80
	.cfi_offset 30, -72
	add	x29, sp, 0
	.cfi_def_cfa_register 29
	stp	x19, x20, [sp,16]
	stp	x21, x22, [sp,32]
	stp	x23, x24, [sp,48]
	.cfi_offset 19, -64
	.cfi_offset 20, -56
	.cfi_offset 21, -48
	.cfi_offset 22, -40
	.cfi_offset 23, -32
	.cfi_offset 24, -24
	.loc 1 1021 0
	mov	x20, x0
	mov	x21, x1
	.loc 1 1026 0
	ldr	x5, [x0,27952]
	.loc 1 1021 0
	mov	x19, x2
	.loc 1 1025 0
	ldr	x0, [x0,27944]
.LVL176:
	.loc 1 1026 0
	ldr	w22, [x5,68]
	.loc 1 1025 0
	ldr	w24, [x0,148]
.LVL177:
	.loc 1 1029 0
	sub	w4, w22, #1
	.loc 1 1027 0
	ldr	w23, [x5,72]
	.loc 1 1029 0
	cmp	w4, 9
	bhi	.L215
.LVL178:
	.loc 1 1034 0
	sub	w6, w23, #1
	cmp	w6, 10
	bhi	.L216
	.loc 1 1040 0
	mov	x0, x1
	mov	x2, 512
	mov	w1, 0
.LVL179:
	str	x3, [x29,72]
	bl	memset
.LVL180:
	.loc 1 1044 0
	ldr	x3, [x29,72]
.LVL181:
	sub	w7, w24, #4
	.loc 1 1042 0
	stp	xzr, xzr, [x19]
	stp	xzr, xzr, [x19,16]
	stp	xzr, xzr, [x19,32]
	stp	xzr, xzr, [x19,48]
	stp	xzr, xzr, [x19,64]
	.loc 1 1044 0
	stp	xzr, xzr, [x3]
	stp	xzr, xzr, [x3,16]
	stp	xzr, xzr, [x3,32]
	stp	xzr, xzr, [x3,48]
	stp	xzr, xzr, [x3,64]
	str	xzr, [x3,80]
	.loc 1 1047 0
	mov	w5, 0
	.loc 1 1049 0
	mov	w6, 0
.LVL182:
.L193:
	.loc 1 1051 0
	str	w5, [x19]
.LVL183:
	.loc 1 1055 0
	lsl	w4, w5, w7
	.loc 1 1052 0
	ldr	x0, [x20,27952]
	add	x0, x0, x6, sxtw 1
	ldrsh	w8, [x0,176]
	add	w5, w8, w5
	.loc 1 1055 0 discriminator 1
	lsl	w1, w5, w7
	.loc 1 1053 0
	sub	w0, w5, #1
	.loc 1 1055 0 discriminator 1
	cmp	w1, w4
	.loc 1 1053 0
	str	w0, [x19,4]
	.loc 1 1055 0 discriminator 1
	ble	.L199
	.loc 1 1057 0
	cmp	w4, 255
	bhi	.L195
	uxtb	w2, w6
	add	x0, x21, x4, sxtw
	b	.L197
.L198:
	cmp	w4, 255
	bhi	.L195
.L197:
	.loc 1 1055 0 discriminator 2
	add	w4, w4, 1
	.loc 1 1063 0
	strb	w2, [x0]
	.loc 1 1055 0 discriminator 1
	cmp	w1, w4
	add	x0, x0, 1
	bgt	.L198
.L199:
	.loc 1 1049 0 discriminator 2
	add	w6, w6, 1
	add	x19, x19, 8
	.loc 1 1049 0 is_stmt 0 discriminator 1
	cmp	w6, w22
	bne	.L193
	mov	x6, x3
.LVL184:
	mov	w4, 0
	mov	w5, 0
.LVL185:
.L201:
	.loc 1 1074 0 is_stmt 1
	str	w4, [x6]
	.loc 1 1078 0
	lsl	w3, w4, w7
.LVL186:
	.loc 1 1075 0
	ldr	x0, [x20,27952]
	add	x0, x0, x5, sxtw 1
	ldrsh	w8, [x0,216]
	add	w4, w8, w4
	.loc 1 1078 0 discriminator 1
	lsl	w1, w4, w7
	.loc 1 1076 0
	sub	w0, w4, #1
	.loc 1 1078 0 discriminator 1
	cmp	w3, w1
	.loc 1 1076 0
	str	w0, [x6,4]
	.loc 1 1078 0 discriminator 1
	bge	.L206
	.loc 1 1080 0
	cmp	w3, 255
	bhi	.L202
	sxtw	x0, w3
	uxtb	w2, w5
	add	x0, x0, 256
	add	x0, x21, x0
	b	.L204
.L205:
	cmp	w3, 255
	bhi	.L202
.L204:
	.loc 1 1078 0 discriminator 2
	add	w3, w3, 1
	.loc 1 1086 0
	strb	w2, [x0]
	.loc 1 1078 0 discriminator 1
	cmp	w3, w1
	add	x0, x0, 1
	blt	.L205
.L206:
	.loc 1 1072 0 discriminator 2
	add	w5, w5, 1
	add	x6, x6, 8
	.loc 1 1072 0 is_stmt 0 discriminator 1
	cmp	w5, w23
	bne	.L201
	.loc 1 1092 0 is_stmt 1
	mov	w0, 0
	b	.L190
.LVL187:
.L195:
	.loc 1 1059 0
	adrp	x2, .LANCHOR0
	adrp	x1, .LC39
	add	x2, x2, :lo12:.LANCHOR0
	mov	w0, 1
	add	x1, x1, :lo12:.LC39
	add	x2, x2, 136
	mov	w3, w4
.LVL188:
	bl	dprint_linux_kernel
.LVL189:
	.loc 1 1060 0
	mov	w0, -1
.LVL190:
.L190:
	.loc 1 1093 0
	ldp	x19, x20, [sp,16]
	.cfi_remember_state
	.cfi_restore 20
	.cfi_restore 19
.LVL191:
	ldp	x21, x22, [sp,32]
	.cfi_restore 22
	.cfi_restore 21
.LVL192:
	ldp	x23, x24, [sp,48]
	.cfi_restore 24
	.cfi_restore 23
.LVL193:
	ldp	x29, x30, [sp], 80
	.cfi_restore 30
	.cfi_restore 29
	.cfi_def_cfa 31, 0
	ret
.LVL194:
.L202:
	.cfi_restore_state
	.loc 1 1082 0
	adrp	x2, .LANCHOR0
	adrp	x1, .LC40
	add	x2, x2, :lo12:.LANCHOR0
	mov	w0, 1
	add	x1, x1, :lo12:.LC40
	add	x2, x2, 136
	bl	dprint_linux_kernel
.LVL195:
	.loc 1 1083 0
	mov	w0, -1
	b	.L190
.LVL196:
.L216:
	.loc 1 1036 0
	adrp	x2, .LANCHOR0
	adrp	x1, .LC38
	add	x2, x2, :lo12:.LANCHOR0
	mov	w0, 1
	add	x1, x1, :lo12:.LC38
	add	x2, x2, 136
	mov	w3, w23
.LVL197:
	mov	w4, 11
	bl	dprint_linux_kernel
.LVL198:
	.loc 1 1037 0
	mov	w0, -1
	b	.L190
.LVL199:
.L215:
	.loc 1 1031 0
	adrp	x2, .LANCHOR0
	adrp	x1, .LC37
	add	x2, x2, :lo12:.LANCHOR0
	mov	w0, 1
	add	x1, x1, :lo12:.LC37
	add	x2, x2, 136
	mov	w3, w22
.LVL200:
	mov	w4, 10
	bl	dprint_linux_kernel
.LVL201:
	.loc 1 1032 0
	mov	w0, -1
	b	.L190
	.cfi_endproc
.LFE2332:
	.size	HEVC_CalcTileInfo, .-HEVC_CalcTileInfo
	.align	2
	.global	HEVC_VPSEqual
	.type	HEVC_VPSEqual, %function
HEVC_VPSEqual:
.LFB2334:
	.loc 1 1238 0
	.cfi_startproc
.LVL202:
	stp	x29, x30, [sp, -16]!
	.cfi_def_cfa_offset 16
	.cfi_offset 29, -16
	.cfi_offset 30, -8
	add	x29, sp, 0
	.cfi_def_cfa_register 29
	.loc 1 1244 0
	cbz	x0, .L253
	.loc 1 1245 0
	cbz	x1, .L254
	.loc 1 1248 0
	ldr	w6, [x0,16]
	.loc 1 1257 0
	add	x8, x0, 12288
	.loc 1 1248 0
	ldr	w5, [x1,16]
	.loc 1 1257 0
	add	x9, x1, 12288
	.loc 1 1247 0
	ldr	w3, [x0,12]
	ldr	w2, [x1,12]
	.loc 1 1248 0
	cmp	w6, w5
	.loc 1 1249 0
	ldr	w10, [x0,20]
	.loc 1 1248 0
	cset	w12, eq
	.loc 1 1249 0
	ldr	w5, [x1,20]
	.loc 1 1247 0
	cmp	w3, w2
	.loc 1 1250 0
	ldrb	w11, [x0,1]
	.loc 1 1247 0
	cset	w2, eq
	.loc 1 1250 0
	ldrb	w7, [x1,1]
	.loc 1 1249 0
	cmp	w10, w5
	.loc 1 1251 0
	ldr	w13, [x0,24]
	.loc 1 1249 0
	cset	w5, eq
	.loc 1 1251 0
	ldr	w6, [x1,24]
	.loc 1 1250 0
	cmp	w11, w7
	.loc 1 1248 0
	and	w2, w12, w2
	.loc 1 1252 0
	ldr	w11, [x0,8]
	ldr	w7, [x1,8]
	.loc 1 1250 0
	cset	w12, eq
	.loc 1 1249 0
	and	w2, w5, w2
	.loc 1 1251 0
	cmp	w13, w6
	.loc 1 1257 0
	ldr	w6, [x9,400]
	.loc 1 1251 0
	cset	w5, eq
	.loc 1 1257 0
	ldr	w13, [x8,400]
	.loc 1 1252 0
	cmp	w11, w7
	.loc 1 1250 0
	and	w2, w12, w2
	.loc 1 1258 0
	ldrb	w7, [x9,124]
	ldrb	w11, [x8,124]
	.loc 1 1252 0
	cset	w12, eq
	.loc 1 1251 0
	and	w2, w5, w2
	.loc 1 1257 0
	cmp	w13, w6
	.loc 1 1259 0
	ldr	w4, [x9,396]
	.loc 1 1257 0
	cset	w6, eq
	.loc 1 1259 0
	ldr	w5, [x8,396]
	.loc 1 1258 0
	cmp	w11, w7
	.loc 1 1252 0
	and	w2, w12, w2
	.loc 1 1258 0
	cset	w3, eq
	.loc 1 1257 0
	and	w2, w6, w2
	.loc 1 1259 0
	cmp	w5, w4
	.loc 1 1258 0
	and	w3, w3, w2
	.loc 1 1259 0
	cset	w4, eq
	and	w3, w4, w3
	add	x2, x8, 125
	add	x4, x9, 125
	add	x7, x8, 157
.L221:
	.loc 1 1262 0
	ldrb	w6, [x2],1
	ldrb	w5, [x4],1
	cmp	w6, w5
	cset	w5, eq
	.loc 1 1260 0 discriminator 1
	cmp	x2, x7
	.loc 1 1262 0
	and	w3, w3, w5
	.loc 1 1260 0 discriminator 1
	bne	.L221
	.loc 1 1265 0
	ldrb	w6, [x8,158]
	ldrb	w4, [x9,158]
	.loc 1 1264 0
	ldrb	w5, [x8,157]
	ldrb	w2, [x9,157]
	.loc 1 1265 0
	cmp	w6, w4
	.loc 1 1266 0
	ldrb	w11, [x8,159]
	.loc 1 1265 0
	cset	w4, eq
	.loc 1 1266 0
	ldrb	w6, [x9,159]
	.loc 1 1264 0
	cmp	w5, w2
	.loc 1 1267 0
	ldrb	w7, [x8,160]
	.loc 1 1264 0
	cset	w2, eq
	.loc 1 1267 0
	ldrb	w5, [x9,160]
	.loc 1 1266 0
	cmp	w11, w6
	.loc 1 1269 0
	ldrb	w9, [x0,7]
	.loc 1 1266 0
	cset	w11, eq
	.loc 1 1269 0
	ldrb	w6, [x1,7]
	.loc 1 1267 0
	cmp	w7, w5
	.loc 1 1274 0
	ldr	w8, [x0,76]
	.loc 1 1267 0
	cset	w5, eq
	.loc 1 1274 0
	ldr	w7, [x1,76]
	.loc 1 1269 0
	cmp	w9, w6
	.loc 1 1273 0
	ldr	w13, [x0,52]
	.loc 1 1269 0
	cset	w6, eq
	.loc 1 1273 0
	ldr	w12, [x1,52]
	.loc 1 1274 0
	cmp	w8, w7
	.loc 1 1275 0
	ldr	w9, [x0,100]
	.loc 1 1274 0
	cset	w7, eq
	.loc 1 1275 0
	ldr	w8, [x1,100]
	.loc 1 1273 0
	cmp	w13, w12
	and	w2, w4, w2
	cset	w4, eq
	and	w2, w11, w2
	.loc 1 1275 0
	cmp	w9, w8
	cset	w9, eq
	and	w5, w5, w2
	and	w2, w7, w4
	and	w5, w6, w5
	and	w9, w9, w2
	.loc 1 1271 0 discriminator 1
	subs	w10, w10, #1
	and	w8, w5, w9
	.loc 1 1275 0
	and	w2, w8, w3
	.loc 1 1271 0 discriminator 1
	beq	.L222
	.loc 1 1274 0
	ldr	w5, [x0,80]
	ldr	w4, [x1,80]
	.loc 1 1273 0
	ldr	w3, [x1,56]
	ldr	w7, [x0,56]
	.loc 1 1274 0
	cmp	w5, w4
	.loc 1 1275 0
	ldr	w6, [x0,104]
	.loc 1 1274 0
	cset	w4, eq
	.loc 1 1275 0
	ldr	w5, [x1,104]
	.loc 1 1273 0
	cmp	w7, w3
	cset	w3, eq
	.loc 1 1275 0
	cmp	w6, w5
	and	w3, w4, w3
	cset	w4, eq
	.loc 1 1271 0 discriminator 1
	cmp	w10, 1
	and	w3, w4, w3
	.loc 1 1275 0
	and	w2, w2, w3
	.loc 1 1271 0 discriminator 1
	beq	.L222
	.loc 1 1274 0
	ldr	w5, [x0,84]
	ldr	w4, [x1,84]
	.loc 1 1273 0
	ldr	w3, [x1,60]
	ldr	w7, [x0,60]
	.loc 1 1274 0
	cmp	w5, w4
	.loc 1 1275 0
	ldr	w6, [x0,108]
	.loc 1 1274 0
	cset	w4, eq
	.loc 1 1275 0
	ldr	w5, [x1,108]
	.loc 1 1273 0
	cmp	w7, w3
	cset	w3, eq
	.loc 1 1275 0
	cmp	w6, w5
	and	w3, w4, w3
	cset	w4, eq
	.loc 1 1271 0 discriminator 1
	cmp	w10, 2
	and	w3, w4, w3
	.loc 1 1275 0
	and	w2, w2, w3
	.loc 1 1271 0 discriminator 1
	beq	.L222
	.loc 1 1274 0
	ldr	w5, [x0,88]
	ldr	w4, [x1,88]
	.loc 1 1273 0
	ldr	w7, [x0,64]
	ldr	w3, [x1,64]
	.loc 1 1274 0
	cmp	w5, w4
	.loc 1 1275 0
	ldr	w6, [x0,112]
	.loc 1 1274 0
	cset	w4, eq
	.loc 1 1275 0
	ldr	w5, [x1,112]
	.loc 1 1273 0
	cmp	w7, w3
	cset	w3, eq
	.loc 1 1275 0
	cmp	w6, w5
	and	w3, w4, w3
	cset	w7, eq
	.loc 1 1271 0 discriminator 1
	cmp	w10, 3
	and	w7, w7, w3
	.loc 1 1275 0
	and	w2, w2, w7
	.loc 1 1271 0 discriminator 1
	beq	.L222
	.loc 1 1274 0
	ldr	w4, [x0,92]
	ldr	w3, [x1,92]
	.loc 1 1273 0
	ldr	w6, [x1,68]
	ldr	w7, [x0,68]
	.loc 1 1274 0
	cmp	w4, w3
	.loc 1 1275 0
	ldr	w5, [x0,116]
	.loc 1 1274 0
	cset	w4, eq
	.loc 1 1275 0
	ldr	w3, [x1,116]
	.loc 1 1273 0
	cmp	w7, w6
	cset	w6, eq
	.loc 1 1275 0
	cmp	w5, w3
	and	w4, w4, w6
	cset	w3, eq
	.loc 1 1271 0 discriminator 1
	cmp	w10, 4
	and	w3, w3, w4
	.loc 1 1275 0
	and	w2, w2, w3
	.loc 1 1271 0 discriminator 1
	beq	.L222
	.loc 1 1274 0
	ldr	w5, [x0,96]
	ldr	w4, [x1,96]
	.loc 1 1273 0
	ldr	w3, [x1,72]
	ldr	w7, [x0,72]
	.loc 1 1274 0
	cmp	w5, w4
	.loc 1 1275 0
	ldr	w6, [x0,120]
	.loc 1 1274 0
	cset	w4, eq
	.loc 1 1275 0
	ldr	w5, [x1,120]
	.loc 1 1273 0
	cmp	w7, w3
	cset	w3, eq
	.loc 1 1275 0
	cmp	w6, w5
	and	w3, w4, w3
	cset	w4, eq
	and	w3, w4, w3
	and	w2, w2, w3
.L222:
	.loc 1 1279 0
	ldr	w4, [x1,32]
	ldr	w8, [x0,32]
	.loc 1 1278 0
	ldr	w3, [x1,28]
	ldr	w5, [x0,28]
	.loc 1 1279 0
	cmp	w8, w4
	cset	w4, eq
	.loc 1 1278 0
	cmp	w5, w3
	cset	w3, eq
	and	w4, w4, w3
	.loc 1 1279 0
	and	w2, w2, w4
	.loc 1 1281 0 discriminator 1
	cbz	w8, .L223
	add	x5, x0, 128
	add	x4, x1, 128
	mov	w3, 1
.LVL203:
.L224:
	.loc 1 1285 0
	ldr	w6, [x4],4
	.loc 1 1281 0 discriminator 2
	add	w3, w3, 1
	.loc 1 1285 0
	ldr	w7, [x5],4
	cmp	w7, w6
	cset	w6, eq
	.loc 1 1281 0 discriminator 1
	cmp	w8, w3
	.loc 1 1285 0
	and	w2, w2, w6
	.loc 1 1281 0 discriminator 1
	bcs	.L224
.L223:
	.loc 1 1288 0
	ldrb	w3, [x1,6]
.LVL204:
	ldrb	w4, [x0,6]
	cmp	w3, w4
	cset	w3, eq
	and	w2, w2, w3
	.loc 1 1290 0
	cbz	w4, .L225
	.loc 1 1293 0
	ldr	w5, [x0,40]
	ldr	w4, [x1,40]
	.loc 1 1292 0
	ldr	w3, [x1,36]
	ldr	w7, [x0,36]
	.loc 1 1293 0
	cmp	w5, w4
	.loc 1 1294 0
	ldrb	w6, [x1,5]
	.loc 1 1293 0
	cset	w4, eq
	.loc 1 1294 0
	ldrb	w5, [x0,5]
	.loc 1 1292 0
	cmp	w7, w3
	cset	w3, eq
	.loc 1 1294 0
	cmp	w6, w5
	and	w3, w4, w3
	cset	w4, eq
	and	w4, w4, w3
	and	w2, w2, w4
	.loc 1 1295 0
	cbz	w5, .L226
	.loc 1 1297 0
	ldr	w3, [x1,44]
	ldr	w4, [x0,44]
	cmp	w4, w3
	cset	w3, eq
	and	w2, w2, w3
.L226:
	.loc 1 1299 0
	ldr	w3, [x0,48]
	ldr	w0, [x1,48]
.LVL205:
	cmp	w3, w0
	cset	w3, eq
	and	w2, w2, w3
.LVL206:
.L225:
	.loc 1 1301 0
	eor	w2, w2, 1
	neg	w0, w2
.LVL207:
.L219:
	.loc 1 1304 0
	ldp	x29, x30, [sp], 16
	.cfi_remember_state
	.cfi_restore 30
	.cfi_restore 29
	.cfi_def_cfa 31, 0
	ret
.LVL208:
.L254:
	.cfi_restore_state
	.loc 1 1245 0 discriminator 1
	adrp	x1, .LC41
.LVL209:
	adrp	x2, .LC42
	mov	w0, 0
.LVL210:
	add	x1, x1, :lo12:.LC41
	add	x2, x2, :lo12:.LC42
	mov	w3, 1245
	bl	dprint_linux_kernel
.LVL211:
	mov	w0, -1
	.loc 1 1245 0 is_stmt 0
	b	.L219
.LVL212:
.L253:
	.loc 1 1244 0 is_stmt 1 discriminator 1
	adrp	x1, .LC41
.LVL213:
	adrp	x2, .LC42
	add	x1, x1, :lo12:.LC41
	add	x2, x2, :lo12:.LC42
	mov	w3, 1244
	bl	dprint_linux_kernel
.LVL214:
	mov	w0, -1
	.loc 1 1244 0 is_stmt 0
	b	.L219
	.cfi_endproc
.LFE2334:
	.size	HEVC_VPSEqual, .-HEVC_VPSEqual
	.align	2
	.global	HEVC_Sei_More_Data_In_Payload
	.type	HEVC_Sei_More_Data_In_Payload, %function
HEVC_Sei_More_Data_In_Payload:
.LFB2343:
	.loc 1 2548 0 is_stmt 1
	.cfi_startproc
.LVL215:
	stp	x29, x30, [sp, -48]!
	.cfi_def_cfa_offset 48
	.cfi_offset 29, -48
	.cfi_offset 30, -40
	add	x29, sp, 0
	.cfi_def_cfa_register 29
	str	x19, [sp,16]
	.cfi_offset 19, -32
	.loc 1 2551 0
	ldr	x3, [x0,2304]
	.loc 1 2548 0
	str	x1, [x29,40]
	.loc 1 2552 0
	mov	x0, x3
.LVL216:
	.loc 1 2551 0
	ldr	w2, [x3,32]
	ldr	w19, [x3,36]
	sub	w19, w2, w19
	.loc 1 2552 0
	bl	BsIsByteAligned
.LVL217:
	.loc 1 2552 0 is_stmt 0 discriminator 1
	ldr	x1, [x29,40]
.LVL218:
	.loc 1 2552 0
	cmp	w0, wzr
	cset	w2, ne
	.loc 1 2552 0 discriminator 1
	cmp	w19, w1, lsl 3
	.loc 1 2560 0 is_stmt 1
	ldr	x19, [sp,16]
	.cfi_restore 19
	.loc 1 2552 0 discriminator 1
	cset	w0, ne
	.loc 1 2560 0
	.loc 1 2552 0 discriminator 1
	and	w0, w2, w0
	.loc 1 2560 0
	eor	w0, w0, 1
	ldp	x29, x30, [sp], 48
	.cfi_restore 30
	.cfi_restore 29
	.cfi_def_cfa 31, 0
	ret
	.cfi_endproc
.LFE2343:
	.size	HEVC_Sei_More_Data_In_Payload, .-HEVC_Sei_More_Data_In_Payload
	.align	2
	.global	HEVC_Sei_Payload_Extension_Present
	.type	HEVC_Sei_Payload_Extension_Present, %function
HEVC_Sei_Payload_Extension_Present:
.LFB2344:
	.loc 1 2564 0
	.cfi_startproc
.LVL219:
	stp	x29, x30, [sp, -96]!
	.cfi_def_cfa_offset 96
	.cfi_offset 29, -96
	.cfi_offset 30, -88
	add	x29, sp, 0
	.cfi_def_cfa_register 29
	stp	x19, x20, [sp,16]
	str	x21, [sp,32]
	.cfi_offset 19, -80
	.cfi_offset 20, -72
	.cfi_offset 21, -64
	.loc 1 2564 0
	adrp	x21, __stack_chk_guard
	.loc 1 2573 0
	lsl	w20, w1, 3
	.loc 1 2600 0
	mov	w1, 0
.LVL220:
	.loc 1 2570 0
	ldr	x0, [x0,2304]
.LVL221:
	.loc 1 2564 0
	ldr	x4, [x21,#:lo12:__stack_chk_guard]
	str	x4, [x29,88]
	.loc 1 2570 0
	ldp	x2, x3, [x0]
	stp	x2, x3, [x29,48]
	ldp	x2, x3, [x0,16]
	stp	x2, x3, [x29,64]
	ldr	x0, [x0,32]
	str	x0, [x29,80]
	.loc 1 2572 0
	lsr	x2, x0, 32
	sub	w0, w0, w2
	.loc 1 2573 0
	cmp	w0, w20
	bcc	.L269
.L257:
	.loc 1 2602 0
	ldr	x2, [x29,88]
	mov	w0, w1
	ldr	x1, [x21,#:lo12:__stack_chk_guard]
	cmp	x2, x1
	bne	.L270
	ldp	x19, x20, [sp,16]
	.cfi_remember_state
	.cfi_restore 20
	.cfi_restore 19
	ldr	x21, [sp,32]
	.cfi_restore 21
	ldp	x29, x30, [sp], 96
	.cfi_restore 30
	.cfi_restore 29
	.cfi_def_cfa 31, 0
	ret
.L269:
	.cfi_restore_state
	.loc 1 2575 0
	mov	w1, 1
	add	x0, x29, 48
	bl	BsShow
.LVL222:
	.loc 1 2595 0
	mov	w1, 1
	.loc 1 2575 0
	cbz	w0, .L257
	.loc 1 2577 0
	add	x0, x29, 48
	bl	BsSkip
.LVL223:
	.loc 1 2578 0
	ldr	w19, [x29,84]
	ldr	w0, [x29,80]
	sub	w19, w0, w19
	.loc 1 2579 0
	b	.L258
.L271:
	.loc 1 2579 0 is_stmt 0 discriminator 1
	cmp	w19, w20
	bcs	.L264
	.loc 1 2581 0 is_stmt 1
	add	x0, x29, 48
	mov	w1, 1
	bl	BsSkip
.LVL224:
	.loc 1 2582 0
	ldr	w19, [x29,84]
	ldr	w0, [x29,80]
	sub	w19, w0, w19
.L258:
	.loc 1 2579 0
	add	x0, x29, 48
	mov	w1, 1
	bl	BsShow
.LVL225:
	.loc 1 2579 0 is_stmt 0 discriminator 1
	cbz	w0, .L271
.L264:
	.loc 1 2584 0 is_stmt 1
	cmp	w20, w19
	cset	w1, hi
	b	.L257
.L270:
	.loc 1 2602 0
	bl	__stack_chk_fail
.LVL226:
	.cfi_endproc
.LFE2344:
	.size	HEVC_Sei_Payload_Extension_Present, .-HEVC_Sei_Payload_Extension_Present
	.align	2
	.global	HEVC_Sei_Decoded_Picture_Hash
	.type	HEVC_Sei_Decoded_Picture_Hash, %function
HEVC_Sei_Decoded_Picture_Hash:
.LFB2345:
	.loc 1 2606 0
	.cfi_startproc
.LVL227:
	stp	x29, x30, [sp, -64]!
	.cfi_def_cfa_offset 64
	.cfi_offset 29, -64
	.cfi_offset 30, -56
	add	x29, sp, 0
	.cfi_def_cfa_register 29
	stp	x19, x20, [sp,16]
	stp	x21, x22, [sp,32]
	str	x23, [sp,48]
	.cfi_offset 19, -48
	.cfi_offset 20, -40
	.cfi_offset 21, -32
	.cfi_offset 22, -24
	.cfi_offset 23, -16
	.loc 1 2611 0
	cbz	x0, .L280
	cbz	x1, .L280
	mov	x23, x1
	mov	x21, x0
.LBB723:
.LBB724:
	.loc 1 10372 0
	ldr	x0, [x0,2304]
.LVL228:
	mov	w1, 8
.LVL229:
	mov	x20, x23
	add	x22, x23, 48
	bl	BsGet
.LVL230:
.LBE724:
.LBE723:
	.loc 1 2617 0
	mov	w19, w0
	.loc 1 2616 0
	str	w0, [x23,48]
	.loc 1 2617 0
	str	w0, [x23,52]
.LBB725:
.LBB726:
	.loc 1 2620 0
	cbnz	w19, .L274
.L283:
	mov	x19, 0
.L275:
.LBB727:
.LBB728:
	.loc 1 10372 0
	ldr	x0, [x21,2304]
	mov	w1, 8
	bl	BsGet
.LVL231:
.LBE728:
.LBE727:
	.loc 1 2624 0
	strb	w0, [x20,x19]
	add	x19, x19, 1
	.loc 1 2622 0 discriminator 1
	cmp	x19, 16
	bne	.L275
.L276:
	add	x20, x20, 16
	.loc 1 2618 0 discriminator 1
	cmp	x20, x22
	beq	.L281
.L285:
	ldr	w19, [x23,52]
	.loc 1 2620 0
	cbz	w19, .L283
.L274:
	.loc 1 2627 0
	cmp	w19, 1
	beq	.L284
	.loc 1 2633 0
	cmp	w19, 2
	bne	.L276
.LBB729:
.LBB730:
	.loc 1 10372 0
	ldr	x0, [x21,2304]
	mov	w1, 32
	add	x20, x20, 16
	bl	BsGet
.LVL232:
.LBE730:
.LBE729:
	.loc 1 2639 0
	strb	w0, [x20,-13]
	.loc 1 2636 0
	lsr	w3, w0, 24
	.loc 1 2637 0
	lsr	w2, w0, 16
	.loc 1 2636 0
	strb	w3, [x20,-16]
	.loc 1 2638 0
	lsr	w1, w0, 8
	.loc 1 2637 0
	strb	w2, [x20,-15]
	.loc 1 2638 0
	strb	w1, [x20,-14]
	.loc 1 2618 0 discriminator 1
	cmp	x20, x22
	bne	.L285
.L281:
	mov	w0, 0
.L273:
.LBE726:
.LBE725:
	.loc 1 2644 0
	ldp	x19, x20, [sp,16]
	.cfi_remember_state
	.cfi_restore 20
	.cfi_restore 19
	ldp	x21, x22, [sp,32]
	.cfi_restore 22
	.cfi_restore 21
.LVL233:
	ldr	x23, [sp,48]
	.cfi_restore 23
.LVL234:
	ldp	x29, x30, [sp], 64
	.cfi_restore 30
	.cfi_restore 29
	.cfi_def_cfa 31, 0
	ret
.LVL235:
.L284:
	.cfi_restore_state
.LBB734:
.LBB733:
.LBB731:
.LBB732:
	.loc 1 10372 0
	ldr	x0, [x21,2304]
	mov	w1, 16
	bl	BsGet
.LVL236:
.LBE732:
.LBE731:
	.loc 1 2630 0
	lsr	w1, w0, 8
	.loc 1 2631 0
	strb	w0, [x20,1]
	.loc 1 2630 0
	strb	w1, [x20]
	b	.L276
.LVL237:
.L280:
.LBE733:
.LBE734:
	.loc 1 2613 0
	mov	w0, -1
.LVL238:
	b	.L273
	.cfi_endproc
.LFE2345:
	.size	HEVC_Sei_Decoded_Picture_Hash, .-HEVC_Sei_Decoded_Picture_Hash
	.align	2
	.global	HEVC_Sei_Region_Refresh_Info
	.type	HEVC_Sei_Region_Refresh_Info, %function
HEVC_Sei_Region_Refresh_Info:
.LFB2349:
	.loc 1 2818 0
	.cfi_startproc
.LVL239:
	stp	x29, x30, [sp, -32]!
	.cfi_def_cfa_offset 32
	.cfi_offset 29, -32
	.cfi_offset 30, -24
	add	x29, sp, 0
	.cfi_def_cfa_register 29
	str	x19, [sp,16]
	.cfi_offset 19, -16
	.loc 1 2819 0
	cbz	x0, .L288
	cbz	x1, .L288
.LBB735:
.LBB736:
	.loc 1 10372 0
	ldr	x0, [x0,2304]
.LVL240:
	mov	x19, x1
	mov	w1, 1
.LVL241:
	bl	BsGet
.LVL242:
.LBE736:
.LBE735:
	.loc 1 2824 0
	strb	w0, [x19]
	.loc 1 2826 0
	mov	w1, 0
.LVL243:
.L287:
	.loc 1 2827 0
	mov	w0, w1
.LVL244:
	ldr	x19, [sp,16]
	.cfi_remember_state
	.cfi_restore 19
.LVL245:
	ldp	x29, x30, [sp], 32
	.cfi_restore 30
	.cfi_restore 29
	.cfi_def_cfa 31, 0
	ret
.LVL246:
.L288:
	.cfi_restore_state
	.loc 1 2821 0
	mov	w1, -1
.LVL247:
	b	.L287
	.cfi_endproc
.LFE2349:
	.size	HEVC_Sei_Region_Refresh_Info, .-HEVC_Sei_Region_Refresh_Info
	.align	2
	.global	HEVC_Sei_Mastering_Display_Colour_Volume
	.type	HEVC_Sei_Mastering_Display_Colour_Volume, %function
HEVC_Sei_Mastering_Display_Colour_Volume:
.LFB2350:
	.loc 1 2830 0
	.cfi_startproc
.LVL248:
	stp	x29, x30, [sp, -48]!
	.cfi_def_cfa_offset 48
	.cfi_offset 29, -48
	.cfi_offset 30, -40
	add	x29, sp, 0
	.cfi_def_cfa_register 29
	stp	x19, x20, [sp,16]
	stp	x21, x22, [sp,32]
	.cfi_offset 19, -32
	.cfi_offset 20, -24
	.cfi_offset 21, -16
	.cfi_offset 22, -8
	.loc 1 2832 0
	cbz	x0, .L292
	cbz	x1, .L292
	mov	x21, x1
	mov	x20, x0
	mov	x19, x1
	add	x22, x1, 12
.L291:
	add	x19, x19, 4
.LBB737:
.LBB738:
	.loc 1 10372 0
	ldr	x0, [x20,2304]
	mov	w1, 16
	bl	BsGet
.LVL249:
.LBE738:
.LBE737:
	.loc 1 2838 0
	str	w0, [x19,-4]
.LBB739:
.LBB740:
	.loc 1 10372 0
	mov	w1, 16
	ldr	x0, [x20,2304]
	bl	BsGet
.LVL250:
.LBE740:
.LBE739:
	.loc 1 2839 0
	str	w0, [x19,8]
	.loc 1 2836 0 discriminator 1
	cmp	x19, x22
	bne	.L291
.LBB741:
.LBB742:
	.loc 1 10372 0
	ldr	x0, [x20,2304]
	mov	w1, 16
	bl	BsGet
.LVL251:
.LBE742:
.LBE741:
	.loc 1 2841 0
	str	w0, [x21,24]
.LBB743:
.LBB744:
	.loc 1 10372 0
	mov	w1, 16
	ldr	x0, [x20,2304]
	bl	BsGet
.LVL252:
.LBE744:
.LBE743:
	.loc 1 2842 0
	str	w0, [x21,28]
.LBB745:
.LBB746:
	.loc 1 10372 0
	mov	w1, 32
	ldr	x0, [x20,2304]
	bl	BsGet
.LVL253:
.LBE746:
.LBE745:
	.loc 1 2843 0
	str	w0, [x21,32]
.LBB747:
.LBB748:
	.loc 1 10372 0
	mov	w1, 32
	ldr	x0, [x20,2304]
	bl	BsGet
.LVL254:
.LBE748:
.LBE747:
	.loc 1 2844 0
	str	w0, [x21,36]
	.loc 1 2846 0
	mov	w1, 0
.LVL255:
.L290:
	.loc 1 2847 0
	mov	w0, w1
	ldp	x19, x20, [sp,16]
	.cfi_remember_state
	.cfi_restore 20
	.cfi_restore 19
.LVL256:
	ldp	x21, x22, [sp,32]
	.cfi_restore 22
	.cfi_restore 21
.LVL257:
	ldp	x29, x30, [sp], 48
	.cfi_restore 30
	.cfi_restore 29
	.cfi_def_cfa 31, 0
	ret
.LVL258:
.L292:
	.cfi_restore_state
	.loc 1 2834 0
	mov	w1, -1
.LVL259:
	b	.L290
	.cfi_endproc
.LFE2350:
	.size	HEVC_Sei_Mastering_Display_Colour_Volume, .-HEVC_Sei_Mastering_Display_Colour_Volume
	.align	2
	.global	HEVC_Sei_Temporal_Sub_Layer_Zero_Index
	.type	HEVC_Sei_Temporal_Sub_Layer_Zero_Index, %function
HEVC_Sei_Temporal_Sub_Layer_Zero_Index:
.LFB2351:
	.loc 1 2851 0
	.cfi_startproc
.LVL260:
	stp	x29, x30, [sp, -32]!
	.cfi_def_cfa_offset 32
	.cfi_offset 29, -32
	.cfi_offset 30, -24
	add	x29, sp, 0
	.cfi_def_cfa_register 29
	stp	x19, x20, [sp,16]
	.cfi_offset 19, -16
	.cfi_offset 20, -8
	.loc 1 2852 0
	cbz	x0, .L296
	cbz	x1, .L296
	mov	x20, x1
	mov	x19, x0
.LBB749:
.LBB750:
	.loc 1 10372 0
	ldr	x0, [x0,2304]
.LVL261:
	mov	w1, 1
.LVL262:
	bl	BsGet
.LVL263:
.LBE750:
.LBE749:
	.loc 1 2857 0
	str	w0, [x20]
.LBB751:
.LBB752:
	.loc 1 10372 0
	mov	w1, 1
	ldr	x0, [x19,2304]
	bl	BsGet
.LVL264:
.LBE752:
.LBE751:
	.loc 1 2858 0
	str	w0, [x20,4]
	.loc 1 2859 0
	ldr	x0, [x19,2304]
	bl	BsToNextByte
.LVL265:
	.loc 1 2861 0
	mov	w0, 0
.L295:
	.loc 1 2862 0
	ldp	x19, x20, [sp,16]
	.cfi_remember_state
	.cfi_restore 20
	.cfi_restore 19
.LVL266:
	ldp	x29, x30, [sp], 32
	.cfi_restore 30
	.cfi_restore 29
	.cfi_def_cfa 31, 0
	ret
.LVL267:
.L296:
	.cfi_restore_state
	.loc 1 2854 0
	mov	w0, -1
.LVL268:
	b	.L295
	.cfi_endproc
.LFE2351:
	.size	HEVC_Sei_Temporal_Sub_Layer_Zero_Index, .-HEVC_Sei_Temporal_Sub_Layer_Zero_Index
	.align	2
	.global	HEVC_Sei_Display_Orientation
	.type	HEVC_Sei_Display_Orientation, %function
HEVC_Sei_Display_Orientation:
.LFB2352:
	.loc 1 2866 0
	.cfi_startproc
.LVL269:
	stp	x29, x30, [sp, -32]!
	.cfi_def_cfa_offset 32
	.cfi_offset 29, -32
	.cfi_offset 30, -24
	add	x29, sp, 0
	.cfi_def_cfa_register 29
	stp	x19, x20, [sp,16]
	.cfi_offset 19, -16
	.cfi_offset 20, -8
	.loc 1 2867 0
	cbz	x0, .L300
	cbz	x1, .L300
	mov	x20, x1
	mov	x19, x0
.LBB753:
.LBB754:
	.loc 1 10372 0
	ldr	x0, [x0,2304]
.LVL270:
	mov	w1, 1
.LVL271:
	bl	BsGet
.LVL272:
.LBE754:
.LBE753:
	.loc 1 2872 0
	uxtb	w0, w0
	strb	w0, [x20,2]
	.loc 1 2874 0
	cbz	w0, .L301
.L299:
	.loc 1 2882 0
	ldr	x0, [x19,2304]
	bl	BsToNextByte
.LVL273:
	.loc 1 2884 0
	mov	w0, 0
.L298:
	.loc 1 2885 0
	ldp	x19, x20, [sp,16]
	.cfi_remember_state
	.cfi_restore 20
	.cfi_restore 19
.LVL274:
	ldp	x29, x30, [sp], 32
	.cfi_restore 30
	.cfi_restore 29
	.cfi_def_cfa 31, 0
	ret
.LVL275:
.L301:
	.cfi_restore_state
.LBB755:
.LBB756:
	.loc 1 10372 0
	ldr	x0, [x19,2304]
	mov	w1, 1
	bl	BsGet
.LVL276:
.LBE756:
.LBE755:
	.loc 1 2876 0
	strb	w0, [x20]
.LBB757:
.LBB758:
	.loc 1 10372 0
	mov	w1, 1
	ldr	x0, [x19,2304]
	bl	BsGet
.LVL277:
.LBE758:
.LBE757:
	.loc 1 2877 0
	strb	w0, [x20,1]
.LBB759:
.LBB760:
	.loc 1 10372 0
	mov	w1, 16
	ldr	x0, [x19,2304]
	bl	BsGet
.LVL278:
.LBE760:
.LBE759:
	.loc 1 2878 0
	str	w0, [x20,4]
.LBB761:
.LBB762:
	.loc 1 10372 0
	mov	w1, 1
	ldr	x0, [x19,2304]
	bl	BsGet
.LVL279:
.LBE762:
.LBE761:
	.loc 1 2879 0
	strb	w0, [x20,3]
	b	.L299
.LVL280:
.L300:
	.loc 1 2869 0
	mov	w0, -1
.LVL281:
	b	.L298
	.cfi_endproc
.LFE2352:
	.size	HEVC_Sei_Display_Orientation, .-HEVC_Sei_Display_Orientation
	.align	2
	.global	HEVC_Sei_Recovery_Point
	.type	HEVC_Sei_Recovery_Point, %function
HEVC_Sei_Recovery_Point:
.LFB2354:
	.loc 1 2933 0
	.cfi_startproc
.LVL282:
	stp	x29, x30, [sp, -64]!
	.cfi_def_cfa_offset 64
	.cfi_offset 29, -64
	.cfi_offset 30, -56
	add	x29, sp, 0
	.cfi_def_cfa_register 29
	stp	x19, x20, [sp,16]
	stp	x21, x22, [sp,32]
	str	x23, [sp,48]
	.cfi_offset 19, -48
	.cfi_offset 20, -40
	.cfi_offset 21, -32
	.cfi_offset 22, -24
	.cfi_offset 23, -16
	.loc 1 2934 0
	cbz	x0, .L307
	cbz	x1, .L307
	.loc 1 2939 0
	ldr	x22, [x0,2304]
	mov	x20, x1
	mov	x19, x0
.LBB769:
.LBB770:
	.loc 1 10451 0
	mov	w1, 32
.LVL283:
	mov	x0, x22
.LVL284:
	bl	BsShow
.LVL285:
	.loc 1 10452 0
	bl	ZerosMS_32
.LVL286:
	.loc 1 10455 0
	cmp	w0, 31
	.loc 1 10468 0
	mov	w2, 2147483647
	.loc 1 10455 0
	bls	.L309
.L304:
.LBE770:
.LBE769:
	.loc 1 2939 0
	str	w2, [x20,4]
.LBB772:
.LBB773:
	.loc 1 10372 0
	mov	w1, 1
	ldr	x0, [x19,2304]
.LVL287:
	bl	BsGet
.LVL288:
.LBE773:
.LBE772:
	.loc 1 2940 0
	strb	w0, [x20]
.LBB774:
.LBB775:
	.loc 1 10372 0
	mov	w1, 1
	ldr	x0, [x19,2304]
	bl	BsGet
.LVL289:
.LBE775:
.LBE774:
	.loc 1 2941 0
	strb	w0, [x20,1]
	.loc 1 2942 0
	ldr	x0, [x19,2304]
	bl	BsToNextByte
.LVL290:
	.loc 1 2944 0
	mov	w0, 0
.L303:
	.loc 1 2945 0
	ldp	x19, x20, [sp,16]
	.cfi_remember_state
	.cfi_restore 20
	.cfi_restore 19
.LVL291:
	ldp	x21, x22, [sp,32]
	.cfi_restore 22
	.cfi_restore 21
	ldr	x23, [sp,48]
	.cfi_restore 23
	ldp	x29, x30, [sp], 64
	.cfi_restore 30
	.cfi_restore 29
	.cfi_def_cfa 31, 0
	ret
.LVL292:
.L309:
	.cfi_restore_state
.LBB776:
.LBB771:
	.loc 1 10457 0
	mov	w1, w0
	mov	x0, x22
.LVL293:
	.loc 1 10458 0
	add	w23, w1, 1
	.loc 1 10457 0
	bl	BsSkip
.LVL294:
	.loc 1 10458 0
	mov	w1, w23
	mov	x0, x22
	bl	BsShow
.LVL295:
	sub	w0, w0, #1
	.loc 1 10460 0
	asr	w2, w0, 1
	.loc 1 10461 0
	and	w0, w0, 1
	.loc 1 10461 0 is_stmt 0 discriminator 1
	cmp	w0, wzr
	.loc 1 10462 0 is_stmt 1
	mov	w1, w23
	mov	x0, x22
	.loc 1 10461 0 discriminator 1
	neg	w21, w2
	csinc	w21, w21, w2, eq
	.loc 1 10462 0
	bl	BsSkip
.LVL296:
	.loc 1 10471 0
	mov	w2, w21
	b	.L304
.LVL297:
.L307:
.LBE771:
.LBE776:
	.loc 1 2936 0
	mov	w0, -1
.LVL298:
	b	.L303
	.cfi_endproc
.LFE2354:
	.size	HEVC_Sei_Recovery_Point, .-HEVC_Sei_Recovery_Point
	.align	2
	.global	HEVC_Sei_Dec_Unit_Info
	.type	HEVC_Sei_Dec_Unit_Info, %function
HEVC_Sei_Dec_Unit_Info:
.LFB2355:
	.loc 1 2949 0
	.cfi_startproc
.LVL299:
	stp	x29, x30, [sp, -64]!
	.cfi_def_cfa_offset 64
	.cfi_offset 29, -64
	.cfi_offset 30, -56
	.loc 1 2950 0
	cmp	x1, xzr
	cset	w4, eq
	.loc 1 2950 0 is_stmt 0 discriminator 1
	cmp	x2, xzr
	.loc 1 2949 0 is_stmt 1
	add	x29, sp, 0
	.cfi_def_cfa_register 29
	.loc 1 2950 0 discriminator 1
	cset	w3, eq
	.loc 1 2949 0
	.loc 1 2950 0 discriminator 1
	orr	w3, w4, w3
	.loc 1 2949 0
	stp	x19, x20, [sp,16]
	stp	x21, x22, [sp,32]
	stp	x23, x24, [sp,48]
	.cfi_offset 19, -48
	.cfi_offset 20, -40
	.cfi_offset 21, -32
	.cfi_offset 22, -24
	.cfi_offset 23, -16
	.cfi_offset 24, -8
	.loc 1 2950 0 discriminator 1
	cbnz	w3, .L317
	cbz	x0, .L317
	.loc 1 2955 0
	ldr	x22, [x0,2304]
	mov	x19, x0
	mov	x20, x1
.LBB785:
.LBB786:
	.loc 1 10413 0
	mov	w1, 32
.LVL300:
	mov	x0, x22
.LVL301:
	mov	x21, x2
	bl	BsShow
.LVL302:
	.loc 1 10414 0
	bl	ZerosMS_32
.LVL303:
	.loc 1 10416 0
	cmp	w0, 31
	.loc 1 10414 0
	mov	w2, w0
.LVL304:
	.loc 1 10416 0
	bls	.L321
	.loc 1 10427 0
	adrp	x1, .LC43
	mov	w0, 1
	add	x1, x1, :lo12:.LC43
	mov	w3, -4370
	bl	dprint_linux_kernel
.LVL305:
	mov	w0, -4370
.LBE786:
.LBE785:
	.loc 1 2955 0
	str	w0, [x20,4]
	.loc 1 2957 0
	ldrb	w0, [x21,3]
	cbnz	w0, .L322
.L314:
	.loc 1 2963 0
	str	wzr, [x20,8]
.LBB788:
.LBB789:
	.loc 1 10372 0
	mov	w1, 1
	ldr	x0, [x19,2304]
	bl	BsGet
.LVL306:
.LBE789:
.LBE788:
	.loc 1 2966 0
	uxtb	w0, w0
	strb	w0, [x20]
	.loc 1 2968 0
	cbnz	w0, .L323
.L316:
	.loc 1 2973 0
	ldr	x0, [x19,2304]
	bl	BsToNextByte
.LVL307:
	.loc 1 2975 0
	mov	w0, 0
.L311:
	.loc 1 2976 0
	ldp	x19, x20, [sp,16]
	.cfi_remember_state
	.cfi_restore 20
	.cfi_restore 19
.LVL308:
	ldp	x21, x22, [sp,32]
	.cfi_restore 22
	.cfi_restore 21
.LVL309:
	ldp	x23, x24, [sp,48]
	.cfi_restore 24
	.cfi_restore 23
	ldp	x29, x30, [sp], 64
	.cfi_restore 30
	.cfi_restore 29
	.cfi_def_cfa 31, 0
	ret
.LVL310:
.L321:
	.cfi_restore_state
.LBB791:
.LBB787:
	.loc 1 10419 0
	mov	w1, w0
	mov	x0, x22
	.loc 1 10420 0
	add	w24, w2, 1
.LVL311:
	.loc 1 10419 0
	bl	BsSkip
.LVL312:
	.loc 1 10420 0
	mov	w1, w24
	mov	x0, x22
	bl	BsShow
.LVL313:
	mov	w23, w0
	.loc 1 10421 0
	mov	w1, w24
	mov	x0, x22
	bl	BsSkip
.LVL314:
	.loc 1 10420 0
	sub	w0, w23, #1
.LBE787:
.LBE791:
	.loc 1 2955 0
	str	w0, [x20,4]
	.loc 1 2957 0
	ldrb	w0, [x21,3]
	cbz	w0, .L314
.L322:
	.loc 1 2959 0
	ldr	w1, [x21,8]
.LBB792:
.LBB793:
	.loc 1 10372 0
	ldr	x0, [x19,2304]
	add	w1, w1, 1
	bl	BsGet
.LVL315:
.LBE793:
.LBE792:
	.loc 1 2959 0
	str	w0, [x20,8]
.LBB794:
.LBB790:
	.loc 1 10372 0
	mov	w1, 1
	ldr	x0, [x19,2304]
	bl	BsGet
.LVL316:
.LBE790:
.LBE794:
	.loc 1 2966 0
	uxtb	w0, w0
	strb	w0, [x20]
	.loc 1 2968 0
	cbz	w0, .L316
.L323:
	.loc 1 2970 0
	ldr	w1, [x21,12]
.LBB795:
.LBB796:
	.loc 1 10372 0
	ldr	x0, [x19,2304]
	add	w1, w1, 1
	bl	BsGet
.LVL317:
.LBE796:
.LBE795:
	.loc 1 2970 0
	str	w0, [x20,12]
	b	.L316
.LVL318:
.L317:
	.loc 1 2952 0
	mov	w0, -1
.LVL319:
	b	.L311
	.cfi_endproc
.LFE2355:
	.size	HEVC_Sei_Dec_Unit_Info, .-HEVC_Sei_Dec_Unit_Info
	.align	2
	.global	HEVC_Sei_User_Data_Unregistered
	.type	HEVC_Sei_User_Data_Unregistered, %function
HEVC_Sei_User_Data_Unregistered:
.LFB2359:
	.loc 1 3119 0
	.cfi_startproc
.LVL320:
	stp	x29, x30, [sp, -64]!
	.cfi_def_cfa_offset 64
	.cfi_offset 29, -64
	.cfi_offset 30, -56
	.loc 1 3122 0
	cmp	w2, 15
	.loc 1 3119 0
	add	x29, sp, 0
	.cfi_def_cfa_register 29
	stp	x19, x20, [sp,16]
	stp	x21, x22, [sp,32]
	str	x23, [sp,48]
	.cfi_offset 19, -48
	.cfi_offset 20, -40
	.cfi_offset 21, -32
	.cfi_offset 22, -24
	.cfi_offset 23, -16
	.loc 1 3119 0
	mov	x22, x1
	mov	w23, w2
	mov	x20, x0
	add	x19, x1, 8
	add	x21, x1, 24
	.loc 1 3122 0
	bls	.L334
.L331:
.LBB807:
.LBB808:
	.loc 1 10372 0
	ldr	x0, [x20,2304]
	mov	w1, 8
	bl	BsGet
.LVL321:
.LBE808:
.LBE807:
	.loc 1 3130 0
	strb	w0, [x19],1
	.loc 1 3128 0 discriminator 1
	cmp	x19, x21
	bne	.L331
	.loc 1 3133 0
	sub	w23, w23, #16
.LVL322:
	str	w23, [x22,24]
	mov	w19, 0
.LVL323:
	.loc 1 3134 0
	cbz	w23, .L335
.L330:
.LBB809:
.LBB810:
	.loc 1 10372 0
	ldr	x0, [x20,2304]
	mov	w1, 8
.LBE810:
.LBE809:
	.loc 1 3140 0 discriminator 3
	add	w19, w19, 1
.LBB812:
.LBB811:
	.loc 1 10372 0
	bl	BsGet
.LVL324:
.LBE811:
.LBE812:
	.loc 1 3140 0 discriminator 1
	ldr	w0, [x22,24]
	cmp	w0, w19
	bhi	.L330
	.loc 1 3145 0
	mov	w0, 0
.LVL325:
.L326:
	.loc 1 3146 0
	ldp	x19, x20, [sp,16]
	.cfi_remember_state
	.cfi_restore 20
	.cfi_restore 19
.LVL326:
	ldp	x21, x22, [sp,32]
	.cfi_restore 22
	.cfi_restore 21
.LVL327:
	ldr	x23, [sp,48]
	.cfi_restore 23
.LVL328:
	ldp	x29, x30, [sp], 64
	.cfi_restore 30
	.cfi_restore 29
	.cfi_def_cfa 31, 0
	ret
.LVL329:
.L335:
	.cfi_restore_state
	.loc 1 3136 0
	str	xzr, [x22]
	.loc 1 3137 0
	mov	w0, 0
	.loc 1 3146 0
	ldp	x19, x20, [sp,16]
	.cfi_remember_state
	.cfi_restore 19
	.cfi_restore 20
.LVL330:
	ldp	x21, x22, [sp,32]
	.cfi_restore 21
	.cfi_restore 22
.LVL331:
	ldr	x23, [sp,48]
	.cfi_restore 23
	ldp	x29, x30, [sp], 64
	.cfi_restore 29
	.cfi_restore 30
	.cfi_def_cfa 31, 0
	ret
.LVL332:
.L334:
	.cfi_restore_state
.LBB813:
.LBB814:
	.loc 1 3124 0
	adrp	x1, .LC44
.LVL333:
	mov	w0, 1
	add	x1, x1, :lo12:.LC44
	bl	dprint_linux_kernel
.LVL334:
	mov	w0, -1
	b	.L326
.LBE814:
.LBE813:
	.cfi_endproc
.LFE2359:
	.size	HEVC_Sei_User_Data_Unregistered, .-HEVC_Sei_User_Data_Unregistered
	.align	2
	.global	HEVC_IsRefListWrong
	.type	HEVC_IsRefListWrong, %function
HEVC_IsRefListWrong:
.LFB2360:
	.loc 1 3151 0
	.cfi_startproc
.LVL335:
	stp	x29, x30, [sp, -64]!
	.cfi_def_cfa_offset 64
	.cfi_offset 29, -64
	.cfi_offset 30, -56
	add	x29, sp, 0
	.cfi_def_cfa_register 29
	stp	x21, x22, [sp,32]
	.cfi_offset 21, -32
	.cfi_offset 22, -24
	.loc 1 3158 0
	add	x22, x0, 49152
	.loc 1 3151 0
	str	x23, [sp,48]
	stp	x19, x20, [sp,16]
	.cfi_offset 23, -16
	.cfi_offset 19, -48
	.cfi_offset 20, -40
	.loc 1 3158 0
	ldr	w3, [x22,2864]
	.loc 1 3161 0 discriminator 1
	cbz	w3, .L337
	mov	x21, x0
	.loc 1 3163 0
	ldr	x0, [x0,2360]
.LVL336:
	cbz	x0, .L357
	.loc 1 3170 0
	ldr	x1, [x0,32]
	add	x20, x21, 2368
	mov	w19, 0
	cbnz	x1, .L343
	b	.L382
.L384:
	.loc 1 3179 0 discriminator 1
	ldr	x1, [x0,296]
	cbz	x1, .L344
	.loc 1 3161 0 discriminator 1
	ldr	w3, [x22,2864]
	.loc 1 3161 0 is_stmt 0 discriminator 2
	add	w19, w19, 1
	.loc 1 3161 0 discriminator 1
	cmp	w19, w3
	bcs	.L383
	.loc 1 3163 0 is_stmt 1
	ldr	x1, [x20]
	add	x20, x20, 8
	cbz	x1, .L338
	.loc 1 3170 0
	ldr	x1, [x1,32]
	cbz	x1, .L339
.L343:
	.loc 1 3177 0
	ldr	w1, [x1,32]
	ldr	w0, [x21,240]
	bl	FSP_GetLogicFs
.LVL337:
	.loc 1 3179 0
	cbnz	x0, .L384
.L344:
	.loc 1 3182 0
	add	x21, x21, x19, sxtw 3
.LVL338:
	ldr	x3, [x21,2360]
	adrp	x1, .LC47
	mov	x4, x0
	mov	w2, w19
	add	x1, x1, :lo12:.LC47
	ldr	x3, [x3,32]
	mov	w0, 1
	bl	dprint_linux_kernel
.LVL339:
	.loc 1 3234 0 discriminator 1
	mov	w0, -1
.LVL340:
.L385:
	.loc 1 3237 0
	ldp	x19, x20, [sp,16]
	.cfi_remember_state
	.cfi_restore 19
	.cfi_restore 20
.LVL341:
	ldp	x21, x22, [sp,32]
	.cfi_restore 21
	.cfi_restore 22
.LVL342:
	ldr	x23, [sp,48]
	.cfi_restore 23
	ldp	x29, x30, [sp], 64
	.cfi_restore 29
	.cfi_restore 30
	.cfi_def_cfa 31, 0
	ret
.LVL343:
.L337:
	.cfi_restore_state
	.loc 1 3234 0 discriminator 2
	mov	w0, 0
.LVL344:
	.loc 1 3237 0
	ldr	x23, [sp,48]
	.cfi_remember_state
	.cfi_restore 23
	ldp	x19, x20, [sp,16]
	.cfi_restore 20
	.cfi_restore 19
.LVL345:
	ldp	x21, x22, [sp,32]
	.cfi_restore 22
	.cfi_restore 21
.LVL346:
	ldp	x29, x30, [sp], 64
	.cfi_restore 30
	.cfi_restore 29
	.cfi_def_cfa 31, 0
	ret
.LVL347:
.L357:
	.cfi_restore_state
	.loc 1 3163 0
	mov	w19, 0
.L338:
	.loc 1 3166 0
	adrp	x1, .LC45
	mov	w2, w19
	add	x1, x1, :lo12:.LC45
	mov	w0, 1
	bl	dprint_linux_kernel
.LVL348:
	.loc 1 3234 0 discriminator 1
	mov	w0, -1
.LVL349:
	b	.L385
.LVL350:
.L382:
	.loc 1 3170 0
	mov	w19, 0
.L339:
	.loc 1 3173 0
	adrp	x1, .LC46
	mov	w2, w19
	add	x1, x1, :lo12:.LC46
	mov	w0, 1
	bl	dprint_linux_kernel
.LVL351:
	.loc 1 3234 0 discriminator 1
	mov	w0, -1
.LVL352:
	b	.L385
.LVL353:
.L383:
	.loc 1 3194 0 discriminator 1
	cbz	w3, .L337
	.loc 1 3198 0 discriminator 1
	ldr	w0, [x22,2868]
	cbz	w0, .L337
	.loc 1 3200 0
	ldr	x0, [x21,2496]
	cbz	x0, .L359
	.loc 1 3207 0
	ldr	x0, [x0,32]
	cbz	x0, .L360
	add	x20, x21, 2504
	mov	w19, 0
	.loc 1 3198 0 discriminator 1
	add	x23, x22, 2868
	b	.L350
.L388:
	.loc 1 3216 0 discriminator 1
	ldr	x1, [x0,296]
	cbz	x1, .L351
	.loc 1 3198 0 discriminator 1
	ldr	w0, [x23]
	.loc 1 3198 0 is_stmt 0 discriminator 2
	add	w19, w19, 1
	.loc 1 3198 0 discriminator 1
	cmp	w19, w0
	bcs	.L337
	.loc 1 3200 0 is_stmt 1
	ldr	x0, [x20]
	add	x20, x20, 8
	cbz	x0, .L386
	.loc 1 3207 0
	ldr	x0, [x0,32]
	cbz	x0, .L387
.L350:
	.loc 1 3214 0
	ldr	w1, [x0,32]
	ldr	w0, [x21,240]
	bl	FSP_GetLogicFs
.LVL354:
	.loc 1 3216 0
	cbnz	x0, .L388
.L351:
	.loc 1 3219 0
	adrp	x1, .LC50
	mov	x3, x0
	mov	w2, w19
	add	x1, x1, :lo12:.LC50
	mov	w0, 1
	bl	dprint_linux_kernel
.LVL355:
	.loc 1 3234 0 discriminator 1
	mov	w0, -1
.LVL356:
	b	.L385
.LVL357:
.L386:
	ldr	w3, [x22,2864]
.L354:
	.loc 1 3203 0
	adrp	x1, .LC48
	mov	w2, w19
	add	x1, x1, :lo12:.LC48
	mov	w0, 1
	bl	dprint_linux_kernel
.LVL358:
	.loc 1 3234 0 discriminator 1
	mov	w0, -1
.LVL359:
	b	.L385
.LVL360:
.L387:
	ldr	w3, [x22,2864]
.L355:
	.loc 1 3210 0
	adrp	x1, .LC49
	mov	w2, w19
	add	x1, x1, :lo12:.LC49
	mov	w0, 1
	bl	dprint_linux_kernel
.LVL361:
	.loc 1 3234 0 discriminator 1
	mov	w0, -1
.LVL362:
	b	.L385
.LVL363:
.L360:
	.loc 1 3207 0
	mov	w19, 0
	b	.L355
.L359:
	.loc 1 3200 0
	mov	w19, 0
	b	.L354
	.cfi_endproc
.LFE2360:
	.size	HEVC_IsRefListWrong, .-HEVC_IsRefListWrong
	.align	2
	.global	HEVC_GetUnRefPicWithMinPoc
	.type	HEVC_GetUnRefPicWithMinPoc, %function
HEVC_GetUnRefPicWithMinPoc:
.LFB2361:
	.loc 1 3241 0
	.cfi_startproc
.LVL364:
	stp	x29, x30, [sp, -32]!
	.cfi_def_cfa_offset 32
	.cfi_offset 29, -32
	.cfi_offset 30, -24
	add	x29, sp, 0
	.cfi_def_cfa_register 29
	str	x19, [sp,16]
	.cfi_offset 19, -16
	.loc 1 3245 0
	mov	w19, -1
	str	w19, [x1]
	.loc 1 3247 0
	ldr	w3, [x0,2676]
	cmp	w3, 16
	bhi	.L390
	.loc 1 3253 0 discriminator 1
	cbz	w3, .L392
	add	x5, x0, 2696
	mov	w4, 2147483647
	mov	w2, 0
.LVL365:
.L395:
	.loc 1 3255 0
	ldr	x6, [x5]
	add	x5, x5, 8
	ldr	w7, [x6,12]
	cmp	w7, w4
	bge	.L394
	.loc 1 3257 0
	ldr	w6, [x6]
	tst	w6, 16776960
	bne	.L394
	.loc 1 3260 0
	str	w2, [x1]
	mov	w4, w7
	ldr	w3, [x0,2676]
.L394:
	.loc 1 3253 0 discriminator 2
	add	w2, w2, 1
	.loc 1 3253 0 is_stmt 0 discriminator 1
	cmp	w3, w2
	bhi	.L395
	ldr	w3, [x1]
	.loc 1 3264 0 is_stmt 1
	cmn	w3, #1
	beq	.L392
	.loc 1 3271 0
	adrp	x2, .LANCHOR0
.LVL366:
	adrp	x1, .LC53
.LVL367:
	add	x2, x2, :lo12:.LANCHOR0
	mov	w0, 1
.LVL368:
	add	x1, x1, :lo12:.LC53
	add	x2, x2, 160
	bl	dprint_linux_kernel
.LVL369:
	.loc 1 3272 0
	mov	w0, 0
.L393:
	.loc 1 3274 0
	ldr	x19, [sp,16]
	.cfi_remember_state
	.cfi_restore 19
	ldp	x29, x30, [sp], 32
	.cfi_restore 30
	.cfi_restore 29
	.cfi_def_cfa 31, 0
	ret
.LVL370:
.L390:
	.cfi_restore_state
	.loc 1 3249 0
	adrp	x2, .LANCHOR0
	adrp	x1, .LC51
.LVL371:
	add	x2, x2, :lo12:.LANCHOR0
	mov	w0, 1
.LVL372:
	add	x1, x1, :lo12:.LC51
	add	x2, x2, 160
	bl	dprint_linux_kernel
.LVL373:
	.loc 1 3250 0
	mov	w0, w19
	b	.L393
.LVL374:
.L392:
.LBB817:
.LBB818:
	.loc 1 3266 0
	adrp	x2, .LANCHOR0
.LVL375:
	adrp	x1, .LC52
.LVL376:
	add	x2, x2, :lo12:.LANCHOR0
	mov	w0, 1
.LVL377:
	add	x1, x1, :lo12:.LC52
	add	x2, x2, 160
	bl	dprint_linux_kernel
.LVL378:
	mov	w0, -1
	b	.L393
.LBE818:
.LBE817:
	.cfi_endproc
.LFE2361:
	.size	HEVC_GetUnRefPicWithMinPoc, .-HEVC_GetUnRefPicWithMinPoc
	.align	2
	.global	HEVC_IncreaseDPBSize
	.type	HEVC_IncreaseDPBSize, %function
HEVC_IncreaseDPBSize:
.LFB2362:
	.loc 1 3277 0
	.cfi_startproc
.LVL379:
	stp	x29, x30, [sp, -32]!
	.cfi_def_cfa_offset 32
	.cfi_offset 29, -32
	.cfi_offset 30, -24
	add	x29, sp, 0
	.cfi_def_cfa_register 29
	str	x19, [sp,16]
	.cfi_offset 19, -16
	.loc 1 3277 0
	mov	x19, x0
	.loc 1 3280 0
	ldr	w3, [x0,2672]
	cmp	w3, 16
	bhi	.L402
	.loc 1 3287 0
	ldr	w0, [x0,240]
	bl	FSP_GetTotalValidFsNum
.LVL380:
	.loc 1 3288 0
	cmp	w0, wzr
	.loc 1 3287 0
	mov	w4, w0
.LVL381:
	.loc 1 3288 0
	ble	.L401
	.loc 1 3288 0 is_stmt 0 discriminator 1
	ldr	w3, [x19,2672]
	add	w3, w3, 1
.LVL382:
	cmp	w0, w3
	bcc	.L401
	.loc 1 3291 0 is_stmt 1
	adrp	x2, .LANCHOR0
	adrp	x1, .LC55
	add	x2, x2, :lo12:.LANCHOR0
	.loc 1 3290 0
	str	w3, [x19,2672]
	.loc 1 3291 0
	mov	w0, 13
	add	x1, x1, :lo12:.LC55
	add	x2, x2, 192
	bl	dprint_linux_kernel
.LVL383:
	.loc 1 3292 0
	mov	w0, 0
.L400:
	.loc 1 3299 0
	ldr	x19, [sp,16]
	.cfi_remember_state
	.cfi_restore 19
.LVL384:
	ldp	x29, x30, [sp], 32
	.cfi_restore 30
	.cfi_restore 29
	.cfi_def_cfa 31, 0
	ret
.LVL385:
.L401:
	.cfi_restore_state
	.loc 1 3296 0
	adrp	x2, .LANCHOR0
	adrp	x1, .LC56
	add	x2, x2, :lo12:.LANCHOR0
	mov	w0, 1
	add	x1, x1, :lo12:.LC56
	add	x2, x2, 192
	mov	w3, w4
	bl	dprint_linux_kernel
.LVL386:
	.loc 1 3297 0
	mov	w0, -1
	b	.L400
.LVL387:
.L402:
	.loc 1 3282 0
	adrp	x2, .LANCHOR0
	adrp	x1, .LC54
	add	x2, x2, :lo12:.LANCHOR0
	add	x1, x1, :lo12:.LC54
	mov	w0, 1
.LVL388:
	add	x2, x2, 192
	mov	w4, 17
	bl	dprint_linux_kernel
.LVL389:
	.loc 1 3283 0
	mov	w1, 17
	.loc 1 3284 0
	mov	w0, -1
	.loc 1 3283 0
	str	w1, [x19,2672]
	.loc 1 3284 0
	b	.L400
	.cfi_endproc
.LFE2362:
	.size	HEVC_IncreaseDPBSize, .-HEVC_IncreaseDPBSize
	.align	2
	.global	HEVC_PicTypeStatistic
	.type	HEVC_PicTypeStatistic, %function
HEVC_PicTypeStatistic:
.LFB2366:
	.loc 1 3413 0
	.cfi_startproc
.LVL390:
	.loc 1 3416 0
	add	x0, x0, 49152
.LVL391:
	ldr	w1, [x0,2776]
.LBB833:
.LBB834:
	.loc 1 490 0
	sub	w2, w1, #16
.LBE834:
.LBE833:
	.loc 1 3416 0
	cmp	w2, 5
	bls	.L404
	ldr	w1, [x0,2372]
	sub	w1, w1, #16
	.loc 1 3425 0
	cmp	w1, 5
	bls	.L403
	.loc 1 3427 0
	ldr	w1, [x0,2764]
	cmp	w1, 1
	beq	.L407
	cmp	w1, 2
	beq	.L408
	cbz	w1, .L413
.L403:
	.loc 1 3451 0
	ret
.L404:
	.loc 1 3418 0
	str	w1, [x0,2372]
	.loc 1 3419 0
	str	wzr, [x0,2380]
	.loc 1 3451 0
	ret
.L407:
	.loc 1 3433 0
	ldr	w2, [x0,2380]
	cmp	w2, 2
	beq	.L403
	.loc 1 3435 0
	str	w1, [x0,2380]
	.loc 1 3451 0
	ret
.L413:
	.loc 1 3430 0
	mov	w1, 2
	str	w1, [x0,2380]
	.loc 1 3451 0
	ret
.L408:
.LBB835:
.LBB836:
	.loc 1 3440 0
	ldr	w1, [x0,2380]
	sub	w1, w1, #1
	.loc 1 3439 0
	cmp	w1, 1
	bls	.L403
	.loc 1 3442 0
	str	wzr, [x0,2380]
.LBE836:
.LBE835:
	.loc 1 3451 0
	ret
	.cfi_endproc
.LFE2366:
	.size	HEVC_PicTypeStatistic, .-HEVC_PicTypeStatistic
	.align	2
	.global	HEVC_IsReferenceNalu
	.type	HEVC_IsReferenceNalu, %function
HEVC_IsReferenceNalu:
.LFB2368:
	.loc 1 3626 0
	.cfi_startproc
.LVL392:
	.loc 1 3627 0
	add	x0, x0, 49152
.LVL393:
	ldr	w1, [x0,2776]
	.loc 1 3628 0
	cmp	w1, 15
	bhi	.L415
	mov	w0, 1
	.loc 1 3627 0
	tbnz	x1, 0, .L416
.L415:
	.loc 1 3628 0 discriminator 1
	sub	w1, w1, #16
	cmp	w1, 7
	cset	w0, ls
.L416:
	.loc 1 3629 0
	ret
	.cfi_endproc
.LFE2368:
	.size	HEVC_IsReferenceNalu, .-HEVC_IsReferenceNalu
	.align	2
	.global	HEVC_WriteQmatrix_4x4
	.type	HEVC_WriteQmatrix_4x4, %function
HEVC_WriteQmatrix_4x4:
.LFB2370:
	.loc 1 4352 0
	.cfi_startproc
.LVL394:
	ubfiz	x0, x0, 6, 32
.LVL395:
	add	x1, x1, x0
.LVL396:
	.loc 1 4356 0
	ldr	w0, [x1,588]
	.loc 1 4359 0
	ldrb	w5, [x1,576]
	.loc 1 4357 0
	ldrb	w4, [x1,580]
	.loc 1 4358 0
	ldr	w3, [x1,584]
	orr	w0, w5, w0, lsl 24
	orr	w0, w0, w4, lsl 16
	ubfiz	w3, w3, 8, 8
	.loc 1 4356 0
	orr	w0, w0, w3
	.loc 1 4360 0
	str	w0, [x2]
	.loc 1 4365 0
	ldr	w3, [x1,584]
	.loc 1 4363 0
	ldrb	w5, [x1,589]
	.loc 1 4366 0
	ldrb	w0, [x1,577]
	.loc 1 4365 0
	and	w3, w3, 65280
	.loc 1 4364 0
	ldrb	w4, [x1,581]
	orr	w0, w0, w3
	orr	w0, w0, w5, lsl 24
	.loc 1 4363 0
	orr	w0, w0, w4, lsl 16
	.loc 1 4367 0
	str	w0, [x2,4]
	.loc 1 4371 0
	ldr	w3, [x1,580]
	.loc 1 4373 0
	ldrb	w0, [x1,578]
	.loc 1 4370 0
	ldrb	w5, [x1,590]
	.loc 1 4371 0
	and	w3, w3, 16711680
	.loc 1 4372 0
	ldrb	w4, [x1,586]
	orr	w0, w0, w3
	orr	w0, w0, w5, lsl 24
	.loc 1 4370 0
	orr	w0, w0, w4, lsl 8
	.loc 1 4374 0
	str	w0, [x2,8]
	.loc 1 4377 0
	ldr	w3, [x1,588]
	.loc 1 4380 0
	ldrb	w0, [x1,579]
	.loc 1 4378 0
	ldrb	w4, [x1,583]
	.loc 1 4377 0
	and	w3, w3, -16777216
	.loc 1 4379 0
	ldrb	w1, [x1,587]
	orr	w0, w0, w3
	orr	w0, w0, w4, lsl 16
	.loc 1 4377 0
	orr	w0, w0, w1, lsl 8
	.loc 1 4381 0
	str	w0, [x2,12]
	.loc 1 4384 0
	ret
	.cfi_endproc
.LFE2370:
	.size	HEVC_WriteQmatrix_4x4, .-HEVC_WriteQmatrix_4x4
	.align	2
	.global	HEVC_WriteQmatrix_32x32
	.type	HEVC_WriteQmatrix_32x32, %function
HEVC_WriteQmatrix_32x32:
.LFB2371:
	.loc 1 4396 0
	.cfi_startproc
.LVL397:
	ubfiz	x0, x0, 6, 32
.LVL398:
	add	x1, x1, x0
.LVL399:
	.loc 1 4400 0
	ldr	w0, [x1,1752]
	.loc 1 4403 0
	ldrb	w5, [x1,1728]
	.loc 1 4401 0
	ldrb	w4, [x1,1744]
	.loc 1 4402 0
	ldr	w3, [x1,1736]
	orr	w0, w5, w0, lsl 24
	orr	w0, w0, w4, lsl 16
	ubfiz	w3, w3, 8, 8
	.loc 1 4400 0
	orr	w0, w0, w3
	.loc 1 4404 0
	str	w0, [x2]
	.loc 1 4407 0
	ldr	w0, [x1,1784]
	.loc 1 4410 0
	ldrb	w5, [x1,1760]
	.loc 1 4408 0
	ldrb	w4, [x1,1776]
	.loc 1 4409 0
	ldr	w3, [x1,1768]
	orr	w0, w5, w0, lsl 24
	orr	w0, w0, w4, lsl 16
	ubfiz	w3, w3, 8, 8
	.loc 1 4407 0
	orr	w0, w0, w3
	.loc 1 4411 0
	str	w0, [x2,4]
	.loc 1 4416 0
	ldr	w3, [x1,1736]
	.loc 1 4414 0
	ldrb	w5, [x1,1753]
	.loc 1 4417 0
	ldrb	w0, [x1,1729]
	.loc 1 4416 0
	and	w3, w3, 65280
	.loc 1 4415 0
	ldrb	w4, [x1,1745]
	orr	w0, w0, w3
	orr	w0, w0, w5, lsl 24
	.loc 1 4414 0
	orr	w0, w0, w4, lsl 16
	.loc 1 4418 0
	str	w0, [x2,8]
	.loc 1 4423 0
	ldr	w3, [x1,1768]
	.loc 1 4421 0
	ldrb	w5, [x1,1785]
	.loc 1 4424 0
	ldrb	w0, [x1,1761]
	.loc 1 4423 0
	and	w3, w3, 65280
	.loc 1 4422 0
	ldrb	w4, [x1,1777]
	orr	w0, w0, w3
	orr	w0, w0, w5, lsl 24
	.loc 1 4421 0
	orr	w0, w0, w4, lsl 16
	.loc 1 4425 0
	str	w0, [x2,12]
	.loc 1 4429 0
	ldr	w3, [x1,1744]
	.loc 1 4428 0
	ldrb	w5, [x1,1754]
	.loc 1 4431 0
	ldrb	w0, [x1,1730]
	.loc 1 4429 0
	and	w3, w3, 16711680
	.loc 1 4430 0
	ldrb	w4, [x1,1738]
	orr	w0, w0, w3
	orr	w0, w0, w5, lsl 24
	.loc 1 4428 0
	orr	w0, w0, w4, lsl 8
	.loc 1 4432 0
	str	w0, [x2,16]
	.loc 1 4436 0
	ldr	w3, [x1,1776]
	.loc 1 4435 0
	ldrb	w5, [x1,1786]
	.loc 1 4438 0
	ldrb	w0, [x1,1762]
	.loc 1 4436 0
	and	w3, w3, 16711680
	.loc 1 4437 0
	ldrb	w4, [x1,1770]
	orr	w0, w0, w3
	orr	w0, w0, w5, lsl 24
	.loc 1 4435 0
	orr	w0, w0, w4, lsl 8
	.loc 1 4439 0
	str	w0, [x2,20]
	.loc 1 4442 0
	ldr	w3, [x1,1752]
	.loc 1 4443 0
	ldrb	w5, [x1,1747]
	.loc 1 4445 0
	ldrb	w0, [x1,1731]
	.loc 1 4442 0
	and	w3, w3, -16777216
	.loc 1 4444 0
	ldrb	w4, [x1,1739]
	orr	w0, w0, w3
	orr	w0, w0, w5, lsl 16
	.loc 1 4442 0
	orr	w0, w0, w4, lsl 8
	.loc 1 4446 0
	str	w0, [x2,24]
	.loc 1 4449 0
	ldr	w3, [x1,1784]
	.loc 1 4450 0
	ldrb	w5, [x1,1779]
	.loc 1 4452 0
	ldrb	w0, [x1,1763]
	.loc 1 4449 0
	and	w3, w3, -16777216
	.loc 1 4451 0
	ldrb	w4, [x1,1771]
	orr	w0, w0, w3
	orr	w0, w0, w5, lsl 16
	.loc 1 4449 0
	orr	w0, w0, w4, lsl 8
	.loc 1 4453 0
	str	w0, [x2,28]
	.loc 1 4456 0
	ldr	w0, [x1,1756]
	.loc 1 4459 0
	ldrb	w5, [x1,1732]
	.loc 1 4457 0
	ldrb	w4, [x1,1748]
	.loc 1 4458 0
	ldr	w3, [x1,1740]
	orr	w0, w5, w0, lsl 24
	orr	w0, w0, w4, lsl 16
	ubfiz	w3, w3, 8, 8
	.loc 1 4456 0
	orr	w0, w0, w3
	.loc 1 4460 0
	str	w0, [x2,32]
	.loc 1 4463 0
	ldr	w0, [x1,1788]
	.loc 1 4466 0
	ldrb	w5, [x1,1764]
	.loc 1 4464 0
	ldrb	w4, [x1,1780]
	.loc 1 4465 0
	ldr	w3, [x1,1772]
	orr	w0, w5, w0, lsl 24
	orr	w0, w0, w4, lsl 16
	ubfiz	w3, w3, 8, 8
	.loc 1 4463 0
	orr	w0, w0, w3
	.loc 1 4467 0
	str	w0, [x2,36]
	.loc 1 4472 0
	ldr	w3, [x1,1740]
	.loc 1 4470 0
	ldrb	w5, [x1,1757]
	.loc 1 4473 0
	ldrb	w0, [x1,1733]
	.loc 1 4472 0
	and	w3, w3, 65280
	.loc 1 4471 0
	ldrb	w4, [x1,1749]
	orr	w0, w0, w3
	orr	w0, w0, w5, lsl 24
	.loc 1 4470 0
	orr	w0, w0, w4, lsl 16
	.loc 1 4474 0
	str	w0, [x2,40]
	.loc 1 4479 0
	ldr	w3, [x1,1772]
	.loc 1 4477 0
	ldrb	w5, [x1,1789]
	.loc 1 4480 0
	ldrb	w0, [x1,1765]
	.loc 1 4479 0
	and	w3, w3, 65280
	.loc 1 4478 0
	ldrb	w4, [x1,1781]
	orr	w0, w0, w3
	orr	w0, w0, w5, lsl 24
	.loc 1 4477 0
	orr	w0, w0, w4, lsl 16
	.loc 1 4481 0
	str	w0, [x2,44]
	.loc 1 4485 0
	ldr	w3, [x1,1748]
	.loc 1 4484 0
	ldrb	w5, [x1,1758]
	.loc 1 4487 0
	ldrb	w0, [x1,1734]
	.loc 1 4485 0
	and	w3, w3, 16711680
	.loc 1 4486 0
	ldrb	w4, [x1,1742]
	orr	w0, w0, w3
	orr	w0, w0, w5, lsl 24
	.loc 1 4484 0
	orr	w0, w0, w4, lsl 8
	.loc 1 4488 0
	str	w0, [x2,48]
	.loc 1 4494 0
	ldrb	w0, [x1,1766]
	.loc 1 4492 0
	ldr	w3, [x1,1780]
	.loc 1 4491 0
	ldrb	w5, [x1,1790]
	.loc 1 4493 0
	ldrb	w4, [x1,1774]
	.loc 1 4492 0
	and	w3, w3, 16711680
	orr	w0, w0, w3
	orr	w0, w0, w5, lsl 24
	.loc 1 4491 0
	orr	w0, w0, w4, lsl 8
	.loc 1 4495 0
	str	w0, [x2,52]
	.loc 1 4498 0
	ldr	w3, [x1,1756]
	.loc 1 4501 0
	ldrb	w0, [x1,1735]
	.loc 1 4499 0
	ldrb	w5, [x1,1751]
	.loc 1 4498 0
	and	w3, w3, -16777216
	.loc 1 4500 0
	ldrb	w4, [x1,1743]
	orr	w0, w0, w3
	orr	w0, w0, w5, lsl 16
	.loc 1 4498 0
	orr	w0, w0, w4, lsl 8
	.loc 1 4502 0
	str	w0, [x2,56]
	.loc 1 4505 0
	ldr	w3, [x1,1788]
	.loc 1 4508 0
	ldrb	w0, [x1,1767]
	.loc 1 4506 0
	ldrb	w4, [x1,1783]
	.loc 1 4505 0
	and	w3, w3, -16777216
	.loc 1 4507 0
	ldrb	w1, [x1,1775]
	orr	w0, w0, w3
	orr	w0, w0, w4, lsl 16
	.loc 1 4505 0
	orr	w0, w0, w1, lsl 8
	.loc 1 4509 0
	str	w0, [x2,60]
	.loc 1 4512 0
	ret
	.cfi_endproc
.LFE2371:
	.size	HEVC_WriteQmatrix_32x32, .-HEVC_WriteQmatrix_32x32
	.align	2
	.global	HEVC_WriteQmatrix_8x8
	.type	HEVC_WriteQmatrix_8x8, %function
HEVC_WriteQmatrix_8x8:
.LFB2372:
	.loc 1 4524 0
	.cfi_startproc
.LVL400:
	ubfiz	x0, x0, 6, 32
.LVL401:
	add	x1, x1, x0
.LVL402:
	.loc 1 4528 0
	ldr	w0, [x1,1008]
	.loc 1 4531 0
	ldrb	w5, [x1,960]
	.loc 1 4529 0
	ldrb	w4, [x1,992]
	.loc 1 4530 0
	ldr	w3, [x1,976]
	orr	w0, w5, w0, lsl 24
	orr	w0, w0, w4, lsl 16
	ubfiz	w3, w3, 8, 8
	.loc 1 4528 0
	orr	w0, w0, w3
	.loc 1 4532 0
	str	w0, [x2]
	.loc 1 4535 0
	ldr	w0, [x1,1016]
	.loc 1 4538 0
	ldrb	w5, [x1,968]
	.loc 1 4536 0
	ldrb	w4, [x1,1000]
	.loc 1 4537 0
	ldr	w3, [x1,984]
	orr	w0, w5, w0, lsl 24
	orr	w0, w0, w4, lsl 16
	ubfiz	w3, w3, 8, 8
	.loc 1 4535 0
	orr	w0, w0, w3
	.loc 1 4539 0
	str	w0, [x2,4]
	.loc 1 4544 0
	ldr	w3, [x1,976]
	.loc 1 4542 0
	ldrb	w5, [x1,1009]
	.loc 1 4545 0
	ldrb	w0, [x1,961]
	.loc 1 4544 0
	and	w3, w3, 65280
	.loc 1 4543 0
	ldrb	w4, [x1,993]
	orr	w0, w0, w3
	orr	w0, w0, w5, lsl 24
	.loc 1 4542 0
	orr	w0, w0, w4, lsl 16
	.loc 1 4546 0
	str	w0, [x2,8]
	.loc 1 4551 0
	ldr	w3, [x1,984]
	.loc 1 4549 0
	ldrb	w5, [x1,1017]
	.loc 1 4552 0
	ldrb	w0, [x1,969]
	.loc 1 4551 0
	and	w3, w3, 65280
	.loc 1 4550 0
	ldrb	w4, [x1,1001]
	orr	w0, w0, w3
	orr	w0, w0, w5, lsl 24
	.loc 1 4549 0
	orr	w0, w0, w4, lsl 16
	.loc 1 4553 0
	str	w0, [x2,12]
	.loc 1 4557 0
	ldr	w3, [x1,992]
	.loc 1 4556 0
	ldrb	w5, [x1,1010]
	.loc 1 4559 0
	ldrb	w0, [x1,962]
	.loc 1 4557 0
	and	w3, w3, 16711680
	.loc 1 4558 0
	ldrb	w4, [x1,978]
	orr	w0, w0, w3
	orr	w0, w0, w5, lsl 24
	.loc 1 4556 0
	orr	w0, w0, w4, lsl 8
	.loc 1 4560 0
	str	w0, [x2,16]
	.loc 1 4564 0
	ldr	w3, [x1,1000]
	.loc 1 4563 0
	ldrb	w5, [x1,1018]
	.loc 1 4566 0
	ldrb	w0, [x1,970]
	.loc 1 4564 0
	and	w3, w3, 16711680
	.loc 1 4565 0
	ldrb	w4, [x1,986]
	orr	w0, w0, w3
	orr	w0, w0, w5, lsl 24
	.loc 1 4563 0
	orr	w0, w0, w4, lsl 8
	.loc 1 4567 0
	str	w0, [x2,20]
	.loc 1 4570 0
	ldr	w3, [x1,1008]
	.loc 1 4571 0
	ldrb	w5, [x1,995]
	.loc 1 4573 0
	ldrb	w0, [x1,963]
	.loc 1 4570 0
	and	w3, w3, -16777216
	.loc 1 4572 0
	ldrb	w4, [x1,979]
	orr	w0, w0, w3
	orr	w0, w0, w5, lsl 16
	.loc 1 4570 0
	orr	w0, w0, w4, lsl 8
	.loc 1 4574 0
	str	w0, [x2,24]
	.loc 1 4577 0
	ldr	w3, [x1,1016]
	.loc 1 4578 0
	ldrb	w5, [x1,1003]
	.loc 1 4580 0
	ldrb	w0, [x1,971]
	.loc 1 4577 0
	and	w3, w3, -16777216
	.loc 1 4579 0
	ldrb	w4, [x1,987]
	orr	w0, w0, w3
	orr	w0, w0, w5, lsl 16
	.loc 1 4577 0
	orr	w0, w0, w4, lsl 8
	.loc 1 4581 0
	str	w0, [x2,28]
	.loc 1 4584 0
	ldr	w0, [x1,1012]
	.loc 1 4587 0
	ldrb	w5, [x1,964]
	.loc 1 4585 0
	ldrb	w4, [x1,996]
	.loc 1 4586 0
	ldr	w3, [x1,980]
	orr	w0, w5, w0, lsl 24
	orr	w0, w0, w4, lsl 16
	ubfiz	w3, w3, 8, 8
	.loc 1 4584 0
	orr	w0, w0, w3
	.loc 1 4588 0
	str	w0, [x2,32]
	.loc 1 4591 0
	ldr	w0, [x1,1020]
	.loc 1 4594 0
	ldrb	w5, [x1,972]
	.loc 1 4592 0
	ldrb	w4, [x1,1004]
	.loc 1 4593 0
	ldr	w3, [x1,988]
	orr	w0, w5, w0, lsl 24
	orr	w0, w0, w4, lsl 16
	ubfiz	w3, w3, 8, 8
	.loc 1 4591 0
	orr	w0, w0, w3
	.loc 1 4595 0
	str	w0, [x2,36]
	.loc 1 4600 0
	ldr	w3, [x1,980]
	.loc 1 4598 0
	ldrb	w5, [x1,1013]
	.loc 1 4601 0
	ldrb	w0, [x1,965]
	.loc 1 4600 0
	and	w3, w3, 65280
	.loc 1 4599 0
	ldrb	w4, [x1,997]
	orr	w0, w0, w3
	orr	w0, w0, w5, lsl 24
	.loc 1 4598 0
	orr	w0, w0, w4, lsl 16
	.loc 1 4602 0
	str	w0, [x2,40]
	.loc 1 4607 0
	ldr	w3, [x1,988]
	.loc 1 4605 0
	ldrb	w5, [x1,1021]
	.loc 1 4608 0
	ldrb	w0, [x1,973]
	.loc 1 4607 0
	and	w3, w3, 65280
	.loc 1 4606 0
	ldrb	w4, [x1,1005]
	orr	w0, w0, w3
	orr	w0, w0, w5, lsl 24
	.loc 1 4605 0
	orr	w0, w0, w4, lsl 16
	.loc 1 4609 0
	str	w0, [x2,44]
	.loc 1 4613 0
	ldr	w3, [x1,996]
	.loc 1 4612 0
	ldrb	w5, [x1,1014]
	.loc 1 4615 0
	ldrb	w0, [x1,966]
	.loc 1 4613 0
	and	w3, w3, 16711680
	.loc 1 4614 0
	ldrb	w4, [x1,982]
	orr	w0, w0, w3
	orr	w0, w0, w5, lsl 24
	.loc 1 4612 0
	orr	w0, w0, w4, lsl 8
	.loc 1 4616 0
	str	w0, [x2,48]
	.loc 1 4622 0
	ldrb	w0, [x1,974]
	.loc 1 4620 0
	ldr	w3, [x1,1004]
	.loc 1 4619 0
	ldrb	w5, [x1,1022]
	.loc 1 4621 0
	ldrb	w4, [x1,990]
	.loc 1 4620 0
	and	w3, w3, 16711680
	orr	w0, w0, w3
	orr	w0, w0, w5, lsl 24
	.loc 1 4619 0
	orr	w0, w0, w4, lsl 8
	.loc 1 4623 0
	str	w0, [x2,52]
	.loc 1 4626 0
	ldr	w3, [x1,1012]
	.loc 1 4629 0
	ldrb	w0, [x1,967]
	.loc 1 4627 0
	ldrb	w5, [x1,999]
	.loc 1 4626 0
	and	w3, w3, -16777216
	.loc 1 4628 0
	ldrb	w4, [x1,983]
	orr	w0, w0, w3
	orr	w0, w0, w5, lsl 16
	.loc 1 4626 0
	orr	w0, w0, w4, lsl 8
	.loc 1 4630 0
	str	w0, [x2,56]
	.loc 1 4633 0
	ldr	w3, [x1,1020]
	.loc 1 4636 0
	ldrb	w0, [x1,975]
	.loc 1 4634 0
	ldrb	w4, [x1,1007]
	.loc 1 4633 0
	and	w3, w3, -16777216
	.loc 1 4635 0
	ldrb	w1, [x1,991]
	orr	w0, w0, w3
	orr	w0, w0, w4, lsl 16
	.loc 1 4633 0
	orr	w0, w0, w1, lsl 8
	.loc 1 4637 0
	str	w0, [x2,60]
	.loc 1 4640 0
	ret
	.cfi_endproc
.LFE2372:
	.size	HEVC_WriteQmatrix_8x8, .-HEVC_WriteQmatrix_8x8
	.align	2
	.global	HEVC_WriteQmatrix_16x16
	.type	HEVC_WriteQmatrix_16x16, %function
HEVC_WriteQmatrix_16x16:
.LFB2373:
	.loc 1 4652 0
	.cfi_startproc
.LVL403:
	ubfiz	x0, x0, 6, 32
.LVL404:
	add	x1, x1, x0
.LVL405:
	.loc 1 4656 0
	ldr	w0, [x1,1368]
	.loc 1 4659 0
	ldrb	w5, [x1,1344]
	.loc 1 4657 0
	ldrb	w4, [x1,1360]
	.loc 1 4658 0
	ldr	w3, [x1,1352]
	orr	w0, w5, w0, lsl 24
	orr	w0, w0, w4, lsl 16
	ubfiz	w3, w3, 8, 8
	.loc 1 4656 0
	orr	w0, w0, w3
	.loc 1 4660 0
	str	w0, [x2]
	.loc 1 4663 0
	ldr	w0, [x1,1400]
	.loc 1 4666 0
	ldrb	w5, [x1,1376]
	.loc 1 4664 0
	ldrb	w4, [x1,1392]
	.loc 1 4665 0
	ldr	w3, [x1,1384]
	orr	w0, w5, w0, lsl 24
	orr	w0, w0, w4, lsl 16
	ubfiz	w3, w3, 8, 8
	.loc 1 4663 0
	orr	w0, w0, w3
	.loc 1 4667 0
	str	w0, [x2,4]
	.loc 1 4672 0
	ldr	w3, [x1,1352]
	.loc 1 4670 0
	ldrb	w5, [x1,1369]
	.loc 1 4673 0
	ldrb	w0, [x1,1345]
	.loc 1 4672 0
	and	w3, w3, 65280
	.loc 1 4671 0
	ldrb	w4, [x1,1361]
	orr	w0, w0, w3
	orr	w0, w0, w5, lsl 24
	.loc 1 4670 0
	orr	w0, w0, w4, lsl 16
	.loc 1 4674 0
	str	w0, [x2,8]
	.loc 1 4679 0
	ldr	w3, [x1,1384]
	.loc 1 4677 0
	ldrb	w5, [x1,1401]
	.loc 1 4680 0
	ldrb	w0, [x1,1377]
	.loc 1 4679 0
	and	w3, w3, 65280
	.loc 1 4678 0
	ldrb	w4, [x1,1393]
	orr	w0, w0, w3
	orr	w0, w0, w5, lsl 24
	.loc 1 4677 0
	orr	w0, w0, w4, lsl 16
	.loc 1 4681 0
	str	w0, [x2,12]
	.loc 1 4685 0
	ldr	w3, [x1,1360]
	.loc 1 4684 0
	ldrb	w5, [x1,1370]
	.loc 1 4687 0
	ldrb	w0, [x1,1346]
	.loc 1 4685 0
	and	w3, w3, 16711680
	.loc 1 4686 0
	ldrb	w4, [x1,1354]
	orr	w0, w0, w3
	orr	w0, w0, w5, lsl 24
	.loc 1 4684 0
	orr	w0, w0, w4, lsl 8
	.loc 1 4688 0
	str	w0, [x2,16]
	.loc 1 4692 0
	ldr	w3, [x1,1392]
	.loc 1 4691 0
	ldrb	w5, [x1,1402]
	.loc 1 4694 0
	ldrb	w0, [x1,1378]
	.loc 1 4692 0
	and	w3, w3, 16711680
	.loc 1 4693 0
	ldrb	w4, [x1,1386]
	orr	w0, w0, w3
	orr	w0, w0, w5, lsl 24
	.loc 1 4691 0
	orr	w0, w0, w4, lsl 8
	.loc 1 4695 0
	str	w0, [x2,20]
	.loc 1 4698 0
	ldr	w3, [x1,1368]
	.loc 1 4699 0
	ldrb	w5, [x1,1363]
	.loc 1 4701 0
	ldrb	w0, [x1,1347]
	.loc 1 4698 0
	and	w3, w3, -16777216
	.loc 1 4700 0
	ldrb	w4, [x1,1355]
	orr	w0, w0, w3
	orr	w0, w0, w5, lsl 16
	.loc 1 4698 0
	orr	w0, w0, w4, lsl 8
	.loc 1 4702 0
	str	w0, [x2,24]
	.loc 1 4705 0
	ldr	w3, [x1,1400]
	.loc 1 4706 0
	ldrb	w5, [x1,1395]
	.loc 1 4708 0
	ldrb	w0, [x1,1379]
	.loc 1 4705 0
	and	w3, w3, -16777216
	.loc 1 4707 0
	ldrb	w4, [x1,1387]
	orr	w0, w0, w3
	orr	w0, w0, w5, lsl 16
	.loc 1 4705 0
	orr	w0, w0, w4, lsl 8
	.loc 1 4709 0
	str	w0, [x2,28]
	.loc 1 4712 0
	ldr	w0, [x1,1372]
	.loc 1 4715 0
	ldrb	w5, [x1,1348]
	.loc 1 4713 0
	ldrb	w4, [x1,1364]
	.loc 1 4714 0
	ldr	w3, [x1,1356]
	orr	w0, w5, w0, lsl 24
	orr	w0, w0, w4, lsl 16
	ubfiz	w3, w3, 8, 8
	.loc 1 4712 0
	orr	w0, w0, w3
	.loc 1 4716 0
	str	w0, [x2,32]
	.loc 1 4719 0
	ldr	w0, [x1,1404]
	.loc 1 4722 0
	ldrb	w5, [x1,1380]
	.loc 1 4720 0
	ldrb	w4, [x1,1396]
	.loc 1 4721 0
	ldr	w3, [x1,1388]
	orr	w0, w5, w0, lsl 24
	orr	w0, w0, w4, lsl 16
	ubfiz	w3, w3, 8, 8
	.loc 1 4719 0
	orr	w0, w0, w3
	.loc 1 4723 0
	str	w0, [x2,36]
	.loc 1 4728 0
	ldr	w3, [x1,1356]
	.loc 1 4726 0
	ldrb	w5, [x1,1373]
	.loc 1 4729 0
	ldrb	w0, [x1,1349]
	.loc 1 4728 0
	and	w3, w3, 65280
	.loc 1 4727 0
	ldrb	w4, [x1,1365]
	orr	w0, w0, w3
	orr	w0, w0, w5, lsl 24
	.loc 1 4726 0
	orr	w0, w0, w4, lsl 16
	.loc 1 4730 0
	str	w0, [x2,40]
	.loc 1 4735 0
	ldr	w3, [x1,1388]
	.loc 1 4733 0
	ldrb	w5, [x1,1405]
	.loc 1 4736 0
	ldrb	w0, [x1,1381]
	.loc 1 4735 0
	and	w3, w3, 65280
	.loc 1 4734 0
	ldrb	w4, [x1,1397]
	orr	w0, w0, w3
	orr	w0, w0, w5, lsl 24
	.loc 1 4733 0
	orr	w0, w0, w4, lsl 16
	.loc 1 4737 0
	str	w0, [x2,44]
	.loc 1 4741 0
	ldr	w3, [x1,1364]
	.loc 1 4740 0
	ldrb	w5, [x1,1374]
	.loc 1 4743 0
	ldrb	w0, [x1,1350]
	.loc 1 4741 0
	and	w3, w3, 16711680
	.loc 1 4742 0
	ldrb	w4, [x1,1358]
	orr	w0, w0, w3
	orr	w0, w0, w5, lsl 24
	.loc 1 4740 0
	orr	w0, w0, w4, lsl 8
	.loc 1 4744 0
	str	w0, [x2,48]
	.loc 1 4750 0
	ldrb	w0, [x1,1382]
	.loc 1 4748 0
	ldr	w3, [x1,1396]
	.loc 1 4747 0
	ldrb	w5, [x1,1406]
	.loc 1 4749 0
	ldrb	w4, [x1,1390]
	.loc 1 4748 0
	and	w3, w3, 16711680
	orr	w0, w0, w3
	orr	w0, w0, w5, lsl 24
	.loc 1 4747 0
	orr	w0, w0, w4, lsl 8
	.loc 1 4751 0
	str	w0, [x2,52]
	.loc 1 4754 0
	ldr	w3, [x1,1372]
	.loc 1 4757 0
	ldrb	w0, [x1,1351]
	.loc 1 4755 0
	ldrb	w5, [x1,1367]
	.loc 1 4754 0
	and	w3, w3, -16777216
	.loc 1 4756 0
	ldrb	w4, [x1,1359]
	orr	w0, w0, w3
	orr	w0, w0, w5, lsl 16
	.loc 1 4754 0
	orr	w0, w0, w4, lsl 8
	.loc 1 4758 0
	str	w0, [x2,56]
	.loc 1 4761 0
	ldr	w3, [x1,1404]
	.loc 1 4764 0
	ldrb	w0, [x1,1383]
	.loc 1 4762 0
	ldrb	w4, [x1,1399]
	.loc 1 4761 0
	and	w3, w3, -16777216
	.loc 1 4763 0
	ldrb	w1, [x1,1391]
	orr	w0, w0, w3
	orr	w0, w0, w4, lsl 16
	.loc 1 4761 0
	orr	w0, w0, w1, lsl 8
	.loc 1 4765 0
	str	w0, [x2,60]
	.loc 1 4768 0
	ret
	.cfi_endproc
.LFE2373:
	.size	HEVC_WriteQmatrix_16x16, .-HEVC_WriteQmatrix_16x16
	.align	2
	.global	HEVC_CtbRsAddrToTsAddr
	.type	HEVC_CtbRsAddrToTsAddr, %function
HEVC_CtbRsAddrToTsAddr:
.LFB2374:
	.loc 1 4780 0
	.cfi_startproc
.LVL406:
	stp	x29, x30, [sp, -208]!
	.cfi_def_cfa_offset 208
	.cfi_offset 29, -208
	.cfi_offset 30, -200
	adrp	x11, __stack_chk_guard
	add	x29, sp, 0
	.cfi_def_cfa_register 29
	.loc 1 4791 0
	ldr	x4, [x0,27952]
	.loc 1 4780 0
	ldr	x2, [x11,#:lo12:__stack_chk_guard]
	str	x2, [x29,200]
	.loc 1 4791 0
	ldrb	w2, [x4,13]
	cbz	w2, .L423
	.loc 1 4800 0
	ldr	w13, [x4,72]
	.loc 1 4793 0
	ldr	x2, [x0,27944]
	.loc 1 4801 0
	ldr	w7, [x4,68]
	.loc 1 4804 0 discriminator 1
	subs	w13, w13, #1
	.loc 1 4802 0
	ldrb	w8, [x4,15]
	.loc 1 4793 0
	ldr	w6, [x2,72]
	.loc 1 4801 0
	sub	w7, w7, #1
	.loc 1 4795 0
	ldr	w10, [x2,148]
	.loc 1 4804 0 discriminator 1
	bmi	.L428
	add	x5, x4, 216
	add	x3, x29, 28
	mov	w2, 0
.L427:
	.loc 1 4806 0
	ldrsh	w0, [x5],2
.LVL407:
	.loc 1 4804 0 discriminator 3
	add	w2, w2, 1
	.loc 1 4804 0 is_stmt 0 discriminator 1
	cmp	w13, w2
	.loc 1 4806 0 is_stmt 1
	sub	w0, w0, #1
	str	w0, [x3],4
	.loc 1 4804 0 discriminator 1
	bge	.L427
.LVL408:
.L428:
	.loc 1 4809 0 discriminator 1
	tbnz	w7, #31, .L426
.LVL409:
	add	x3, x4, 176
	mov	w2, 0
	add	x4, x29, 116
.L431:
	.loc 1 4811 0
	ldrsh	w0, [x3],2
	.loc 1 4809 0 discriminator 3
	add	w2, w2, 1
	.loc 1 4809 0 is_stmt 0 discriminator 1
	cmp	w7, w2
	.loc 1 4811 0 is_stmt 1
	sub	w0, w0, #1
	str	w0, [x4],4
	.loc 1 4809 0 discriminator 1
	bge	.L431
.L426:
	.loc 1 4814 0
	mov	w0, 1
	lsl	w10, w0, w10
.LVL410:
	.loc 1 4815 0
	sdiv	w0, w6, w10
	msub	w10, w0, w10, w6
.LVL411:
	cmp	w10, wzr
	csinc	w0, w0, w0, eq
.LVL412:
	.loc 1 4823 0
	sdiv	w10, w1, w0
	msub	w0, w10, w0, w1
.LVL413:
	.loc 1 4826 0
	cbz	w8, .L472
	.loc 1 4829 0 discriminator 1
	tbnz	w13, #31, .L449
.LVL414:
	add	x16, x29, 16
	mov	w14, 0
	mov	x17, x16
	mov	w15, 0
	mov	w5, 0
	mov	w1, 0
	mov	w9, 0
	mov	w2, 0
.L434:
	.loc 1 4833 0 discriminator 1
	tbnz	w7, #31, .L452
	ldr	w9, [x17,12]
	add	x4, x16, 100
	mov	w1, w5
	mov	w8, 0
	add	w9, w9, 1
	mov	w6, 0
	add	w12, w14, w9
	b	.L437
.L450:
	.loc 1 4839 0
	mov	w1, w5
.L437:
	.loc 1 4836 0
	ldr	w2, [x4]
	add	w2, w2, 1
	.loc 1 4841 0
	add	w3, w8, w2
	cmp	w0, w3
	.loc 1 4839 0
	madd	w5, w2, w9, w5
	.loc 1 4841 0
	bge	.L435
	.loc 1 4841 0 is_stmt 0 discriminator 1
	cmp	w10, w12
	blt	.L436
.L435:
	.loc 1 4833 0 is_stmt 1 discriminator 2
	add	w6, w6, 1
	add	x4, x4, 4
	.loc 1 4833 0 is_stmt 0 discriminator 1
	cmp	w7, w6
	.loc 1 4841 0 is_stmt 1
	mov	w8, w3
	.loc 1 4833 0 discriminator 1
	bge	.L450
.L440:
	.loc 1 4849 0
	add	w4, w3, w2
	cmp	w0, w4
	bge	.L451
	.loc 1 4849 0 is_stmt 0 discriminator 1
	cmp	w10, w12
	blt	.L473
.L451:
	.loc 1 4829 0 is_stmt 1 discriminator 2
	add	w15, w15, 1
	mov	w14, w12
	.loc 1 4829 0 is_stmt 0 discriminator 1
	cmp	w13, w15
	add	x17, x17, 4
	bge	.L434
.L467:
	sub	w10, w10, w12
	mul	w2, w2, w10
.L432:
	.loc 1 4888 0 is_stmt 1
	sub	w0, w0, w3
.LVL415:
	add	w0, w0, w2
	add	w1, w0, w1
.LVL416:
.L423:
	.loc 1 4896 0
	ldr	x2, [x29,200]
	mov	w0, w1
.LVL417:
	ldr	x1, [x11,#:lo12:__stack_chk_guard]
.LVL418:
	cmp	x2, x1
	bne	.L474
	ldp	x29, x30, [sp], 208
	.cfi_remember_state
	.cfi_restore 30
	.cfi_restore 29
	.cfi_def_cfa 31, 0
	ret
.LVL419:
.L472:
	.cfi_restore_state
	.loc 1 4860 0 discriminator 1
	tbnz	w13, #31, .L449
.LVL420:
	add	x16, x29, 16
	mov	w17, 0
	mov	x15, x16
	mov	w14, 0
	mov	w5, 0
	mov	w1, 0
	mov	w9, 0
	mov	w2, 0
	.loc 1 4864 0 discriminator 1
	tbnz	w7, #31, .L455
.L475:
	ldr	w9, [x15,12]
	add	x4, x16, 100
	mov	w1, w5
	mov	w8, 0
	add	w9, w9, 1
	mov	w6, 0
	add	w12, w17, w9
	b	.L443
.L453:
	.loc 1 4869 0
	mov	w1, w5
.L443:
	.loc 1 4867 0
	ldr	w2, [x4]
	add	w2, w2, 1
	.loc 1 4871 0
	add	w3, w8, w2
	cmp	w0, w3
	.loc 1 4869 0
	madd	w5, w2, w9, w5
	.loc 1 4871 0
	bge	.L441
	.loc 1 4871 0 is_stmt 0 discriminator 1
	cmp	w10, w12
	blt	.L442
.L441:
	.loc 1 4864 0 is_stmt 1 discriminator 2
	add	w6, w6, 1
	add	x4, x4, 4
	.loc 1 4864 0 is_stmt 0 discriminator 1
	cmp	w7, w6
	.loc 1 4871 0 is_stmt 1
	mov	w8, w3
	.loc 1 4864 0 discriminator 1
	bge	.L453
.L446:
	.loc 1 4879 0
	add	w4, w3, w2
	cmp	w0, w4
	bge	.L457
	.loc 1 4879 0 is_stmt 0 discriminator 1
	cmp	w10, w12
	blt	.L468
.L457:
	.loc 1 4860 0 is_stmt 1 discriminator 2
	add	w14, w14, 1
	.loc 1 4871 0 discriminator 1
	mov	w17, w12
	.loc 1 4860 0 discriminator 1
	cmp	w13, w14
	add	x15, x15, 4
	blt	.L467
	.loc 1 4864 0 discriminator 1
	tbz	w7, #31, .L475
.L455:
	mov	w3, 0
	add	w12, w17, w9
	b	.L446
.L436:
	sub	w10, w10, w14
	mov	w3, w8
	mul	w2, w2, w10
	b	.L432
.L442:
	mov	w4, w3
	mov	w3, w8
	.loc 1 4879 0
	cmp	w4, w0
	ble	.L457
.L468:
	sub	w10, w10, w17
	mul	w2, w2, w10
	b	.L432
.L452:
	.loc 1 4833 0 discriminator 1
	mov	w3, 0
	add	w12, w14, w9
	b	.L440
.L473:
	sub	w10, w10, w14
	mul	w2, w2, w10
	b	.L432
.L449:
	.loc 1 4829 0 discriminator 1
	mov	w2, 0
	mov	w3, 0
	mov	w1, 0
	b	.L432
.LVL421:
.L474:
	.loc 1 4896 0
	bl	__stack_chk_fail
.LVL422:
	.cfi_endproc
.LFE2374:
	.size	HEVC_CtbRsAddrToTsAddr, .-HEVC_CtbRsAddrToTsAddr
	.align	2
	.global	HEVC_CtbTsAddrToRsAddr
	.type	HEVC_CtbTsAddrToRsAddr, %function
HEVC_CtbTsAddrToRsAddr:
.LFB2375:
	.loc 1 4908 0
	.cfi_startproc
.LVL423:
	stp	x29, x30, [sp, -224]!
	.cfi_def_cfa_offset 224
	.cfi_offset 29, -224
	.cfi_offset 30, -216
	mov	w15, w1
	add	x29, sp, 0
	.cfi_def_cfa_register 29
	str	x19, [sp,16]
	.cfi_offset 19, -208
	.loc 1 4908 0
	adrp	x19, __stack_chk_guard
	.loc 1 4919 0
	ldr	x3, [x0,27952]
	.loc 1 4908 0
	ldr	x2, [x19,#:lo12:__stack_chk_guard]
	str	x2, [x29,216]
	.loc 1 4919 0
	ldrb	w2, [x3,13]
	cbz	w2, .L477
	.loc 1 4929 0
	ldr	w11, [x3,72]
	add	x14, x29, 32
	.loc 1 4922 0
	ldr	x2, [x0,27944]
	.loc 1 4930 0
	ldr	w9, [x3,68]
	.loc 1 4933 0 discriminator 1
	subs	w11, w11, #1
	.loc 1 4922 0
	ldr	w8, [x2,72]
	.loc 1 4930 0
	sub	w9, w9, #1
	.loc 1 4924 0
	ldr	w6, [x2,148]
	.loc 1 4933 0 discriminator 1
	bmi	.L478
	add	x5, x3, 216
	add	x4, x14, 12
	mov	w2, 0
.L479:
	.loc 1 4935 0
	ldrsh	w0, [x5],2
.LVL424:
	.loc 1 4933 0 discriminator 3
	add	w2, w2, 1
	.loc 1 4933 0 is_stmt 0 discriminator 1
	cmp	w11, w2
	.loc 1 4935 0 is_stmt 1
	sub	w0, w0, #1
	str	w0, [x4],4
	.loc 1 4933 0 discriminator 1
	bge	.L479
	.loc 1 4938 0 discriminator 1
	tbnz	w9, #31, .L514
.L481:
	add	x3, x3, 176
	add	x4, x14, 100
	.loc 1 4933 0 discriminator 1
	mov	w2, 0
.L484:
	.loc 1 4940 0
	ldrsh	w0, [x3],2
	.loc 1 4938 0 discriminator 3
	add	w2, w2, 1
	.loc 1 4938 0 is_stmt 0 discriminator 1
	cmp	w9, w2
	.loc 1 4940 0 is_stmt 1
	sub	w0, w0, #1
	str	w0, [x4],4
	.loc 1 4938 0 discriminator 1
	bge	.L484
	.loc 1 4943 0
	mov	w2, 1
	lsl	w2, w2, w6
	.loc 1 4944 0
	sdiv	w0, w8, w2
	msub	w2, w0, w2, w8
	cmp	w2, wzr
	csinc	w0, w0, w0, eq
.LVL425:
	.loc 1 4954 0 discriminator 1
	tbnz	w11, #31, .L482
.L483:
	.loc 1 4961 0
	ldr	w16, [x29,132]
	mov	x13, x14
	mov	w15, 0
	mov	w12, 0
.LVL426:
	add	w16, w16, 1
	mov	w3, 0
	mov	w10, 0
	mov	w8, 0
.LVL427:
	mov	w2, 0
.LVL428:
.L489:
	.loc 1 4958 0 discriminator 1
	tbnz	w9, #31, .L496
.LVL429:
	.loc 1 4962 0
	ldr	w8, [x13,12]
.LVL430:
	add	w8, w8, 1
.LVL431:
	.loc 1 4964 0
	madd	w4, w16, w8, w3
	.loc 1 4966 0
	cmp	w1, w4
	blt	.L497
	mov	w10, w3
	add	x7, x14, 104
	mov	w3, w4
	.loc 1 4961 0
	mov	w2, w16
	.loc 1 4966 0
	mov	w6, 0
	mov	w4, 0
.LVL432:
	b	.L491
.L487:
	.loc 1 4961 0
	ldr	w2, [x7],4
	mov	w10, w3
	add	w2, w2, 1
	.loc 1 4964 0
	madd	w5, w2, w8, w3
	.loc 1 4966 0
	cmp	w5, w1
	bgt	.L488
	mov	w3, w5
.L491:
	.loc 1 4958 0 discriminator 2
	add	w4, w4, 1
	.loc 1 4971 0
	add	w6, w6, w2
	.loc 1 4958 0 discriminator 1
	cmp	w9, w4
	bge	.L487
.L490:
	.loc 1 4974 0
	cmp	w3, w1
	bgt	.L495
	.loc 1 4954 0 discriminator 2
	add	w12, w12, 1
	.loc 1 4979 0
	add	w15, w15, w8
	.loc 1 4954 0 discriminator 1
	cmp	w11, w12
	add	x13, x13, 4
	bge	.L489
.L495:
	mov	w3, w10
.L488:
	.loc 1 4982 0
	cbz	w2, .L482
	.loc 1 4989 0
	sub	w3, w1, w3
	.loc 1 4990 0
	sdiv	w4, w3, w2
.LVL433:
	add	w15, w4, w15
	.loc 1 4989 0
	msub	w4, w4, w2, w3
	add	w4, w4, w6
	.loc 1 4992 0
	madd	w15, w0, w15, w4
.LVL434:
.L477:
	.loc 1 5000 0
	ldr	x2, [x29,216]
	mov	w0, w15
.LVL435:
	ldr	x1, [x19,#:lo12:__stack_chk_guard]
.LVL436:
	cmp	x2, x1
	bne	.L515
	ldr	x19, [sp,16]
	.cfi_remember_state
	.cfi_restore 19
	ldp	x29, x30, [sp], 224
	.cfi_restore 30
	.cfi_restore 29
	.cfi_def_cfa 31, 0
	ret
.LVL437:
.L478:
	.cfi_restore_state
	.loc 1 4938 0 discriminator 1
	tbz	w9, #31, .L481
.LVL438:
.L482:
	.loc 1 4984 0
	adrp	x1, .LC57
.LVL439:
	mov	w0, 1
.LVL440:
	add	x1, x1, :lo12:.LC57
	bl	dprint_linux_kernel
.LVL441:
	.loc 1 4985 0
	mov	w15, -1
	b	.L477
.LVL442:
.L496:
	.loc 1 4958 0 discriminator 1
	mov	w6, 0
	b	.L490
.L497:
	.loc 1 4961 0
	mov	w2, w16
	.loc 1 4966 0
	mov	w6, 0
	b	.L488
.LVL443:
.L514:
	.loc 1 4943 0
	mov	w2, 1
	lsl	w6, w2, w6
	.loc 1 4944 0
	sdiv	w0, w8, w6
	msub	w6, w0, w6, w8
	cmp	w6, wzr
	csinc	w0, w0, w0, eq
.LVL444:
	b	.L483
.LVL445:
.L515:
	.loc 1 5000 0
	bl	__stack_chk_fail
.LVL446:
	.cfi_endproc
.LFE2375:
	.size	HEVC_CtbTsAddrToRsAddr, .-HEVC_CtbTsAddrToRsAddr
	.align	2
	.global	HEVC_CalcTileMap
	.type	HEVC_CalcTileMap, %function
HEVC_CalcTileMap:
.LFB2376:
	.loc 1 5005 0
	.cfi_startproc
.LVL447:
	stp	x29, x30, [sp, -48]!
	.cfi_def_cfa_offset 48
	.cfi_offset 29, -48
	.cfi_offset 30, -40
	.loc 1 5013 0
	mov	x2, 16384
	mov	w1, 0
	.loc 1 5005 0
	add	x29, sp, 0
	.cfi_def_cfa_register 29
	stp	x19, x20, [sp,16]
	.cfi_offset 19, -32
	.cfi_offset 20, -24
	.loc 1 5013 0
	adrp	x20, .LANCHOR1
	.loc 1 5005 0
	mov	x19, x0
	.loc 1 5013 0
	movk	x2, 0x2, lsl 16
	add	x0, x20, :lo12:.LANCHOR1
.LVL448:
	.loc 1 5005 0
	str	x21, [sp,32]
	.cfi_offset 21, -16
	.loc 1 5015 0
	add	x21, x19, 61440
	.loc 1 5013 0
	bl	memset
.LVL449:
	.loc 1 5014 0
	adrp	x0, .LANCHOR2
	mov	w1, 0
	add	x0, x0, :lo12:.LANCHOR2
	mov	x2, 36864
	add	x0, x0, 3840
	bl	memset
.LVL450:
	.loc 1 5015 0
	mov	w1, 0
	mov	x2, 880
	add	x0, x21, 1004
	bl	memset
.LVL451:
	.loc 1 5017 0
	str	wzr, [x21,1000]
	.loc 1 5020 0 discriminator 1
	ldr	x2, [x19,27952]
	.loc 1 5018 0
	ldr	x1, [x19,27944]
	.loc 1 5020 0 discriminator 1
	ldr	w0, [x2,72]
	.loc 1 5018 0
	ldr	w10, [x1,240]
	.loc 1 5020 0 discriminator 1
	cbz	w0, .L516
	mov	w11, 0
.LVL452:
	mov	w14, 0
.LVL453:
	mov	w4, 0
.LVL454:
.L524:
	.loc 1 5024 0 discriminator 1
	ldr	w0, [x2,68]
	uxtw	x13, w11
.LVL455:
	cbz	w0, .L525
	.loc 1 5029 0 discriminator 1
	add	x9, x13, 104
	ldr	w1, [x21,1000]
	mul	w16, w14, w10
	.loc 1 5024 0 discriminator 1
	mov	w12, 0
	mov	w15, 0
	.loc 1 5029 0 discriminator 1
	lsl	x9, x9, 1
.L523:
	.loc 1 5027 0
	uxtw	x0, w1
	.loc 1 5029 0 discriminator 1
	add	x5, x2, x9
	.loc 1 5027 0
	add	x3, x0, 4096
	add	x3, x3, 3708
	add	x3, x19, x3, lsl 3
	str	w4, [x3,12]
	.loc 1 5029 0 discriminator 1
	ldrsh	w3, [x5,8]
	uxtw	x5, w12
.LVL456:
	cbz	w3, .L519
	add	w8, w15, w16
	mov	w7, 0
.LVL457:
	uxtw	x5, w12
.LVL458:
.L520:
	.loc 1 5031 0 discriminator 1
	add	x1, x5, 88
	mov	w0, w4
	sub	w6, w8, w4
	ldrsh	w1, [x2,x1,lsl 1]
	cbz	w1, .L522
.L532:
	.loc 1 5033 0
	add	x2, x20, :lo12:.LANCHOR1
	add	w3, w6, w0
	.loc 1 5031 0 discriminator 1
	add	x1, x5, 88
	.loc 1 5033 0
	str	w3, [x2,w0,sxtw 2]
	.loc 1 5034 0
	add	w0, w0, 1
	sub	w3, w0, w4
	.loc 1 5031 0 discriminator 1
	ldr	x2, [x19,27952]
	ldrsh	w1, [x2,x1,lsl 1]
	cmp	w3, w1
	bcc	.L532
.L522:
	.loc 1 5029 0 discriminator 1
	add	x1, x2, x9
	.loc 1 5029 0 is_stmt 0 discriminator 2
	add	w7, w7, 1
	add	w8, w8, w10
	.loc 1 5029 0 discriminator 1
	ldrsh	w1, [x1,8]
	cmp	w1, w7
	bls	.L538
	mov	w4, w0
	b	.L520
.L538:
	ldr	w1, [x21,1000]
	mov	w4, w0
	uxtw	x0, w1
.L519:
	.loc 1 5038 0 is_stmt 1
	add	x0, x19, x0, lsl 3
	sub	w3, w4, #1
	add	x0, x0, 61440
	.loc 1 5039 0
	add	w1, w1, 1
	.loc 1 5040 0
	add	x5, x5, 88
.LVL459:
	.loc 1 5024 0 discriminator 2
	add	w12, w12, 1
	.loc 1 5038 0
	str	w3, [x0,1008]
	.loc 1 5039 0
	str	w1, [x21,1000]
	.loc 1 5024 0 discriminator 1
	ldr	w3, [x2,68]
	.loc 1 5040 0
	ldrsh	w0, [x2,x5,lsl 1]
	.loc 1 5024 0 discriminator 1
	cmp	w3, w12
	.loc 1 5040 0
	add	w15, w15, w0
	.loc 1 5024 0 discriminator 1
	bhi	.L523
.L525:
	.loc 1 5043 0
	add	x13, x2, x13, lsl 1
.LVL460:
	.loc 1 5020 0 discriminator 1
	ldr	w0, [x2,72]
.LVL461:
	.loc 1 5020 0 is_stmt 0 discriminator 2
	add	w11, w11, 1
	.loc 1 5020 0 discriminator 1
	cmp	w0, w11
	.loc 1 5043 0 is_stmt 1
	ldrsh	w0, [x13,216]
	add	w14, w14, w0
	.loc 1 5020 0 discriminator 1
	bhi	.L524
.L516:
	.loc 1 5047 0
	ldp	x19, x20, [sp,16]
	.cfi_restore 20
	.cfi_restore 19
.LVL462:
	ldr	x21, [sp,32]
	.cfi_restore 21
	ldp	x29, x30, [sp], 48
	.cfi_restore 30
	.cfi_restore 29
	.cfi_def_cfa 31, 0
	ret
	.cfi_endproc
.LFE2376:
	.size	HEVC_CalcTileMap, .-HEVC_CalcTileMap
	.align	2
	.global	HEVC_WritePicMsg
	.type	HEVC_WritePicMsg, %function
HEVC_WritePicMsg:
.LFB2377:
	.loc 1 5059 0
	.cfi_startproc
.LVL463:
	stp	x29, x30, [sp, -64]!
	.cfi_def_cfa_offset 64
	.cfi_offset 29, -64
	.cfi_offset 30, -56
	.loc 1 5063 0
	adrp	x1, .LC58
	.loc 1 5059 0
	add	x29, sp, 0
	.cfi_def_cfa_register 29
	str	x23, [sp,48]
	.cfi_offset 23, -16
	.loc 1 5063 0
	add	x23, x0, 49152
	.loc 1 5059 0
	stp	x19, x20, [sp,16]
	stp	x21, x22, [sp,32]
	.cfi_offset 19, -48
	.cfi_offset 20, -40
	.cfi_offset 21, -32
	.cfi_offset 22, -24
	.loc 1 5059 0
	mov	x20, x0
	.loc 1 5063 0
	add	x1, x1, :lo12:.LC58
	ldr	w2, [x23,2504]
	mov	w0, 2
.LVL464:
	ldr	w3, [x23,2404]
	.loc 1 5066 0
	add	x19, x20, 57344
	.loc 1 5072 0
	add	x21, x20, 61440
	.loc 1 5063 0
	bl	dprint_linux_kernel
.LVL465:
	.loc 1 5064 0
	adrp	x1, .LC59
	mov	w0, 4
	add	x1, x1, :lo12:.LC59
	bl	dprint_linux_kernel
.LVL466:
	.loc 1 5066 0
	ldr	w0, [x23,2500]
	.loc 1 5104 0
	add	x8, x20, 3376
	.loc 1 5066 0
	str	w0, [x19,3888]
	.loc 1 5104 0
	add	x5, x19, 2720
	.loc 1 5107 0
	mov	x0, x20
	add	x1, x21, 164
	.loc 1 5067 0
	ldr	w6, [x23,2592]
	.loc 1 5107 0
	add	x2, x21, 676
	.loc 1 5067 0
	ldr	w4, [x23,2596]
	.loc 1 5107 0
	add	x3, x21, 756
	.loc 1 5067 0
	sub	w4, w4, w6
	str	w4, [x19,3892]
	.loc 1 5068 0
	ldr	w4, [x23,2504]
	str	w4, [x19,3880]
	.loc 1 5069 0
	ldr	w4, [x23,2404]
	str	w4, [x19,3884]
	.loc 1 5071 0
	str	wzr, [x20,204]
	.loc 1 5072 0
	ldr	x4, [x21,3488]
	str	x4, [x21,920]
	.loc 1 5074 0
	ldr	x4, [x20,27944]
	ldrb	w6, [x4,13]
	strb	w6, [x19,2600]
	.loc 1 5075 0
	ldrb	w6, [x4,6]
	strb	w6, [x19,2601]
	.loc 1 5076 0
	ldrb	w6, [x4,10]
	strb	w6, [x19,2602]
	.loc 1 5077 0
	ldrb	w6, [x4,9]
	strb	w6, [x19,2603]
	.loc 1 5078 0
	ldrb	w6, [x4,8]
	strb	w6, [x19,2604]
	.loc 1 5079 0
	ldr	w6, [x4,64]
	str	w6, [x19,2608]
	.loc 1 5080 0
	ldr	w6, [x4,116]
	strb	w6, [x19,2612]
	.loc 1 5081 0
	ldr	w6, [x4,244]
	sub	w6, w6, #1
	str	w6, [x19,2616]
	.loc 1 5082 0
	ldr	w6, [x4,240]
	sub	w6, w6, #1
	str	w6, [x19,2620]
	.loc 1 5083 0
	ldr	w6, [x23,2376]
	str	w6, [x19,2624]
	.loc 1 5084 0
	ldr	x6, [x20,27952]
	ldr	w7, [x6,84]
	sub	w7, w7, #2
	str	w7, [x19,2628]
	.loc 1 5085 0
	ldrb	w7, [x6,11]
	strb	w7, [x19,2632]
	.loc 1 5086 0
	ldrb	w6, [x6,10]
	strb	w6, [x19,2633]
	.loc 1 5088 0
	ldr	w6, [x4,200]
	str	w6, [x19,2636]
	.loc 1 5089 0
	ldr	w6, [x4,208]
	str	w6, [x19,2640]
	.loc 1 5090 0
	ldr	w6, [x4,188]
	str	w6, [x19,2644]
	.loc 1 5091 0
	ldr	w6, [x4,196]
	str	w6, [x19,2648]
	.loc 1 5092 0
	ldr	w6, [x4,172]
	str	w6, [x19,2652]
	.loc 1 5093 0
	ldr	w6, [x4,180]
	str	w6, [x19,2656]
	.loc 1 5094 0
	ldr	w6, [x4,216]
	str	w6, [x19,2660]
	.loc 1 5095 0
	ldr	w6, [x4,140]
	str	w6, [x19,2664]
	.loc 1 5096 0
	ldr	w6, [x4,148]
	str	w6, [x19,2668]
	.loc 1 5097 0
	ldr	w6, [x4,112]
	str	w6, [x19,2672]
	.loc 1 5098 0
	ldr	w6, [x4,104]
	str	w6, [x19,2676]
	.loc 1 5099 0
	ldr	w6, [x4,124]
	str	w6, [x19,2680]
	.loc 1 5100 0
	ldr	w6, [x4,120]
	str	w6, [x19,2684]
	.loc 1 5101 0
	ldr	w6, [x4,108]
	str	w6, [x19,2688]
	.loc 1 5102 0
	ldr	w6, [x4,100]
	str	w6, [x19,2692]
	.loc 1 5104 0
	ldp	x6, x7, [x8]
	stp	x6, x7, [x5]
	ldp	x6, x7, [x8,16]
	stp	x6, x7, [x5,16]
	ldp	x6, x7, [x8,32]
	stp	x6, x7, [x5,32]
	ldp	x6, x7, [x8,48]
	stp	x6, x7, [x5,48]
	.loc 1 5105 0
	ldr	w5, [x4,76]
	str	w5, [x19,2784]
	.loc 1 5106 0
	ldr	w4, [x4,72]
	str	w4, [x19,2788]
	.loc 1 5107 0
	bl	HEVC_CalcTileInfo
.LVL467:
	.loc 1 5109 0
	cbnz	w0, .L599
	.loc 1 5116 0
	ldr	x0, [x20,27952]
	ldrb	w1, [x0,16]
	strb	w1, [x19,2812]
	.loc 1 5117 0
	ldrb	w1, [x0,7]
	strb	w1, [x19,2813]
	.loc 1 5118 0
	ldrb	w1, [x0,3]
	strb	w1, [x19,2814]
	.loc 1 5119 0
	ldrb	w1, [x0,14]
	strb	w1, [x19,2815]
	.loc 1 5120 0
	ldrb	w1, [x0,15]
	strb	w1, [x19,2816]
	.loc 1 5121 0
	ldrb	w1, [x0,13]
	strb	w1, [x19,2817]
	.loc 1 5123 0
	ldr	x1, [x20,27944]
	ldr	w2, [x0,56]
	ldr	w1, [x1,148]
	sub	w1, w1, w2
	str	w1, [x0,88]
	.loc 1 5124 0
	ldr	x0, [x20,27952]
	ldr	w1, [x0,88]
	str	w1, [x19,2820]
	.loc 1 5125 0
	ldr	w1, [x0,52]
	str	w1, [x19,2824]
	.loc 1 5126 0
	ldrb	w1, [x0,8]
	strb	w1, [x19,2828]
	.loc 1 5127 0
	ldrb	w1, [x0,12]
	strb	w1, [x19,2829]
	.loc 1 5128 0
	ldrb	w1, [x0,6]
	strb	w1, [x19,2830]
	.loc 1 5129 0
	ldr	w1, [x0,60]
	str	w1, [x19,2832]
	.loc 1 5130 0
	ldr	w1, [x0,64]
	str	w1, [x19,2836]
	.loc 1 5131 0
	ldr	w1, [x0,72]
	sub	w1, w1, #1
	str	w1, [x19,2840]
	.loc 1 5132 0
	ldr	w1, [x0,68]
	sub	w1, w1, #1
	str	w1, [x19,2844]
	.loc 1 5134 0
	ldrb	w1, [x0,10]
	strb	w1, [x19,2633]
	.loc 1 5135 0
	ldrb	w0, [x0,11]
	strb	w0, [x19,2632]
	.loc 1 5138 0
	ldr	x1, [x23,2416]
	ldr	w0, [x20,240]
	ldr	w1, [x1,32]
	bl	FSP_GetLogicFs
.LVL468:
	mov	x22, x0
.LVL469:
	.loc 1 5139 0
	cbz	x0, .L600
	.loc 1 5144 0
	ldr	x2, [x0,296]
	ldr	x3, [x0,304]
	cbz	x2, .L544
	.loc 1 5144 0 is_stmt 0 discriminator 1
	cbz	x3, .L544
	.loc 1 5151 0 is_stmt 1
	ldr	w0, [x20,240]
	add	x1, x19, 4040
	add	x2, x19, 3912
	add	x3, x21, 36
	bl	FSP_GetDecFsAddrTab
.LVL470:
	.loc 1 5152 0
	ldr	x0, [x22,296]
	.loc 1 5155 0
	add	x1, x21, 28
	add	x2, x19, 4044
	.loc 1 5152 0
	ldr	w0, [x0,4]
	str	w0, [x19,3880]
	.loc 1 5155 0
	ldr	w0, [x20,240]
	bl	FSP_GetPmvAddrTab
.LVL471:
	.loc 1 5156 0
	ldr	w0, [x23,2404]
	str	w0, [x19,3884]
	.loc 1 5157 0
	ldr	w0, [x22,324]
	str	w0, [x21,32]
	.loc 1 5160 0
	ldr	x0, [x22,304]
	ldr	w0, [x0,12]
	str	w0, [x21,992]
	.loc 1 5161 0
	ldr	x0, [x22,304]
	ldr	w0, [x0,32]
	str	w0, [x21,996]
	.loc 1 5163 0
	ldr	w0, [x20,3240]
	str	w0, [x21,908]
	.loc 1 5164 0 discriminator 1
	cbz	w0, .L546
	.loc 1 5166 0
	ldr	w1, [x20,3312]
	.loc 1 5164 0 discriminator 1
	cmp	w0, 1
	.loc 1 5166 0
	str	w1, [x21,844]
	.loc 1 5164 0 discriminator 1
	bls	.L546
	.loc 1 5166 0
	ldr	w1, [x20,3316]
	.loc 1 5164 0 discriminator 1
	cmp	w0, 2
	.loc 1 5166 0
	str	w1, [x21,848]
	.loc 1 5164 0 discriminator 1
	beq	.L546
	.loc 1 5166 0
	ldr	w1, [x20,3320]
	.loc 1 5164 0 discriminator 1
	cmp	w0, 3
	.loc 1 5166 0
	str	w1, [x21,852]
	.loc 1 5164 0 discriminator 1
	beq	.L546
	.loc 1 5166 0
	ldr	w1, [x20,3324]
	.loc 1 5164 0 discriminator 1
	cmp	w0, 4
	.loc 1 5166 0
	str	w1, [x21,856]
	.loc 1 5164 0 discriminator 1
	beq	.L546
	.loc 1 5166 0
	ldr	w1, [x20,3328]
	.loc 1 5164 0 discriminator 1
	cmp	w0, 5
	.loc 1 5166 0
	str	w1, [x21,860]
	.loc 1 5164 0 discriminator 1
	beq	.L546
	.loc 1 5166 0
	ldr	w1, [x20,3332]
	.loc 1 5164 0 discriminator 1
	cmp	w0, 6
	.loc 1 5166 0
	str	w1, [x21,864]
	.loc 1 5164 0 discriminator 1
	beq	.L546
	.loc 1 5166 0
	ldr	w1, [x20,3336]
	.loc 1 5164 0 discriminator 1
	cmp	w0, 7
	.loc 1 5166 0
	str	w1, [x21,868]
	.loc 1 5164 0 discriminator 1
	beq	.L546
	.loc 1 5166 0
	ldr	w1, [x20,3340]
	.loc 1 5164 0 discriminator 1
	cmp	w0, 8
	.loc 1 5166 0
	str	w1, [x21,872]
	.loc 1 5164 0 discriminator 1
	beq	.L546
	.loc 1 5166 0
	ldr	w1, [x20,3344]
	.loc 1 5164 0 discriminator 1
	cmp	w0, 9
	.loc 1 5166 0
	str	w1, [x21,876]
	.loc 1 5164 0 discriminator 1
	beq	.L546
	.loc 1 5166 0
	ldr	w1, [x20,3348]
	.loc 1 5164 0 discriminator 1
	cmp	w0, 10
	.loc 1 5166 0
	str	w1, [x21,880]
	.loc 1 5164 0 discriminator 1
	beq	.L546
	.loc 1 5166 0
	ldr	w1, [x20,3352]
	.loc 1 5164 0 discriminator 1
	cmp	w0, 11
	.loc 1 5166 0
	str	w1, [x21,884]
	.loc 1 5164 0 discriminator 1
	beq	.L546
	.loc 1 5166 0
	ldr	w1, [x20,3356]
	.loc 1 5164 0 discriminator 1
	cmp	w0, 12
	.loc 1 5166 0
	str	w1, [x21,888]
	.loc 1 5164 0 discriminator 1
	beq	.L546
	.loc 1 5166 0
	ldr	w1, [x20,3360]
	.loc 1 5164 0 discriminator 1
	cmp	w0, 13
	.loc 1 5166 0
	str	w1, [x21,892]
	.loc 1 5164 0 discriminator 1
	beq	.L546
	.loc 1 5166 0
	ldr	w1, [x20,3364]
	.loc 1 5164 0 discriminator 1
	cmp	w0, 14
	.loc 1 5166 0
	str	w1, [x21,896]
	.loc 1 5164 0 discriminator 1
	beq	.L546
	.loc 1 5166 0
	ldr	w1, [x20,3368]
	.loc 1 5164 0 discriminator 1
	cmp	w0, 15
	.loc 1 5166 0
	str	w1, [x21,900]
	.loc 1 5164 0 discriminator 1
	beq	.L546
	.loc 1 5166 0
	ldr	w0, [x20,3372]
	str	w0, [x21,904]
.L546:
	add	x22, x19, 2852
.LVL472:
	.loc 1 5059 0
	mov	w21, 0
.L547:
	.loc 1 5173 0
	mov	w0, w21
	mov	x2, x22
	mov	x1, x20
	.loc 1 5171 0 discriminator 3
	add	w21, w21, 1
	add	x22, x22, 64
	.loc 1 5173 0
	bl	HEVC_WriteQmatrix_8x8
.LVL473:
	.loc 1 5171 0 discriminator 1
	cmp	w21, 4
	bne	.L547
	.loc 1 5180 0
	mov	w0, w21
	mov	x1, x20
	add	x2, x19, 3108
	add	x22, x19, 3364
	.loc 1 5186 0
	mov	w21, 2
	.loc 1 5180 0
	bl	HEVC_WriteQmatrix_8x8
.LVL474:
	mov	w0, 5
	mov	x1, x20
	add	x2, x19, 3172
	bl	HEVC_WriteQmatrix_8x8
.LVL475:
	.loc 1 5186 0
	mov	w0, 0
	mov	x1, x20
	add	x2, x19, 3236
	bl	HEVC_WriteQmatrix_16x16
.LVL476:
	mov	w0, 1
	mov	x1, x20
	add	x2, x19, 3300
	bl	HEVC_WriteQmatrix_16x16
.LVL477:
.L548:
	.loc 1 5193 0
	mov	w0, w21
	mov	x2, x22
	mov	x1, x20
	add	w21, w21, 1
	add	x22, x22, 64
	bl	HEVC_WriteQmatrix_16x16
.LVL478:
	.loc 1 5191 0 discriminator 1
	cmp	w21, 6
	bne	.L548
	.loc 1 5201 0
	mov	w0, 0
	mov	x1, x20
	add	x2, x19, 3620
	add	x22, x19, 3748
	mov	w21, 0
	bl	HEVC_WriteQmatrix_32x32
.LVL479:
	mov	w0, 1
	mov	x1, x20
	add	x2, x19, 3684
	bl	HEVC_WriteQmatrix_32x32
.LVL480:
.L549:
	.loc 1 5207 0
	mov	w0, w21
	mov	x2, x22
	mov	x1, x20
	.loc 1 5205 0 discriminator 3
	add	w21, w21, 1
	add	x22, x22, 16
	.loc 1 5207 0
	bl	HEVC_WriteQmatrix_4x4
.LVL481:
	.loc 1 5205 0 discriminator 1
	cmp	w21, 6
	bne	.L549
	.loc 1 5212 0
	ldr	w4, [x20,2268]
	.loc 1 5231 0
	mov	w0, 0
	.loc 1 5213 0
	ldr	w1, [x20,2264]
	ldr	w3, [x20,2256]
	.loc 1 5214 0
	ldr	w2, [x20,2260]
	.loc 1 5213 0
	lsl	w1, w1, 16
	.loc 1 5212 0
	orr	w1, w1, w4, lsl 24
	orr	w1, w1, w3
	.loc 1 5214 0
	orr	w1, w1, w2, lsl 8
	.loc 1 5211 0
	str	w1, [x19,3844]
	.loc 1 5218 0
	ldr	w3, [x20,2284]
	.loc 1 5219 0
	ldr	w1, [x20,2280]
	ldr	w2, [x20,2272]
	lsl	w1, w1, 16
	.loc 1 5220 0
	ldr	w20, [x20,2276]
.LVL482:
	.loc 1 5218 0
	orr	w1, w1, w3, lsl 24
	orr	w1, w1, w2
	.loc 1 5220 0
	orr	w1, w1, w20, lsl 8
	.loc 1 5217 0
	str	w1, [x19,3848]
	.loc 1 5223 0
	ldr	w1, [x23,2404]
	str	w1, [x19,3876]
.LVL483:
.L598:
	.loc 1 5232 0
	ldp	x19, x20, [sp,16]
	.cfi_remember_state
	.cfi_restore 20
	.cfi_restore 19
.LVL484:
	ldp	x21, x22, [sp,32]
	.cfi_restore 22
	.cfi_restore 21
.LVL485:
	ldr	x23, [sp,48]
	.cfi_restore 23
	ldp	x29, x30, [sp], 64
	.cfi_restore 30
	.cfi_restore 29
	.cfi_def_cfa 31, 0
	ret
.LVL486:
.L599:
	.cfi_restore_state
	.loc 1 5111 0
	adrp	x2, .LANCHOR0
	adrp	x1, .LC60
	add	x2, x2, :lo12:.LANCHOR0
	mov	w0, 1
	add	x1, x1, :lo12:.LC60
	add	x2, x2, 216
	bl	dprint_linux_kernel
.LVL487:
	.loc 1 5112 0
	mov	w0, -1
	b	.L598
.LVL488:
.L544:
	.loc 1 5146 0
	adrp	x1, .LC62
	mov	w0, 1
.LVL489:
	add	x1, x1, :lo12:.LC62
	bl	dprint_linux_kernel
.LVL490:
	.loc 1 5147 0
	mov	w0, -1
	b	.L598
.LVL491:
.L600:
	.loc 1 5141 0
	ldr	x2, [x23,2416]
	adrp	x1, .LC61
	mov	w0, 1
.LVL492:
	add	x1, x1, :lo12:.LC61
	ldr	w2, [x2,32]
	bl	dprint_linux_kernel
.LVL493:
	.loc 1 5142 0
	mov	w0, -1
	b	.L598
	.cfi_endproc
.LFE2377:
	.size	HEVC_WritePicMsg, .-HEVC_WritePicMsg
	.align	2
	.global	HEVC_CheckListX
	.type	HEVC_CheckListX, %function
HEVC_CheckListX:
.LFB2378:
	.loc 1 5236 0
	.cfi_startproc
.LVL494:
	.loc 1 5241 0
	add	x1, x0, 49152
	.loc 1 5236 0
	stp	x29, x30, [sp, -16]!
	.cfi_def_cfa_offset 16
	.cfi_offset 29, -16
	.cfi_offset 30, -8
	.loc 1 5243 0
	add	x1, x1, 2704
.LVL495:
	.loc 1 5236 0
	add	x29, sp, 0
	.cfi_def_cfa_register 29
	.loc 1 5241 0
	ldrb	w2, [x1,3]
.LVL496:
	cbz	w2, .L603
	.loc 1 5247 0
	ldrsb	w2, [x0,9]
	.loc 1 5252 0
	add	x1, x0, 53248
	add	x1, x1, 2340
.LVL497:
	.loc 1 5247 0
	cbz	w2, .L635
.L603:
	.loc 1 5255 0
	ldr	w4, [x1,160]
	.loc 1 5256 0
	ldr	w5, [x1,164]
.LVL498:
	.loc 1 5258 0
	cmp	w4, 16
	bhi	.L636
.LVL499:
	.loc 1 5263 0
	cmp	w5, 16
	bhi	.L607
	.loc 1 5269 0 discriminator 1
	cbz	w4, .L608
	.loc 1 5271 0
	ldr	x1, [x0,2360]
.LVL500:
	cbz	x1, .L621
	.loc 1 5276 0
	ldr	x1, [x1,32]
	cbz	x1, .L637
	add	x1, x0, 2368
	mov	w2, 0
	b	.L613
.L614:
	.loc 1 5271 0
	ldr	x3, [x1]
	add	x1, x1, 8
	cbz	x3, .L609
	.loc 1 5276 0
	ldr	x3, [x3,32]
	cbz	x3, .L610
.L613:
	.loc 1 5269 0 discriminator 2
	add	w2, w2, 1
	.loc 1 5269 0 is_stmt 0 discriminator 1
	cmp	w2, w4
	bne	.L614
.LVL501:
.L608:
	.loc 1 5283 0 is_stmt 1 discriminator 1
	cbz	w5, .L623
	.loc 1 5285 0
	ldr	x1, [x0,2496]
.LVL502:
	cbz	x1, .L624
	.loc 1 5290 0
	ldr	x1, [x1,32]
	add	x0, x0, 2504
.LVL503:
	mov	w2, 0
	cbnz	x1, .L619
	b	.L638
.L620:
	.loc 1 5285 0
	ldr	x1, [x0]
	add	x0, x0, 8
	cbz	x1, .L615
	.loc 1 5290 0
	ldr	x1, [x1,32]
	cbz	x1, .L616
.L619:
	.loc 1 5283 0 discriminator 2
	add	w2, w2, 1
	.loc 1 5283 0 is_stmt 0 discriminator 1
	cmp	w2, w5
	bne	.L620
.LVL504:
.L623:
	.loc 1 5297 0 is_stmt 1
	mov	w0, 0
.LVL505:
	.loc 1 5298 0
	ldp	x29, x30, [sp], 16
	.cfi_remember_state
	.cfi_restore 29
	.cfi_restore 30
	.cfi_def_cfa 31, 0
	ret
.LVL506:
.L621:
	.cfi_restore_state
	.loc 1 5271 0
	mov	w2, 0
.L609:
	.loc 1 5273 0
	adrp	x1, .LC66
	mov	w0, 0
.LVL507:
	add	x1, x1, :lo12:.LC66
	bl	dprint_linux_kernel
.LVL508:
	.loc 1 5274 0
	mov	w0, -1
.L605:
	.loc 1 5298 0
	ldp	x29, x30, [sp], 16
	.cfi_remember_state
	.cfi_restore 30
	.cfi_restore 29
	.cfi_def_cfa 31, 0
	ret
.LVL509:
.L637:
	.cfi_restore_state
	.loc 1 5276 0
	mov	w2, 0
.L610:
	.loc 1 5278 0
	adrp	x1, .LC67
	mov	w0, 0
.LVL510:
	add	x1, x1, :lo12:.LC67
	bl	dprint_linux_kernel
.LVL511:
	.loc 1 5279 0
	mov	w0, -1
	.loc 1 5298 0
	ldp	x29, x30, [sp], 16
	.cfi_remember_state
	.cfi_restore 29
	.cfi_restore 30
	.cfi_def_cfa 31, 0
	ret
.LVL512:
.L624:
	.cfi_restore_state
	.loc 1 5285 0
	mov	w2, 0
.L615:
	.loc 1 5287 0
	adrp	x1, .LC68
	mov	w0, 0
.LVL513:
	add	x1, x1, :lo12:.LC68
	bl	dprint_linux_kernel
.LVL514:
	.loc 1 5288 0
	mov	w0, -1
	.loc 1 5298 0
	ldp	x29, x30, [sp], 16
	.cfi_remember_state
	.cfi_restore 29
	.cfi_restore 30
	.cfi_def_cfa 31, 0
	ret
.LVL515:
.L638:
	.cfi_restore_state
	.loc 1 5290 0
	mov	w2, 0
.L616:
	.loc 1 5292 0
	adrp	x1, .LC69
	mov	w0, 0
	add	x1, x1, :lo12:.LC69
	bl	dprint_linux_kernel
.LVL516:
	.loc 1 5293 0
	mov	w0, -1
	.loc 1 5298 0
	ldp	x29, x30, [sp], 16
	.cfi_remember_state
	.cfi_restore 29
	.cfi_restore 30
	.cfi_def_cfa 31, 0
	ret
.LVL517:
.L635:
	.cfi_restore_state
	.loc 1 5249 0
	adrp	x2, .LANCHOR0
	adrp	x1, .LC63
.LVL518:
	add	x2, x2, :lo12:.LANCHOR0
	mov	w0, 0
.LVL519:
	add	x1, x1, :lo12:.LC63
	add	x2, x2, 240
	bl	dprint_linux_kernel
.LVL520:
	.loc 1 5250 0
	mov	w0, -1
	b	.L605
.LVL521:
.L607:
	.loc 1 5265 0
	adrp	x1, .LC65
.LVL522:
	mov	w0, 0
.LVL523:
	add	x1, x1, :lo12:.LC65
	mov	w2, w5
	mov	w3, 17
	bl	dprint_linux_kernel
.LVL524:
	.loc 1 5266 0
	mov	w0, -1
	b	.L605
.LVL525:
.L636:
	.loc 1 5260 0
	adrp	x1, .LC64
.LVL526:
	mov	w0, 0
.LVL527:
	add	x1, x1, :lo12:.LC64
	mov	w2, w4
	mov	w3, 17
	bl	dprint_linux_kernel
.LVL528:
	.loc 1 5261 0
	mov	w0, -1
	b	.L605
	.cfi_endproc
.LFE2378:
	.size	HEVC_CheckListX, .-HEVC_CheckListX
	.align	2
	.global	HEVC_WriteSliceMsg
	.type	HEVC_WriteSliceMsg, %function
HEVC_WriteSliceMsg:
.LFB2379:
	.loc 1 5310 0
	.cfi_startproc
.LVL529:
	stp	x29, x30, [sp, -192]!
	.cfi_def_cfa_offset 192
	.cfi_offset 29, -192
	.cfi_offset 30, -184
	add	x29, sp, 0
	.cfi_def_cfa_register 29
	stp	x23, x24, [sp,48]
	.cfi_offset 23, -144
	.cfi_offset 24, -136
	adrp	x24, __stack_chk_guard
	stp	x19, x20, [sp,16]
	stp	x21, x22, [sp,32]
	ldr	x1, [x24,#:lo12:__stack_chk_guard]
	.cfi_offset 19, -176
	.cfi_offset 20, -168
	.cfi_offset 21, -160
	.cfi_offset 22, -152
	mov	x19, x0
	stp	x25, x26, [sp,64]
	stp	x27, x28, [sp,80]
	.cfi_offset 25, -128
	.cfi_offset 26, -120
	.cfi_offset 27, -112
	.cfi_offset 28, -104
	.loc 1 5310 0
	str	x1, [x29,184]
	.loc 1 5320 0
	bl	HEVC_CheckListX
.LVL530:
	mov	w23, w0
	cbnz	w0, .L670
	.loc 1 5328 0
	ldr	w20, [x19,204]
	ldr	w3, [x19,144]
	cmp	w20, w3
	bcs	.L778
	.loc 1 5337 0
	add	x25, x19, 61440
	mov	w21, 1368
	.loc 1 5340 0
	mov	w1, 0
	mov	x2, 1368
	.loc 1 5337 0
	umull	x20, w20, w21
	ldr	x0, [x25,3488]
	.loc 1 5341 0
	add	x26, x29, 120
	.loc 1 5337 0
	add	x20, x0, x20
.LVL531:
	.loc 1 5340 0
	mov	x0, x20
	bl	memset
.LVL532:
	.loc 1 5343 0
	ldr	w0, [x19,204]
	.loc 1 5345 0
	ldr	w1, [x19,144]
	.loc 1 5343 0
	add	w0, w0, 1
	str	w0, [x19,204]
	.loc 1 5345 0
	cmp	w0, w1
	.loc 1 5351 0
	mov	x1, 0
	.loc 1 5341 0
	stp	xzr, xzr, [x26]
	stp	xzr, xzr, [x26,16]
	stp	xzr, xzr, [x26,32]
	stp	xzr, xzr, [x26,48]
	.loc 1 5345 0
	bcc	.L779
.L642:
	str	x1, [x20,1360]
	.loc 1 5356 0
	add	x27, x19, 49152
	.loc 1 5362 0
	add	x28, x19, 65536
	.loc 1 5356 0
	ldr	w0, [x19,212]
	ldr	w2, [x27,2780]
	.loc 1 5359 0
	add	w1, w0, 1
	.loc 1 5356 0
	uxtw	x0, w0
	add	x0, x0, 12288
	add	x0, x0, 3948
	str	w2, [x19,x0,lsl 2]
	.loc 1 5359 0
	str	w1, [x19,212]
	.loc 1 5358 0
	ldr	w0, [x19,168]
	add	w0, w0, 1
	str	w0, [x19,168]
	.loc 1 5362 0
	lsl	x22, x0, 5
	ldr	x1, [x28,208]
	add	x22, x22, x0, lsl 3
	ldr	w21, [x27,2764]
	add	x1, x1, x22
	str	w21, [x1,8]
	.loc 1 5366 0
	ldr	x1, [x19,2352]
	ldrb	w2, [x1,1]
	.loc 1 5366 0 is_stmt 0 discriminator 1
	ldr	w0, [x1,8]
	.loc 1 5366 0 discriminator 3
	cmp	w2, w0
	bcs	.L643
	cmp	w2, 1
	bhi	.L643
	.loc 1 5368 0 is_stmt 1
	uxtw	x3, w2
	.loc 1 5366 0 discriminator 4
	add	w4, w2, 1
	.loc 1 5368 0
	add	x0, x3, 2
	lsl	x0, x0, 5
	add	x3, x20, x3, lsl 2
	add	x1, x1, x0
	ldr	w1, [x1,4]
	str	w1, [x3,8]
	.loc 1 5369 0
	ldr	x1, [x19,2352]
	ldr	w1, [x1,x0]
	str	w1, [x20,w2,uxtw 2]
	.loc 1 5370 0
	ldr	x1, [x19,2352]
	add	x0, x1, x0
	ldr	w0, [x0,8]
	str	w0, [x3,16]
	.loc 1 5366 0 discriminator 1
	ldr	x2, [x19,2352]
	ldr	w0, [x2,8]
	.loc 1 5366 0 is_stmt 0 discriminator 3
	cmp	w0, w4
	bls	.L643
	cmp	w4, 1
	bhi	.L643
	.loc 1 5368 0 is_stmt 1
	uxtw	x1, w4
	add	x0, x1, 2
	lsl	x0, x0, 5
	add	x1, x20, x1, lsl 2
	add	x2, x2, x0
	ldr	w2, [x2,4]
	str	w2, [x1,8]
	.loc 1 5369 0
	ldr	x2, [x19,2352]
	ldr	w2, [x2,x0]
	str	w2, [x20,w4,uxtw 2]
	.loc 1 5370 0
	ldr	x2, [x19,2352]
	add	x0, x2, x0
	ldr	w0, [x0,8]
	str	w0, [x1,16]
	.loc 1 5366 0 discriminator 1
	ldr	x0, [x19,2352]
	ldr	w0, [x0,8]
.L643:
	.loc 1 5373 0 discriminator 1
	cmp	w0, 1
	bhi	.L648
	add	x1, x20, x0, uxtw 2
	.loc 1 5375 0
	str	wzr, [x1,8]
	.loc 1 5376 0
	str	wzr, [x20,w0,uxtw 2]
	.loc 1 5377 0
	str	wzr, [x1,16]
	.loc 1 5373 0 discriminator 1
	cbnz	w0, .L648
	.loc 1 5375 0
	str	wzr, [x20,12]
	.loc 1 5376 0
	str	wzr, [x20,4]
	.loc 1 5377 0
	str	wzr, [x20,20]
.L648:
	.loc 1 5381 0
	ldrb	w0, [x27,2707]
	.loc 1 5387 0
	add	x21, x19, 53248
	.loc 1 5381 0
	cbz	w0, .L780
.L647:
	.loc 1 5391 0 discriminator 1
	ldr	w0, [x21,2500]
	cbz	w0, .L649
	add	x3, x19, 2360
	add	x2, x20, 372
	mov	w1, 0
	add	x6, x21, 2500
.L650:
	.loc 1 5393 0
	ldr	x4, [x3]
	.loc 1 5391 0 discriminator 3
	add	w1, w1, 1
	.loc 1 5393 0
	ldr	x5, [x4,32]
	ldr	w0, [x5,24]
	ldr	w5, [x5,28]
	add	x0, x0, 12288
	add	x0, x19, x0, lsl 2
	ldr	w0, [x0,12236]
	str	w0, [x26,w5,uxtw 2]
	.loc 1 5394 0
	ldr	w0, [x4,16]
	str	w0, [x2,-256]
	.loc 1 5395 0
	ldr	x0, [x3],8
	ldr	x0, [x0,32]
	ldr	w0, [x0,28]
	str	w0, [x2],4
	.loc 1 5391 0 discriminator 1
	ldr	w0, [x6]
	cmp	w0, w1
	bhi	.L650
	.loc 1 5398 0 discriminator 1
	ldr	w4, [x21,2504]
	cbz	w4, .L651
.L668:
	add	x3, x19, 2496
	add	x2, x20, 436
	.loc 1 5391 0 discriminator 1
	mov	w1, 0
.L652:
	.loc 1 5400 0
	ldr	x4, [x3]
	.loc 1 5398 0 discriminator 3
	add	w1, w1, 1
	.loc 1 5400 0
	ldr	x5, [x4,32]
	ldr	w0, [x5,24]
	ldr	w5, [x5,28]
	add	x0, x0, 12288
	add	x0, x19, x0, lsl 2
	ldr	w0, [x0,12236]
	str	w0, [x26,w5,uxtw 2]
	.loc 1 5401 0
	ldr	w0, [x4,16]
	str	w0, [x2,-256]
	.loc 1 5402 0
	ldr	x0, [x3],8
	ldr	x0, [x0,32]
	ldr	w0, [x0,28]
	str	w0, [x2],4
	.loc 1 5398 0 discriminator 1
	ldr	w4, [x21,2504]
	cmp	w4, w1
	bhi	.L652
	ldr	w0, [x21,2500]
.L651:
	.loc 1 5405 0 discriminator 1
	cbz	w0, .L702
	.loc 1 5407 0
	ldr	w2, [x20,372]
	ldr	w1, [x27,2376]
	add	x2, x19, x2, lsl 2
	ldr	w2, [x2,3376]
	cmp	w2, w1
	bgt	.L701
	.loc 1 5405 0 discriminator 1
	cmp	w0, 1
	bls	.L702
	.loc 1 5407 0
	ldr	w2, [x20,376]
	add	x2, x19, x2, lsl 2
	ldr	w2, [x2,3376]
	cmp	w1, w2
	blt	.L701
	.loc 1 5405 0 discriminator 1
	cmp	w0, 2
	beq	.L702
	.loc 1 5407 0
	ldr	w2, [x20,380]
	add	x2, x19, x2, lsl 2
	ldr	w2, [x2,3376]
	cmp	w1, w2
	blt	.L701
	.loc 1 5405 0 discriminator 1
	cmp	w0, 3
	beq	.L702
	.loc 1 5407 0
	ldr	w2, [x20,384]
	add	x2, x19, x2, lsl 2
	ldr	w2, [x2,3376]
	cmp	w1, w2
	blt	.L701
	.loc 1 5405 0 discriminator 1
	cmp	w0, 4
	beq	.L702
	.loc 1 5407 0
	ldr	w2, [x20,388]
	add	x2, x19, x2, lsl 2
	ldr	w2, [x2,3376]
	cmp	w1, w2
	blt	.L701
	.loc 1 5405 0 discriminator 1
	cmp	w0, 5
	beq	.L702
	.loc 1 5407 0
	ldr	w2, [x20,392]
	add	x2, x19, x2, lsl 2
	ldr	w2, [x2,3376]
	cmp	w1, w2
	blt	.L701
	.loc 1 5405 0 discriminator 1
	cmp	w0, 6
	beq	.L702
	.loc 1 5407 0
	ldr	w2, [x20,396]
	add	x2, x19, x2, lsl 2
	ldr	w2, [x2,3376]
	cmp	w1, w2
	blt	.L701
	.loc 1 5405 0 discriminator 1
	cmp	w0, 7
	beq	.L702
	.loc 1 5407 0
	ldr	w2, [x20,400]
	add	x2, x19, x2, lsl 2
	ldr	w2, [x2,3376]
	cmp	w1, w2
	blt	.L701
	.loc 1 5405 0 discriminator 1
	cmp	w0, 8
	beq	.L702
	.loc 1 5407 0
	ldr	w2, [x20,404]
	add	x2, x19, x2, lsl 2
	ldr	w2, [x2,3376]
	cmp	w1, w2
	blt	.L701
	.loc 1 5405 0 discriminator 1
	cmp	w0, 9
	beq	.L702
	.loc 1 5407 0
	ldr	w2, [x20,408]
	add	x2, x19, x2, lsl 2
	ldr	w2, [x2,3376]
	cmp	w1, w2
	blt	.L701
	.loc 1 5405 0 discriminator 1
	cmp	w0, 10
	beq	.L702
	.loc 1 5407 0
	ldr	w2, [x20,412]
	add	x2, x19, x2, lsl 2
	ldr	w2, [x2,3376]
	cmp	w1, w2
	blt	.L701
	.loc 1 5405 0 discriminator 1
	cmp	w0, 11
	beq	.L702
	.loc 1 5407 0
	ldr	w2, [x20,416]
	add	x2, x19, x2, lsl 2
	ldr	w2, [x2,3376]
	cmp	w1, w2
	blt	.L701
	.loc 1 5405 0 discriminator 1
	cmp	w0, 12
	beq	.L702
	.loc 1 5407 0
	ldr	w2, [x20,420]
	add	x2, x19, x2, lsl 2
	ldr	w2, [x2,3376]
	cmp	w1, w2
	blt	.L701
	.loc 1 5405 0 discriminator 1
	cmp	w0, 13
	beq	.L702
	.loc 1 5407 0
	ldr	w2, [x20,424]
	add	x2, x19, x2, lsl 2
	ldr	w2, [x2,3376]
	cmp	w1, w2
	blt	.L701
	.loc 1 5405 0 discriminator 1
	cmp	w0, 14
	beq	.L702
	.loc 1 5407 0
	ldr	w2, [x20,428]
	add	x2, x19, x2, lsl 2
	ldr	w2, [x2,3376]
	cmp	w1, w2
	blt	.L701
	.loc 1 5405 0 discriminator 1
	cmp	w0, 15
	beq	.L702
	.loc 1 5407 0
	ldr	w0, [x20,432]
	add	x0, x19, x0, lsl 2
	ldr	w0, [x0,3376]
	.loc 1 5409 0
	cmp	w1, w0
	cset	w0, ge
.LVL533:
.L653:
	.loc 1 5414 0
	ldr	w1, [x21,2400]
	cbnz	w1, .L654
	.loc 1 5416 0 discriminator 1
	cbz	w4, .L654
	.loc 1 5416 0 is_stmt 0 discriminator 3
	cbz	w0, .L654
	.loc 1 5418 0 is_stmt 1
	ldr	w1, [x20,436]
	ldr	w0, [x27,2376]
.LVL534:
	add	x1, x19, x1, lsl 2
	ldr	w1, [x1,3376]
	cmp	w1, w0
	bgt	.L732
	.loc 1 5416 0 discriminator 1
	cmp	w4, 1
	beq	.L705
	.loc 1 5418 0
	ldr	w1, [x20,440]
	add	x1, x19, x1, lsl 2
	ldr	w1, [x1,3376]
	cmp	w0, w1
	blt	.L732
	.loc 1 5416 0 discriminator 1
	cmp	w4, 2
	beq	.L733
	.loc 1 5418 0
	ldr	w1, [x20,444]
	add	x1, x19, x1, lsl 2
	ldr	w1, [x1,3376]
	cmp	w0, w1
	blt	.L732
	.loc 1 5416 0 discriminator 1
	cmp	w4, 3
	beq	.L733
	.loc 1 5418 0
	ldr	w1, [x20,448]
	add	x1, x19, x1, lsl 2
	ldr	w1, [x1,3376]
	cmp	w1, w0
	bgt	.L732
	.loc 1 5416 0 discriminator 1
	cmp	w4, 4
	beq	.L733
	.loc 1 5418 0
	ldr	w1, [x20,452]
	add	x1, x19, x1, lsl 2
	ldr	w1, [x1,3376]
	cmp	w1, w0
	bgt	.L732
	.loc 1 5416 0 discriminator 1
	cmp	w4, 5
	beq	.L733
	.loc 1 5418 0
	ldr	w1, [x20,456]
	add	x1, x19, x1, lsl 2
	ldr	w1, [x1,3376]
	cmp	w1, w0
	bgt	.L732
	.loc 1 5416 0 discriminator 1
	cmp	w4, 6
	beq	.L733
	.loc 1 5418 0
	ldr	w1, [x20,460]
	add	x1, x19, x1, lsl 2
	ldr	w1, [x1,3376]
	cmp	w1, w0
	bgt	.L732
	.loc 1 5416 0 discriminator 1
	cmp	w4, 7
	beq	.L733
	.loc 1 5418 0
	ldr	w1, [x20,464]
	add	x1, x19, x1, lsl 2
	ldr	w1, [x1,3376]
	cmp	w1, w0
	bgt	.L732
	.loc 1 5416 0 discriminator 1
	cmp	w4, 8
	beq	.L733
	.loc 1 5418 0
	ldr	w1, [x20,468]
	add	x1, x19, x1, lsl 2
	ldr	w1, [x1,3376]
	cmp	w1, w0
	bgt	.L732
	.loc 1 5416 0 discriminator 1
	cmp	w4, 9
	beq	.L733
	.loc 1 5418 0
	ldr	w1, [x20,472]
	add	x1, x19, x1, lsl 2
	ldr	w1, [x1,3376]
	cmp	w1, w0
	bgt	.L732
	.loc 1 5416 0 discriminator 1
	cmp	w4, 10
	beq	.L733
	.loc 1 5418 0
	ldr	w1, [x20,476]
	add	x1, x19, x1, lsl 2
	ldr	w1, [x1,3376]
	cmp	w0, w1
	blt	.L732
	.loc 1 5416 0 discriminator 1
	cmp	w4, 11
	beq	.L733
	.loc 1 5418 0
	ldr	w1, [x20,480]
	add	x1, x19, x1, lsl 2
	ldr	w1, [x1,3376]
	cmp	w0, w1
	blt	.L732
	.loc 1 5416 0 discriminator 1
	cmp	w4, 12
	beq	.L733
	.loc 1 5418 0
	ldr	w1, [x20,484]
	add	x1, x19, x1, lsl 2
	ldr	w1, [x1,3376]
	cmp	w0, w1
	blt	.L732
	.loc 1 5416 0 discriminator 1
	cmp	w4, 13
	beq	.L733
	.loc 1 5418 0
	ldr	w1, [x20,488]
	add	x1, x19, x1, lsl 2
	ldr	w1, [x1,3376]
	cmp	w0, w1
	blt	.L732
	.loc 1 5416 0 discriminator 1
	cmp	w4, 14
	beq	.L733
	.loc 1 5418 0
	ldr	w1, [x20,492]
	add	x1, x19, x1, lsl 2
	ldr	w1, [x1,3376]
	cmp	w0, w1
	blt	.L732
	.loc 1 5416 0 discriminator 1
	cmp	w4, 15
	beq	.L733
	.loc 1 5418 0
	ldr	w1, [x20,496]
	add	x1, x19, x1, lsl 2
	ldr	w1, [x1,3376]
	cmp	w0, w1
	cset	w0, ge
.LVL535:
.L654:
	.loc 1 5426 0
	strb	w0, [x20,24]
	.loc 1 5427 0
	ldrb	w0, [x27,2707]
.LVL536:
	strb	w0, [x20,25]
	.loc 1 5428 0
	ldr	w0, [x21,2396]
	str	w0, [x20,28]
	.loc 1 5429 0
	ldrb	w0, [x21,2350]
	strb	w0, [x20,32]
	.loc 1 5430 0
	ldr	w0, [x21,2420]
	str	w0, [x20,36]
	.loc 1 5432 0
	ldr	w0, [x21,2400]
	cbnz	w0, .L655
	.loc 1 5432 0 is_stmt 0 discriminator 1
	ldrb	w0, [x21,2351]
	cbnz	w0, .L656
	.loc 1 5434 0 is_stmt 1
	ldrsw	x0, [x21,2452]
	add	x0, x20, x0, lsl 2
	ldr	w3, [x0,436]
.LVL537:
.L657:
	.loc 1 5444 0
	str	w3, [x20,40]
	.loc 1 5477 0
	mov	x0, x19
	.loc 1 5444 0
	str	x3, [x29,104]
	.loc 1 5445 0
	ldr	w1, [x21,2452]
	str	w1, [x20,48]
	.loc 1 5446 0
	ldrb	w1, [x21,2351]
	strb	w1, [x20,52]
	.loc 1 5447 0
	ldr	w1, [x21,2456]
	str	w1, [x20,44]
	.loc 1 5449 0
	ldr	w1, [x21,2508]
	.loc 1 5451 0
	cmp	w1, wzr
	cset	w2, ne
	sub	w1, w1, w2
	str	w1, [x20,60]
	.loc 1 5458 0
	ldr	w1, [x21,2512]
	.loc 1 5460 0
	cmp	w1, wzr
	cset	w2, ne
	sub	w1, w1, w2
	str	w1, [x20,56]
	.loc 1 5466 0
	ldrb	w1, [x21,2347]
	strb	w1, [x20,64]
	.loc 1 5467 0
	ldrb	w1, [x21,2349]
	strb	w1, [x20,65]
	.loc 1 5468 0
	ldr	w1, [x21,2500]
	str	w1, [x20,68]
	.loc 1 5469 0
	ldr	w1, [x21,2504]
	str	w1, [x20,72]
	.loc 1 5470 0
	ldr	w1, [x21,2400]
	str	w1, [x20,76]
	.loc 1 5472 0
	ldr	w1, [x27,2784]
	str	w1, [x20,80]
	.loc 1 5474 0
	ldr	x1, [x19,27944]
	ldr	w4, [x27,2784]
	ldr	w1, [x1,240]
	udiv	w2, w4, w1
	msub	w1, w2, w1, w4
	str	w1, [x20,84]
	.loc 1 5475 0
	ldr	x2, [x19,27944]
	ldr	w1, [x27,2784]
	ldr	w2, [x2,240]
	udiv	w1, w1, w2
	str	w1, [x20,88]
	.loc 1 5477 0
	ldr	w1, [x27,2784]
	bl	HEVC_CtbRsAddrToTsAddr
.LVL538:
	str	w0, [x20,92]
	.loc 1 5491 0
	ldr	x3, [x29,104]
.LVL539:
	.loc 1 5479 0
	ldr	w0, [x21,2464]
	str	w0, [x20,96]
	.loc 1 5480 0
	ldr	w0, [x21,2468]
	str	w0, [x20,100]
	.loc 1 5482 0
	ldr	w0, [x21,2476]
	str	w0, [x20,104]
	.loc 1 5483 0
	ldr	w0, [x21,2472]
	str	w0, [x20,108]
	.loc 1 5484 0
	ldrb	w0, [x21,2346]
	strb	w0, [x20,112]
	.loc 1 5485 0
	ldrb	w0, [x21,2345]
	strb	w0, [x20,113]
	.loc 1 5486 0
	ldrb	w0, [x21,2353]
	strb	w0, [x20,114]
	.loc 1 5487 0
	ldrb	w0, [x21,2354]
	strb	w0, [x20,115]
	.loc 1 5491 0
	ldr	x0, [x19,27952]
	ldrb	w1, [x0,10]
	cbz	w1, .L660
	.loc 1 5491 0 is_stmt 0 discriminator 1
	ldr	w1, [x21,2400]
	cmp	w1, 1
	beq	.L661
.L660:
	.loc 1 5491 0 discriminator 3
	ldrb	w0, [x0,11]
	cmp	w0, 1
	beq	.L662
	add	x27, x19, 57344
.L663:
	.loc 1 5519 0 is_stmt 1
	ldrb	w0, [x21,2347]
	cbz	w0, .L665
	.loc 1 5521 0
	ldr	w0, [x26,w3,sxtw 2]
	str	w0, [x20,564]
.L665:
	.loc 1 5524 0
	ldr	x0, [x28,208]
	ldr	x1, [x19,2352]
	add	x22, x0, x22
	str	x1, [x22,32]
	.loc 1 5525 0
	str	xzr, [x19,2352]
	.loc 1 5527 0
	ldrb	w0, [x27,2817]
	cbz	w0, .L640
	.loc 1 5529 0
	ldr	w0, [x19,212]
	cmp	w0, 1
	beq	.L781
	.loc 1 5535 0
	sub	w2, w0, #2
	.loc 1 5536 0
	sub	w0, w0, #1
	add	x1, x0, 4096
	.loc 1 5535 0
	ldr	w3, [x20,92]
.LVL540:
	add	x2, x19, x2, lsl 3
	.loc 1 5536 0
	add	x1, x1, 3818
	.loc 1 5535 0
	add	x2, x2, 61440
	sub	w3, w3, #1
	.loc 1 5536 0
	add	x1, x19, x1, lsl 3
	.loc 1 5535 0
	str	w3, [x2,1888]
	.loc 1 5536 0
	ldr	w2, [x20,92]
	str	w2, [x1,12]
.LVL541:
.L667:
	.loc 1 5539 0
	ldr	w1, [x27,2620]
	add	x0, x19, x0, lsl 3
	ldr	w2, [x27,2616]
	add	x0, x0, 61440
	madd	w2, w1, w2, w2
	add	w1, w2, w1
	str	w1, [x0,1888]
	.loc 1 5549 0
	mov	w0, 36863
	.loc 1 5547 0
	ldr	w1, [x20,92]
	sub	w1, w1, #1
	.loc 1 5549 0
	cmp	w1, w0
	bhi	.L640
	.loc 1 5553 0
	mov	x0, x19
	bl	HEVC_CtbTsAddrToRsAddr
.LVL542:
	str	w0, [x20,568]
.LVL543:
.L640:
	.loc 1 5559 0
	ldr	x2, [x29,184]
	mov	w0, w23
	ldr	x1, [x24,#:lo12:__stack_chk_guard]
	cmp	x2, x1
	bne	.L782
	ldp	x19, x20, [sp,16]
	.cfi_remember_state
	.cfi_restore 20
	.cfi_restore 19
.LVL544:
	ldp	x21, x22, [sp,32]
	.cfi_restore 22
	.cfi_restore 21
	ldp	x23, x24, [sp,48]
	.cfi_restore 24
	.cfi_restore 23
	ldp	x25, x26, [sp,64]
	.cfi_restore 26
	.cfi_restore 25
	ldp	x27, x28, [sp,80]
	.cfi_restore 28
	.cfi_restore 27
	ldp	x29, x30, [sp], 192
	.cfi_restore 30
	.cfi_restore 29
	.cfi_def_cfa 31, 0
	ret
.LVL545:
.L702:
	.cfi_restore_state
	.loc 1 5314 0
	mov	w0, 1
.LVL546:
	b	.L653
.LVL547:
.L701:
	.loc 1 5409 0
	mov	w0, 0
.LVL548:
	b	.L653
.LVL549:
.L779:
	.loc 1 5347 0
	umull	x0, w0, w21
	ldr	x1, [x25,3488]
	add	x1, x1, x0
	b	.L642
.L655:
	.loc 1 5436 0 discriminator 3
	cmp	w0, 1
	.loc 1 5442 0
	mov	w3, 0
.LVL550:
	.loc 1 5436 0 discriminator 3
	bne	.L657
.L656:
	.loc 1 5438 0
	ldrsw	x0, [x21,2452]
	add	x0, x20, x0, lsl 2
	ldr	w3, [x0,372]
.LVL551:
	b	.L657
.L780:
	.loc 1 5387 0
	add	x1, x27, 2704
	add	x0, x21, 2340
	mov	x2, 3732
	bl	memcpy
.LVL552:
	.loc 1 5388 0
	mov	w0, 1
	strb	w0, [x19,9]
	b	.L647
.LVL553:
.L662:
	.loc 1 5492 0
	ldr	w0, [x21,2400]
	add	x27, x19, 57344
	cbnz	w0, .L663
.L661:
	.loc 1 5494 0
	ldr	w0, [x21,3932]
	.loc 1 5495 0
	add	x27, x19, 57344
	.loc 1 5494 0
	str	w0, [x20,580]
	.loc 1 5498 0
	add	x9, x27, 872
	add	x8, x20, 588
	.loc 1 5500 0
	add	x7, x27, 36
	.loc 1 5495 0
	ldr	w0, [x27,868]
	.loc 1 5500 0
	add	x6, x20, 716
	.loc 1 5495 0
	str	w0, [x20,584]
	.loc 1 5502 0
	add	x1, x27, 936
	mov	x2, 128
	add	x0, x20, 844
	.loc 1 5498 0
	ldp	x4, x5, [x9]
	stp	x4, x5, [x8]
	str	x3, [x29,104]
	ldp	x4, x5, [x9,16]
	stp	x4, x5, [x8,16]
	ldp	x4, x5, [x9,32]
	stp	x4, x5, [x8,32]
	ldp	x4, x5, [x9,48]
	stp	x4, x5, [x8,48]
	.loc 1 5500 0
	ldp	x4, x5, [x7]
	stp	x4, x5, [x6]
	ldp	x4, x5, [x7,16]
	stp	x4, x5, [x6,16]
	ldp	x4, x5, [x7,32]
	stp	x4, x5, [x6,32]
	ldp	x4, x5, [x7,48]
	stp	x4, x5, [x6,48]
	.loc 1 5502 0
	bl	memcpy
.LVL554:
	.loc 1 5504 0
	add	x0, x20, 1100
	add	x1, x27, 1064
	mov	x2, 128
	bl	memcpy
.LVL555:
	.loc 1 5507 0
	ldr	w0, [x21,2400]
	ldr	x3, [x29,104]
.LVL556:
	cbnz	w0, .L663
	.loc 1 5509 0
	add	x9, x27, 1192
	add	x8, x20, 652
	.loc 1 5511 0
	add	x7, x27, 548
	add	x6, x20, 780
	.loc 1 5513 0
	mov	x2, 128
	.loc 1 5509 0
	ldp	x0, x1, [x9]
	stp	x0, x1, [x8]
	.loc 1 5513 0
	add	x1, x27, 1256
	add	x0, x20, 972
	.loc 1 5509 0
	ldp	x4, x5, [x9,16]
	stp	x4, x5, [x8,16]
	ldp	x4, x5, [x9,32]
	stp	x4, x5, [x8,32]
	ldp	x4, x5, [x9,48]
	stp	x4, x5, [x8,48]
	.loc 1 5511 0
	ldp	x4, x5, [x7]
	stp	x4, x5, [x6]
	ldp	x4, x5, [x7,16]
	stp	x4, x5, [x6,16]
	ldp	x4, x5, [x7,32]
	stp	x4, x5, [x6,32]
	ldp	x4, x5, [x7,48]
	stp	x4, x5, [x6,48]
	.loc 1 5513 0
	bl	memcpy
.LVL557:
	.loc 1 5515 0
	add	x0, x20, 1228
	add	x1, x27, 1384
	mov	x2, 128
	bl	memcpy
.LVL558:
	ldr	x3, [x29,104]
.LVL559:
	b	.L663
.LVL560:
.L732:
	.loc 1 5418 0
	mov	w0, 0
.LVL561:
	b	.L654
.LVL562:
.L649:
	.loc 1 5398 0 discriminator 1
	ldr	w0, [x21,2504]
	cbnz	w0, .L668
.L733:
	.loc 1 5416 0 discriminator 1
	mov	w0, 1
.LVL563:
	b	.L654
.LVL564:
.L781:
	.loc 1 5531 0
	ldr	w1, [x20,92]
	mov	x0, 0
	str	w1, [x25,1884]
	b	.L667
.LVL565:
.L670:
	.loc 1 5325 0
	mov	w23, -1
	b	.L640
.L778:
	.loc 1 5330 0
	adrp	x1, .LC70
	mov	w2, w20
	add	x1, x1, :lo12:.LC70
	mov	w0, 1
	.loc 1 5334 0
	mov	w23, -1
	.loc 1 5330 0
	bl	dprint_linux_kernel
.LVL566:
	.loc 1 5334 0
	b	.L640
.LVL567:
.L705:
	.loc 1 5416 0 discriminator 1
	mov	w0, w4
.LVL568:
	b	.L654
.LVL569:
.L782:
	.loc 1 5559 0
	bl	__stack_chk_fail
.LVL570:
	.cfi_endproc
.LFE2379:
	.size	HEVC_WriteSliceMsg, .-HEVC_WriteSliceMsg
	.align	2
	.global	HEVC_GetVirAddr
	.type	HEVC_GetVirAddr, %function
HEVC_GetVirAddr:
.LFB2380:
	.loc 1 5571 0
	.cfi_startproc
.LVL571:
	.loc 1 5573 0
	add	x0, x1, x0, uxtw 2
.LVL572:
	ret
	.cfi_endproc
.LFE2380:
	.size	HEVC_GetVirAddr, .-HEVC_GetVirAddr
	.align	2
	.global	HEVC_GetPhyAddr
	.type	HEVC_GetPhyAddr, %function
HEVC_GetPhyAddr:
.LFB2381:
	.loc 1 5584 0
	.cfi_startproc
.LVL573:
	.loc 1 5586 0
	add	w0, w1, w0, lsl 2
.LVL574:
	ret
	.cfi_endproc
.LFE2381:
	.size	HEVC_GetPhyAddr, .-HEVC_GetPhyAddr
	.align	2
	.global	HEVC_CfgVDMReg
	.type	HEVC_CfgVDMReg, %function
HEVC_CfgVDMReg:
.LFB2382:
	.loc 1 5598 0
	.cfi_startproc
.LVL575:
	.loc 1 5598 0
	mov	x1, x0
	.loc 1 5604 0
	mov	w0, 0
.LVL576:
	.loc 1 5599 0
	add	x3, x1, 49152
	add	x2, x1, 57344
	.loc 1 5601 0
	add	x4, x1, 61440
	.loc 1 5599 0
	ldr	w5, [x3,2396]
	cmp	w5, wzr
	cset	w5, eq
	str	w5, [x2,3908]
	.loc 1 5600 0
	ldr	w3, [x3,2400]
	str	w3, [x2,3900]
	.loc 1 5601 0
	ldr	w1, [x1,204]
.LVL577:
	str	w1, [x4,912]
	.loc 1 5604 0
	ret
	.cfi_endproc
.LFE2382:
	.size	HEVC_CfgVDMReg, .-HEVC_CfgVDMReg
	.align	2
	.global	HEVC_IsRefForCurrPic
	.type	HEVC_IsRefForCurrPic, %function
HEVC_IsRefForCurrPic:
.LFB2383:
	.loc 1 5607 0
	.cfi_startproc
.LVL578:
	stp	x29, x30, [sp, -48]!
	.cfi_def_cfa_offset 48
	.cfi_offset 29, -48
	.cfi_offset 30, -40
	add	x29, sp, 0
	.cfi_def_cfa_register 29
	stp	x19, x20, [sp,16]
	.cfi_offset 19, -32
	.cfi_offset 20, -24
	.loc 1 5621 0
	add	x19, x0, 49152
	.loc 1 5607 0
	str	x21, [sp,32]
	.cfi_offset 21, -16
	ldr	w4, [x0,156]
	.loc 1 5621 0
	ldr	w3, [x19,2780]
	tbnz	w3, #31, .L788
	.loc 1 5621 0 is_stmt 0 discriminator 1
	cmp	w3, w4
	bge	.L788
	.loc 1 5633 0 is_stmt 1
	ldr	x1, [x0,2328]
	.loc 1 5628 0
	mov	w2, 2024
	ldr	w4, [x0,152]
	.loc 1 5633 0
	nop // between mem op and mult-accumulate
	smaddl	x3, w3, w2, x1
	ldr	w3, [x3,32]
	tbnz	w3, #31, .L792
	.loc 1 5633 0 is_stmt 0 discriminator 1
	cmp	w3, w4
	bge	.L792
	.loc 1 5649 0 is_stmt 1
	add	x20, x0, 53248
	.loc 1 5642 0
	ldr	x1, [x0,2320]
	.loc 1 5641 0
	mov	w2, 23556
	.loc 1 5649 0
	ldr	w5, [x20,1892]
	.loc 1 5642 0
	nop // between mem op and mult-accumulate
	smaddl	x3, w3, w2, x1
	.loc 1 5649 0
	ldr	w6, [x20,1896]
	.loc 1 5642 0
	mov	w1, 1
	.loc 1 5649 0 discriminator 1
	ldr	w10, [x20,1900]
	.loc 1 5649 0 is_stmt 0
	add	w9, w6, w5
	.loc 1 5642 0 is_stmt 1
	ldr	w4, [x3,128]
	.loc 1 5649 0 discriminator 1
	cmp	w9, w10
	.loc 1 5649 0 is_stmt 0
	mov	w3, w9
.LVL579:
	.loc 1 5642 0 is_stmt 1
	lsl	w4, w1, w4
.LVL580:
	.loc 1 5649 0 discriminator 1
	bcs	.L802
	.loc 1 5654 0
	cmp	w9, 15
	bgt	.L795
	sxtw	x1, w9
	ldr	w7, [x19,2376]
	add	x1, x1, 12288
	add	x1, x1, 1057
	add	x0, x0, x1, lsl 2
.LVL581:
	b	.L797
.LVL582:
.L873:
	.loc 1 5649 0 discriminator 1
	cmp	w10, w3
	bls	.L802
	.loc 1 5654 0
	cmp	w3, 16
	beq	.L795
.L797:
	.loc 1 5664 0
	ldr	w8, [x0]
	.loc 1 5649 0 discriminator 2
	add	w3, w3, 1
	.loc 1 5662 0
	ldr	w2, [x0,1884]
.LVL583:
	.loc 1 5661 0
	mov	w1, w7
	add	x0, x0, 4
	.loc 1 5664 0
	cbnz	w8, .L798
	.loc 1 5666 0
	sdiv	w1, w7, w4
.LVL584:
	.loc 1 5667 0
	sdiv	w8, w2, w4
	.loc 1 5666 0
	msub	w1, w1, w4, w7
	.loc 1 5667 0
	msub	w2, w8, w4, w2
.L798:
	.loc 1 5670 0
	cmp	w1, w2
	bne	.L873
	.loc 1 5672 0
	mov	w21, 1
.LVL585:
.L794:
	.loc 1 5678 0 discriminator 1
	cbz	w9, .L790
	.loc 1 5690 0
	ldr	w0, [x19,2752]
.LVL586:
	ldr	w3, [x20,1948]
.LVL587:
	ldr	w1, [x19,2376]
	add	w3, w0, w3
	cmp	w1, w3
	beq	.L821
	.loc 1 5678 0 discriminator 1
	cmp	w9, 1
	bls	.L790
	.loc 1 5690 0
	ldr	w3, [x20,1952]
	add	w3, w0, w3
	cmp	w3, w1
	beq	.L821
	.loc 1 5678 0 discriminator 1
	cmp	w9, 2
	beq	.L790
	.loc 1 5690 0
	ldr	w3, [x20,1956]
	add	w3, w0, w3
	cmp	w3, w1
	beq	.L821
	.loc 1 5678 0 discriminator 1
	cmp	w9, 3
	beq	.L790
	.loc 1 5690 0
	ldr	w3, [x20,1960]
	add	w3, w0, w3
	cmp	w3, w1
	beq	.L821
	.loc 1 5678 0 discriminator 1
	cmp	w9, 4
	beq	.L790
	.loc 1 5690 0
	ldr	w2, [x20,1964]
.LVL588:
	add	w2, w0, w2
	cmp	w2, w1
	beq	.L821
	.loc 1 5678 0 discriminator 1
	cmp	w9, 5
	beq	.L790
	.loc 1 5690 0
	ldr	w3, [x20,1968]
	add	w3, w0, w3
	cmp	w3, w1
	beq	.L821
	.loc 1 5678 0 discriminator 1
	cmp	w9, 6
	beq	.L790
	.loc 1 5690 0
	ldr	w3, [x20,1972]
	add	w3, w0, w3
	cmp	w3, w1
	beq	.L821
	.loc 1 5678 0 discriminator 1
	cmp	w9, 7
	beq	.L790
	.loc 1 5690 0
	ldr	w3, [x20,1976]
	add	w3, w0, w3
	cmp	w3, w1
	beq	.L821
	.loc 1 5678 0 discriminator 1
	cmp	w9, 8
	beq	.L790
	.loc 1 5690 0
	ldr	w3, [x20,1980]
	add	w3, w0, w3
	cmp	w3, w1
	beq	.L821
	.loc 1 5678 0 discriminator 1
	cmp	w9, 9
	beq	.L790
	.loc 1 5690 0
	ldr	w2, [x20,1984]
	add	w2, w0, w2
	cmp	w2, w1
	beq	.L821
	.loc 1 5678 0 discriminator 1
	cmp	w9, 10
	beq	.L790
	.loc 1 5690 0
	ldr	w3, [x20,1988]
	add	w3, w0, w3
	cmp	w3, w1
	beq	.L821
	.loc 1 5678 0 discriminator 1
	cmp	w9, 11
	beq	.L790
	.loc 1 5690 0
	ldr	w3, [x20,1992]
	add	w3, w0, w3
	cmp	w3, w1
	beq	.L821
	.loc 1 5678 0 discriminator 1
	cmp	w9, 12
	beq	.L790
	.loc 1 5690 0
	ldr	w3, [x20,1996]
	add	w3, w0, w3
	cmp	w3, w1
	beq	.L821
	.loc 1 5678 0 discriminator 1
	cmp	w9, 13
	beq	.L790
	.loc 1 5690 0
	ldr	w3, [x20,2000]
	add	w3, w0, w3
	cmp	w3, w1
	beq	.L821
	.loc 1 5678 0 discriminator 1
	cmp	w9, 14
	beq	.L790
	.loc 1 5690 0
	ldr	w2, [x20,2004]
	add	w2, w0, w2
	cmp	w2, w1
	beq	.L821
	.loc 1 5678 0 discriminator 1
	cmp	w9, 15
	beq	.L790
	.loc 1 5690 0
	ldr	w2, [x20,2008]
	add	x20, x20, 1876
	add	w2, w0, w2
	cmp	w2, w1
	beq	.L821
	.loc 1 5678 0 discriminator 1
	cmp	w9, 16
	beq	.L790
	.loc 1 5690 0
	ldr	w2, [x20,136]
	add	w0, w0, w2
	cmp	w0, w1
	beq	.L821
	.loc 1 5678 0 discriminator 1
	cmp	w9, 17
	beq	.L790
	.loc 1 5685 0
	mov	w3, 17
	adrp	x1, .LC74
	add	x1, x1, :lo12:.LC74
	mov	w2, 5686
	mov	w4, w3
.LVL589:
	mov	w0, 0
	bl	dprint_linux_kernel
.LVL590:
	.loc 1 5698 0
	mov	w0, w21
	ldr	x21, [sp,32]
	.cfi_remember_state
	.cfi_restore 21
.LVL591:
	ldp	x19, x20, [sp,16]
	.cfi_restore 19
	.cfi_restore 20
	ldp	x29, x30, [sp], 48
	.cfi_restore 29
	.cfi_restore 30
	.cfi_def_cfa 31, 0
	ret
.LVL592:
.L792:
	.cfi_restore_state
	.loc 1 5636 0
	adrp	x1, .LC72
	mov	w0, 0
.LVL593:
	add	x1, x1, :lo12:.LC72
	mov	w2, 5637
	.loc 1 5638 0
	mov	w21, 0
.LVL594:
	.loc 1 5636 0
	bl	dprint_linux_kernel
.LVL595:
.L790:
	.loc 1 5698 0
	mov	w0, w21
.LVL596:
	ldr	x21, [sp,32]
	.cfi_remember_state
	.cfi_restore 21
.LVL597:
	ldp	x19, x20, [sp,16]
	.cfi_restore 20
	.cfi_restore 19
	ldp	x29, x30, [sp], 48
	.cfi_restore 30
	.cfi_restore 29
	.cfi_def_cfa 31, 0
	ret
.LVL598:
.L788:
	.cfi_restore_state
	.loc 1 5624 0
	adrp	x1, .LC71
	mov	w2, 5625
	add	x1, x1, :lo12:.LC71
	mov	w0, 0
.LVL599:
	.loc 1 5626 0
	mov	w21, 0
.LVL600:
	.loc 1 5624 0
	bl	dprint_linux_kernel
.LVL601:
	.loc 1 5698 0
	mov	w0, w21
	ldr	x21, [sp,32]
	.cfi_remember_state
	.cfi_restore 21
.LVL602:
	ldp	x19, x20, [sp,16]
	.cfi_restore 19
	.cfi_restore 20
	ldp	x29, x30, [sp], 48
	.cfi_restore 29
	.cfi_restore 30
	.cfi_def_cfa 31, 0
	ret
.LVL603:
.L802:
	.cfi_restore_state
	.loc 1 5616 0
	mov	w21, 0
.LVL604:
	b	.L794
.LVL605:
.L795:
	.loc 1 5656 0
	adrp	x1, .LC73
	mov	w5, w10
	mov	w0, 0
.LVL606:
	add	x1, x1, :lo12:.LC73
	mov	w2, 5657
.LVL607:
	mov	w4, 16
.LVL608:
	.loc 1 5616 0
	mov	w21, 0
.LVL609:
	.loc 1 5656 0
	bl	dprint_linux_kernel
.LVL610:
	ldr	w6, [x20,1896]
	ldr	w5, [x20,1892]
	add	w9, w5, w6
	.loc 1 5658 0
	b	.L794
.LVL611:
.L821:
	.loc 1 5692 0
	mov	w21, 1
	b	.L790
	.cfi_endproc
.LFE2383:
	.size	HEVC_IsRefForCurrPic, .-HEVC_IsRefForCurrPic
	.align	2
	.global	HEVC_RepairList
	.type	HEVC_RepairList, %function
HEVC_RepairList:
.LFB2386:
	.loc 1 6120 0
	.cfi_startproc
.LVL612:
	stp	x29, x30, [sp, -112]!
	.cfi_def_cfa_offset 112
	.cfi_offset 29, -112
	.cfi_offset 30, -104
	add	x29, sp, 0
	.cfi_def_cfa_register 29
	stp	x25, x26, [sp,64]
	.cfi_offset 25, -48
	.cfi_offset 26, -40
	.loc 1 6125 0
	add	x25, x0, 49152
	.loc 1 6120 0
	mov	x26, x0
	stp	x19, x20, [sp,16]
	stp	x21, x22, [sp,32]
	stp	x23, x24, [sp,48]
	stp	x27, x28, [sp,80]
	.cfi_offset 19, -96
	.cfi_offset 20, -88
	.cfi_offset 21, -80
	.cfi_offset 22, -72
	.cfi_offset 23, -64
	.cfi_offset 24, -56
	.cfi_offset 27, -32
	.cfi_offset 28, -24
	.loc 1 6125 0
	ldr	w3, [x25,2764]
	cmp	w3, 1
	beq	.L890
	cmp	w3, 2
	beq	.L891
	.loc 1 6131 0
	mov	w22, 2
.LVL613:
	.loc 1 6125 0
	cbz	w3, .L876
	.loc 1 6137 0
	adrp	x2, .LANCHOR0
	adrp	x1, .LC75
	add	x2, x2, :lo12:.LANCHOR0
	add	x1, x1, :lo12:.LC75
	add	x2, x2, 256
	mov	w0, 1
	bl	dprint_linux_kernel
.LVL614:
	.loc 1 6138 0
	mov	w0, -1
	.loc 1 6191 0
	ldp	x19, x20, [sp,16]
	.cfi_remember_state
	.cfi_restore 19
	.cfi_restore 20
	ldp	x21, x22, [sp,32]
	.cfi_restore 21
	.cfi_restore 22
.LVL615:
	ldp	x23, x24, [sp,48]
	.cfi_restore 23
	.cfi_restore 24
	ldp	x25, x26, [sp,64]
	.cfi_restore 25
	.cfi_restore 26
.LVL616:
	ldp	x27, x28, [sp,80]
	.cfi_restore 27
	.cfi_restore 28
	ldp	x29, x30, [sp], 112
	.cfi_restore 29
	.cfi_restore 30
	.cfi_def_cfa 31, 0
	ret
.LVL617:
.L890:
	.cfi_restore_state
	.loc 1 6128 0
	mov	w22, w3
.LVL618:
.L876:
	.loc 1 6174 0
	adrp	x0, .LC77
	adrp	x23, .LANCHOR0
	add	x0, x0, :lo12:.LC77
	add	x23, x23, :lo12:.LANCHOR0
	str	x0, [x29,104]
	add	x24, x25, 2864
	add	x0, x23, 256
	add	x27, x26, 2360
	.loc 1 6131 0
	mov	w28, 0
	.loc 1 6174 0
	str	x0, [x29,96]
.LVL619:
.L889:
	.loc 1 6143 0
	ldr	w0, [x24]
	cbz	w0, .L879
	.loc 1 6148 0
	ldr	x21, [x27]
	cbnz	x21, .L892
	.loc 1 6146 0 discriminator 1
	cmp	w0, 1
	bls	.L881
	.loc 1 6148 0
	ldr	x21, [x27,8]
	cbnz	x21, .L893
	.loc 1 6146 0 discriminator 1
	cmp	w0, 2
	beq	.L881
	.loc 1 6148 0
	ldr	x21, [x27,16]
	cbnz	x21, .L894
	.loc 1 6146 0 discriminator 1
	cmp	w0, 3
	beq	.L881
	.loc 1 6148 0
	ldr	x21, [x27,24]
	cbnz	x21, .L895
	.loc 1 6146 0 discriminator 1
	cmp	w0, 4
	beq	.L881
	.loc 1 6148 0
	ldr	x21, [x27,32]
	cbnz	x21, .L896
	.loc 1 6146 0 discriminator 1
	cmp	w0, 5
	beq	.L881
	.loc 1 6148 0
	ldr	x21, [x27,40]
	cbnz	x21, .L897
	.loc 1 6146 0 discriminator 1
	cmp	w0, 6
	beq	.L881
	.loc 1 6148 0
	ldr	x21, [x27,48]
	cbnz	x21, .L898
	.loc 1 6146 0 discriminator 1
	cmp	w0, 7
	beq	.L881
	.loc 1 6148 0
	ldr	x21, [x27,56]
	cbnz	x21, .L899
	.loc 1 6146 0 discriminator 1
	cmp	w0, 8
	beq	.L881
	.loc 1 6148 0
	ldr	x21, [x27,64]
	cbnz	x21, .L900
	.loc 1 6146 0 discriminator 1
	cmp	w0, 9
	beq	.L881
	.loc 1 6148 0
	ldr	x21, [x27,72]
	cbnz	x21, .L901
	.loc 1 6146 0 discriminator 1
	cmp	w0, 10
	beq	.L881
	.loc 1 6148 0
	ldr	x21, [x27,80]
	cbnz	x21, .L902
	.loc 1 6146 0 discriminator 1
	cmp	w0, 11
	beq	.L881
	.loc 1 6148 0
	ldr	x21, [x27,88]
	cbnz	x21, .L903
	.loc 1 6146 0 discriminator 1
	cmp	w0, 12
	beq	.L881
	.loc 1 6148 0
	ldr	x21, [x27,96]
	cbnz	x21, .L904
	.loc 1 6146 0 discriminator 1
	cmp	w0, 13
	beq	.L881
	.loc 1 6148 0
	ldr	x21, [x27,104]
	cbnz	x21, .L905
	.loc 1 6146 0 discriminator 1
	cmp	w0, 14
	beq	.L881
	.loc 1 6148 0
	ldr	x21, [x27,112]
	cbnz	x21, .L906
	.loc 1 6146 0 discriminator 1
	cmp	w0, 15
	beq	.L881
	.loc 1 6148 0
	ldr	x21, [x27,120]
	cbnz	x21, .L907
	.loc 1 6146 0 discriminator 1
	cmp	w0, 16
	beq	.L881
	.loc 1 6148 0
	ldr	x21, [x27,128]
	cbnz	x21, .L908
.L881:
	.loc 1 6158 0
	ldr	x1, [x26,2336]
	ldr	w1, [x1,16]
	cmp	w1, 2
	bne	.L883
	.loc 1 6161 0
	ldr	x21, [x25,2416]
.LVL620:
	mov	w23, -1
	add	x21, x21, 40
.LVL621:
.L880:
	.loc 1 6150 0
	mov	x20, x27
	mov	w19, 0
	b	.L886
.L885:
	.loc 1 6170 0 discriminator 2
	add	w19, w19, 1
	add	x20, x20, 8
	.loc 1 6170 0 is_stmt 0 discriminator 1
	cmp	w0, w19
	bls	.L887
.L886:
	.loc 1 6172 0 is_stmt 1
	ldr	x1, [x20]
	cbnz	x1, .L885
	.loc 1 6174 0
	ldr	x1, [x29,104]
	mov	w4, w19
	ldr	x2, [x29,96]
	mov	w0, 1
	mov	w3, w28
	mov	w5, w23
	.loc 1 6170 0 discriminator 2
	add	w19, w19, 1
	add	x20, x20, 8
	.loc 1 6174 0
	bl	dprint_linux_kernel
.LVL622:
	.loc 1 6175 0
	str	x21, [x20,-8]
	ldr	w0, [x24]
	.loc 1 6170 0 discriminator 1
	cmp	w0, w19
	bhi	.L886
.L887:
	.loc 1 6141 0 discriminator 2
	add	w28, w28, 1
	add	x24, x24, 4
	.loc 1 6141 0 is_stmt 0 discriminator 1
	cmp	w28, w22
	add	x27, x27, 136
	mov	w28, 1
	bcc	.L889
.L891:
	.loc 1 6191 0 is_stmt 1
	ldp	x19, x20, [sp,16]
	.cfi_remember_state
	.cfi_restore 20
	.cfi_restore 19
	ldp	x21, x22, [sp,32]
	.cfi_restore 22
	.cfi_restore 21
.LVL623:
	ldp	x23, x24, [sp,48]
	.cfi_restore 24
	.cfi_restore 23
.LVL624:
	ldp	x25, x26, [sp,64]
	.cfi_restore 26
	.cfi_restore 25
.LVL625:
	ldp	x27, x28, [sp,80]
	.cfi_restore 28
	.cfi_restore 27
	.loc 1 6190 0
	mov	w0, 0
.LVL626:
	.loc 1 6191 0
	ldp	x29, x30, [sp], 112
	.cfi_restore 30
	.cfi_restore 29
	.cfi_def_cfa 31, 0
	ret
.LVL627:
.L879:
	.cfi_restore_state
	.loc 1 6181 0
	ldr	x0, [x26,2336]
	ldr	w0, [x0,16]
	cmp	w0, 2
	bne	.L887
	.loc 1 6184 0
	mov	w0, 1
	str	w0, [x24]
	.loc 1 6141 0 discriminator 2
	add	w28, w28, 1
	add	x24, x24, 4
	.loc 1 6185 0
	ldr	x0, [x25,2416]
	.loc 1 6141 0 discriminator 1
	cmp	w28, w22
	add	x27, x27, 136
	mov	w28, 1
	.loc 1 6185 0
	add	x0, x0, 40
	str	x0, [x27,-136]
	.loc 1 6141 0 discriminator 1
	bcc	.L889
	b	.L891
.L892:
	.loc 1 6150 0
	mov	w23, 0
	b	.L880
.L908:
	.loc 1 6146 0 discriminator 2
	mov	w7, 16
	.loc 1 6150 0
	sxtb	w23, w7
	b	.L880
.L893:
	.loc 1 6146 0 discriminator 2
	mov	w7, 1
	.loc 1 6150 0
	sxtb	w23, w7
	b	.L880
.L895:
	.loc 1 6146 0 discriminator 2
	mov	w7, 3
	.loc 1 6150 0
	sxtb	w23, w7
	b	.L880
.L894:
	.loc 1 6146 0 discriminator 2
	mov	w7, 2
	.loc 1 6150 0
	sxtb	w23, w7
	b	.L880
.L899:
	.loc 1 6146 0 discriminator 2
	mov	w7, 7
	.loc 1 6150 0
	sxtb	w23, w7
	b	.L880
.L898:
	.loc 1 6146 0 discriminator 2
	mov	w7, 6
	.loc 1 6150 0
	sxtb	w23, w7
	b	.L880
.L897:
	.loc 1 6146 0 discriminator 2
	mov	w7, 5
	.loc 1 6150 0
	sxtb	w23, w7
	b	.L880
.L896:
	.loc 1 6146 0 discriminator 2
	mov	w7, 4
	.loc 1 6150 0
	sxtb	w23, w7
	b	.L880
.L907:
	.loc 1 6146 0 discriminator 2
	mov	w7, 15
	.loc 1 6150 0
	sxtb	w23, w7
	b	.L880
.L906:
	.loc 1 6146 0 discriminator 2
	mov	w7, 14
	.loc 1 6150 0
	sxtb	w23, w7
	b	.L880
.L905:
	.loc 1 6146 0 discriminator 2
	mov	w7, 13
	.loc 1 6150 0
	sxtb	w23, w7
	b	.L880
.L904:
	.loc 1 6146 0 discriminator 2
	mov	w7, 12
	.loc 1 6150 0
	sxtb	w23, w7
	b	.L880
.L903:
	.loc 1 6146 0 discriminator 2
	mov	w7, 11
	.loc 1 6150 0
	sxtb	w23, w7
	b	.L880
.L902:
	.loc 1 6146 0 discriminator 2
	mov	w7, 10
	.loc 1 6150 0
	sxtb	w23, w7
	b	.L880
.L901:
	.loc 1 6146 0 discriminator 2
	mov	w7, 9
	.loc 1 6150 0
	sxtb	w23, w7
	b	.L880
.L900:
	.loc 1 6146 0 discriminator 2
	mov	w7, 8
	.loc 1 6150 0
	sxtb	w23, w7
	b	.L880
.L883:
	.loc 1 6165 0
	adrp	x2, .LANCHOR0
	adrp	x1, .LC76
	add	x2, x2, :lo12:.LANCHOR0
	mov	w3, w28
	add	x1, x1, :lo12:.LC76
	add	x2, x2, 256
	mov	w0, 1
	bl	dprint_linux_kernel
.LVL628:
	.loc 1 6166 0
	mov	w0, -1
	.loc 1 6191 0
	ldp	x19, x20, [sp,16]
	.cfi_restore 19
	.cfi_restore 20
	ldp	x21, x22, [sp,32]
	.cfi_restore 21
	.cfi_restore 22
.LVL629:
	ldp	x23, x24, [sp,48]
	.cfi_restore 23
	.cfi_restore 24
.LVL630:
	ldp	x25, x26, [sp,64]
	.cfi_restore 25
	.cfi_restore 26
.LVL631:
	ldp	x27, x28, [sp,80]
	.cfi_restore 27
	.cfi_restore 28
	ldp	x29, x30, [sp], 112
	.cfi_restore 29
	.cfi_restore 30
	.cfi_def_cfa 31, 0
	ret
	.cfi_endproc
.LFE2386:
	.size	HEVC_RepairList, .-HEVC_RepairList
	.align	2
	.global	HEVC_InitListX
	.type	HEVC_InitListX, %function
HEVC_InitListX:
.LFB2388:
	.loc 1 6241 0
	.cfi_startproc
.LVL632:
	stp	x29, x30, [sp, -352]!
	.cfi_def_cfa_offset 352
	.cfi_offset 29, -352
	.cfi_offset 30, -344
	add	x29, sp, 0
	.cfi_def_cfa_register 29
	stp	x21, x22, [sp,32]
	.cfi_offset 21, -320
	.cfi_offset 22, -312
	adrp	x21, __stack_chk_guard
	str	x23, [sp,48]
	stp	x19, x20, [sp,16]
	.cfi_offset 23, -304
	.cfi_offset 19, -336
	.cfi_offset 20, -328
	.loc 1 6241 0
	mov	x19, x0
	ldr	x0, [x21,#:lo12:__stack_chk_guard]
.LVL633:
	str	x0, [x29,344]
	.loc 1 6249 0
	cbz	x19, .L1046
	.loc 1 6254 0
	add	x20, x29, 72
	mov	w1, 0
	mov	x0, x20
	mov	x2, 272
	bl	memset
.LVL634:
	.loc 1 6257 0 discriminator 1
	ldr	w3, [x19,2688]
	cbz	w3, .L1047
	sub	w3, w3, #1
	add	x0, x19, 2832
	add	x3, x3, 355
	mov	w4, 0
	.loc 1 6260 0
	mov	x5, 4294967296
	add	x3, x19, x3, lsl 3
	b	.L962
.L961:
	add	x0, x0, 8
	.loc 1 6257 0 discriminator 1
	cmp	x0, x3
	beq	.L960
.L962:
	.loc 1 6259 0
	ldr	x1, [x0]
	ldrb	w2, [x1,1]
	cmp	w2, 1
	bne	.L961
	.loc 1 6260 0
	ldr	x2, [x1,56]
	cmp	x2, x5
	bne	.L961
	add	x0, x0, 8
	.loc 1 6263 0
	add	x1, x1, 40
	.loc 1 6257 0 discriminator 1
	cmp	x0, x3
	.loc 1 6263 0
	str	x1, [x20,w4,uxtw 3]
	add	w4, w4, 1
	.loc 1 6257 0 discriminator 1
	bne	.L962
.L960:
	.loc 1 6268 0 discriminator 1
	ldr	w3, [x19,2692]
	cbz	w3, .L1048
	sub	w3, w3, #1
	add	x0, x19, 2968
	add	x3, x3, 372
	mov	w6, w4
	.loc 1 6271 0
	mov	x5, 4294967296
	add	x3, x19, x3, lsl 3
	b	.L965
.L964:
	add	x0, x0, 8
	.loc 1 6268 0 discriminator 1
	cmp	x0, x3
	beq	.L1320
.L965:
	.loc 1 6270 0
	ldr	x1, [x0]
	ldrb	w2, [x1,1]
	cmp	w2, 1
	bne	.L964
	.loc 1 6271 0
	ldr	x2, [x1,56]
	cmp	x2, x5
	bne	.L964
	add	x0, x0, 8
	.loc 1 6274 0
	add	x1, x1, 40
	.loc 1 6268 0 discriminator 1
	cmp	x0, x3
	.loc 1 6274 0
	str	x1, [x20,w6,uxtw 3]
	add	w6, w6, 1
	.loc 1 6268 0 discriminator 1
	bne	.L965
.L1320:
	sub	w7, w6, w4
.L963:
	.loc 1 6280 0 discriminator 1
	ldr	w1, [x19,2684]
	cbz	w1, .L1049
	sub	w3, w1, #1
	add	x0, x19, 3104
	add	x3, x3, 389
	mov	w5, w6
	add	x3, x19, x3, lsl 3
	b	.L968
.L967:
	add	x0, x0, 8
	cmp	x0, x3
	beq	.L1321
.L968:
	.loc 1 6282 0
	ldr	x1, [x0]
	ldrb	w2, [x1,1]
	cmp	w2, 1
	bne	.L967
	.loc 1 6283 0
	ldr	x2, [x1,56]
	cmp	x2, 1
	bne	.L967
	add	x0, x0, 8
	.loc 1 6286 0
	add	x1, x1, 40
	.loc 1 6280 0 discriminator 1
	cmp	x0, x3
	.loc 1 6286 0
	str	x1, [x20,w5,uxtw 3]
	add	w5, w5, 1
	.loc 1 6280 0 discriminator 1
	bne	.L968
.L1321:
	sub	w1, w5, w4
	sub	w1, w1, w7
.L966:
	.loc 1 6292 0
	cbz	w5, .L1322
	.loc 1 6307 0
	add	x23, x19, 49152
	ldr	w8, [x23,2764]
	cbnz	w8, .L971
	.loc 1 6310 0 discriminator 1
	cbz	w7, .L972
	.loc 1 6312 0
	ldr	x0, [x20,w4,uxtw 3]
	.loc 1 6310 0 discriminator 1
	cmp	w7, 1
	.loc 1 6312 0
	str	x0, [x29,208]
	.loc 1 6310 0 discriminator 1
	bls	.L1050
	.loc 1 6312 0
	add	w0, w4, 1
	.loc 1 6310 0 discriminator 1
	cmp	w7, 2
	.loc 1 6312 0
	ldr	x0, [x20,w0,uxtw 3]
	str	x0, [x29,216]
	.loc 1 6310 0 discriminator 1
	beq	.L972
	.loc 1 6312 0
	add	w0, w4, 2
	.loc 1 6310 0 discriminator 1
	cmp	w7, 3
	.loc 1 6312 0
	ldr	x0, [x20,w0,uxtw 3]
	str	x0, [x20,152]
	.loc 1 6310 0 discriminator 1
	beq	.L972
	.loc 1 6312 0
	add	w0, w4, 3
	.loc 1 6310 0 discriminator 1
	cmp	w7, 4
	.loc 1 6312 0
	ldr	x0, [x20,w0,uxtw 3]
	str	x0, [x20,160]
	.loc 1 6310 0 discriminator 1
	beq	.L972
	.loc 1 6312 0
	add	w0, w4, 4
	.loc 1 6310 0 discriminator 1
	cmp	w7, 5
	.loc 1 6312 0
	ldr	x0, [x20,w0,uxtw 3]
	str	x0, [x20,168]
	.loc 1 6310 0 discriminator 1
	beq	.L972
	.loc 1 6312 0
	add	w0, w4, 5
	.loc 1 6310 0 discriminator 1
	cmp	w7, 6
	.loc 1 6312 0
	ldr	x0, [x20,w0,uxtw 3]
	str	x0, [x20,176]
	.loc 1 6310 0 discriminator 1
	beq	.L972
	.loc 1 6312 0
	add	w0, w4, 6
	.loc 1 6310 0 discriminator 1
	cmp	w7, 7
	.loc 1 6312 0
	ldr	x0, [x20,w0,uxtw 3]
	str	x0, [x20,184]
	.loc 1 6310 0 discriminator 1
	beq	.L972
	.loc 1 6312 0
	add	w0, w4, 7
	.loc 1 6310 0 discriminator 1
	cmp	w7, 8
	.loc 1 6312 0
	ldr	x0, [x20,w0,uxtw 3]
	str	x0, [x29,264]
	.loc 1 6310 0 discriminator 1
	beq	.L972
	.loc 1 6312 0
	add	w0, w4, 8
	.loc 1 6310 0 discriminator 1
	cmp	w7, 9
	.loc 1 6312 0
	ldr	x0, [x20,w0,uxtw 3]
	str	x0, [x29,272]
	.loc 1 6310 0 discriminator 1
	beq	.L972
	.loc 1 6312 0
	add	w0, w4, 9
	.loc 1 6310 0 discriminator 1
	cmp	w7, 10
	.loc 1 6312 0
	ldr	x0, [x20,w0,uxtw 3]
	str	x0, [x20,208]
	.loc 1 6310 0 discriminator 1
	beq	.L972
	.loc 1 6312 0
	add	w0, w4, 10
	.loc 1 6310 0 discriminator 1
	cmp	w7, 11
	.loc 1 6312 0
	ldr	x0, [x20,w0,uxtw 3]
	str	x0, [x20,216]
	.loc 1 6310 0 discriminator 1
	beq	.L972
	.loc 1 6312 0
	add	w0, w4, 11
	.loc 1 6310 0 discriminator 1
	cmp	w7, 12
	.loc 1 6312 0
	ldr	x0, [x20,w0,uxtw 3]
	str	x0, [x20,224]
	.loc 1 6310 0 discriminator 1
	beq	.L972
	.loc 1 6312 0
	add	w0, w4, 12
	.loc 1 6310 0 discriminator 1
	cmp	w7, 13
	.loc 1 6312 0
	ldr	x0, [x20,w0,uxtw 3]
	str	x0, [x20,232]
	.loc 1 6310 0 discriminator 1
	beq	.L972
	.loc 1 6312 0
	add	w0, w4, 13
	.loc 1 6310 0 discriminator 1
	cmp	w7, 14
	.loc 1 6312 0
	ldr	x0, [x20,w0,uxtw 3]
	str	x0, [x20,240]
	.loc 1 6310 0 discriminator 1
	beq	.L972
	.loc 1 6312 0
	add	w0, w4, 14
	.loc 1 6310 0 discriminator 1
	cmp	w7, 15
	.loc 1 6312 0
	ldr	x0, [x20,w0,uxtw 3]
	str	x0, [x20,248]
	.loc 1 6310 0 discriminator 1
	beq	.L972
	.loc 1 6312 0
	add	w0, w4, 15
	.loc 1 6310 0 discriminator 1
	cmp	w7, 16
	.loc 1 6312 0
	ldr	x0, [x20,w0,uxtw 3]
	str	x0, [x20,256]
	.loc 1 6310 0 discriminator 1
	beq	.L972
	.loc 1 6312 0
	add	w0, w4, 16
	ldr	x0, [x20,w0,uxtw 3]
	str	x0, [x20,264]
.L972:
	.loc 1 6314 0 discriminator 1
	cbz	w4, .L973
	.loc 1 6316 0
	ldr	x2, [x20]
	add	x0, x20, x7, uxtw 3
	.loc 1 6314 0 discriminator 1
	cmp	w4, 1
	.loc 1 6316 0
	str	x2, [x0,136]
	add	w0, w7, 1
	.loc 1 6314 0 discriminator 1
	bls	.L974
	.loc 1 6316 0
	ldr	x2, [x20,8]
	add	x0, x20, x0, uxtw 3
	.loc 1 6314 0 discriminator 1
	cmp	w4, 2
	.loc 1 6316 0
	str	x2, [x0,136]
	add	w0, w7, 2
	.loc 1 6314 0 discriminator 1
	beq	.L974
	.loc 1 6316 0
	ldr	x2, [x20,16]
	add	x0, x20, x0, uxtw 3
	.loc 1 6314 0 discriminator 1
	cmp	w4, 3
	.loc 1 6316 0
	str	x2, [x0,136]
	add	w0, w7, 3
	.loc 1 6314 0 discriminator 1
	beq	.L974
	.loc 1 6316 0
	ldr	x2, [x20,24]
	add	x0, x20, x0, uxtw 3
	.loc 1 6314 0 discriminator 1
	cmp	w4, 4
	.loc 1 6316 0
	str	x2, [x0,136]
	add	w0, w7, 4
	.loc 1 6314 0 discriminator 1
	beq	.L974
	.loc 1 6316 0
	ldr	x2, [x20,32]
	add	x0, x20, x0, uxtw 3
	.loc 1 6314 0 discriminator 1
	cmp	w4, 5
	.loc 1 6316 0
	str	x2, [x0,136]
	add	w0, w7, 5
	.loc 1 6314 0 discriminator 1
	beq	.L974
	.loc 1 6316 0
	ldr	x2, [x20,40]
	add	x0, x20, x0, uxtw 3
	.loc 1 6314 0 discriminator 1
	cmp	w4, 6
	.loc 1 6316 0
	str	x2, [x0,136]
	add	w0, w7, 6
	.loc 1 6314 0 discriminator 1
	beq	.L974
	.loc 1 6316 0
	ldr	x2, [x20,48]
	add	x0, x20, x0, uxtw 3
	.loc 1 6314 0 discriminator 1
	cmp	w4, 7
	.loc 1 6316 0
	str	x2, [x0,136]
	add	w0, w7, 7
	.loc 1 6314 0 discriminator 1
	beq	.L974
	.loc 1 6316 0
	ldr	x2, [x20,56]
	add	x0, x20, x0, uxtw 3
	.loc 1 6314 0 discriminator 1
	cmp	w4, 8
	.loc 1 6316 0
	str	x2, [x0,136]
	add	w0, w7, 8
	.loc 1 6314 0 discriminator 1
	beq	.L974
	.loc 1 6316 0
	ldr	x2, [x20,64]
	add	x0, x20, x0, uxtw 3
	.loc 1 6314 0 discriminator 1
	cmp	w4, 9
	.loc 1 6316 0
	str	x2, [x0,136]
	add	w0, w7, 9
	.loc 1 6314 0 discriminator 1
	beq	.L974
	.loc 1 6316 0
	ldr	x2, [x29,144]
	add	x0, x20, x0, uxtw 3
	.loc 1 6314 0 discriminator 1
	cmp	w4, 10
	.loc 1 6316 0
	str	x2, [x0,136]
	add	w0, w7, 10
	.loc 1 6314 0 discriminator 1
	beq	.L974
	.loc 1 6316 0
	ldr	x2, [x29,152]
	add	x0, x20, x0, uxtw 3
	.loc 1 6314 0 discriminator 1
	cmp	w4, 11
	.loc 1 6316 0
	str	x2, [x0,136]
	add	w0, w7, 11
	.loc 1 6314 0 discriminator 1
	beq	.L974
	.loc 1 6316 0
	ldr	x2, [x20,88]
	add	x0, x20, x0, uxtw 3
	.loc 1 6314 0 discriminator 1
	cmp	w4, 12
	.loc 1 6316 0
	str	x2, [x0,136]
	add	w0, w7, 12
	.loc 1 6314 0 discriminator 1
	beq	.L974
	.loc 1 6316 0
	ldr	x2, [x20,96]
	add	x0, x20, x0, uxtw 3
	.loc 1 6314 0 discriminator 1
	cmp	w4, 13
	.loc 1 6316 0
	str	x2, [x0,136]
	add	w0, w7, 13
	.loc 1 6314 0 discriminator 1
	beq	.L974
	.loc 1 6316 0
	ldr	x2, [x20,104]
	add	x0, x20, x0, uxtw 3
	.loc 1 6314 0 discriminator 1
	cmp	w4, 14
	.loc 1 6316 0
	str	x2, [x0,136]
	add	w0, w7, 14
	.loc 1 6314 0 discriminator 1
	beq	.L974
	.loc 1 6316 0
	ldr	x2, [x20,112]
	add	x0, x20, x0, uxtw 3
	.loc 1 6314 0 discriminator 1
	cmp	w4, 15
	.loc 1 6316 0
	str	x2, [x0,136]
	add	w0, w7, 15
	.loc 1 6314 0 discriminator 1
	beq	.L974
	.loc 1 6316 0
	ldr	x2, [x20,120]
	add	x0, x20, x0, uxtw 3
	.loc 1 6314 0 discriminator 1
	cmp	w4, 16
	.loc 1 6316 0
	str	x2, [x0,136]
	add	w0, w7, 16
	.loc 1 6314 0 discriminator 1
	beq	.L974
	.loc 1 6316 0
	ldr	x2, [x20,128]
	add	x0, x20, x0, uxtw 3
	str	x2, [x0,136]
.L974:
	add	w7, w7, w4
.L973:
	.loc 1 6318 0 discriminator 1
	cbz	w1, .L975
	.loc 1 6320 0
	ldr	x2, [x20,w6,uxtw 3]
	add	x0, x20, x7, uxtw 3
	.loc 1 6318 0 discriminator 1
	cmp	w1, 1
	.loc 1 6320 0
	str	x2, [x0,136]
	add	w2, w7, 1
	.loc 1 6318 0 discriminator 1
	bls	.L975
	.loc 1 6320 0
	add	w3, w6, 1
	add	x2, x20, x2, uxtw 3
	.loc 1 6318 0 discriminator 1
	cmp	w1, 2
	.loc 1 6320 0
	add	w0, w7, 2
	ldr	x3, [x20,w3,uxtw 3]
	str	x3, [x2,136]
	.loc 1 6318 0 discriminator 1
	beq	.L975
	.loc 1 6320 0
	add	w3, w6, 2
	add	x0, x20, x0, uxtw 3
	.loc 1 6318 0 discriminator 1
	cmp	w1, 3
	.loc 1 6320 0
	add	w2, w7, 3
	ldr	x3, [x20,w3,uxtw 3]
	str	x3, [x0,136]
	.loc 1 6318 0 discriminator 1
	beq	.L975
	.loc 1 6320 0
	add	w3, w6, 3
	add	x2, x20, x2, uxtw 3
	.loc 1 6318 0 discriminator 1
	cmp	w1, 4
	.loc 1 6320 0
	add	w0, w7, 4
	ldr	x3, [x20,w3,uxtw 3]
	str	x3, [x2,136]
	.loc 1 6318 0 discriminator 1
	beq	.L975
	.loc 1 6320 0
	add	w3, w6, 4
	add	x0, x20, x0, uxtw 3
	.loc 1 6318 0 discriminator 1
	cmp	w1, 5
	.loc 1 6320 0
	add	w2, w7, 5
	ldr	x3, [x20,w3,uxtw 3]
	str	x3, [x0,136]
	.loc 1 6318 0 discriminator 1
	beq	.L975
	.loc 1 6320 0
	add	w3, w6, 5
	add	x2, x20, x2, uxtw 3
	.loc 1 6318 0 discriminator 1
	cmp	w1, 6
	.loc 1 6320 0
	add	w0, w7, 6
	ldr	x3, [x20,w3,uxtw 3]
	str	x3, [x2,136]
	.loc 1 6318 0 discriminator 1
	beq	.L975
	.loc 1 6320 0
	add	w3, w6, 6
	add	x0, x20, x0, uxtw 3
	.loc 1 6318 0 discriminator 1
	cmp	w1, 7
	.loc 1 6320 0
	add	w2, w7, 7
	ldr	x3, [x20,w3,uxtw 3]
	str	x3, [x0,136]
	.loc 1 6318 0 discriminator 1
	beq	.L975
	.loc 1 6320 0
	add	w3, w6, 7
	add	x2, x20, x2, uxtw 3
	.loc 1 6318 0 discriminator 1
	cmp	w1, 8
	.loc 1 6320 0
	add	w0, w7, 8
	ldr	x3, [x20,w3,uxtw 3]
	str	x3, [x2,136]
	.loc 1 6318 0 discriminator 1
	beq	.L975
	.loc 1 6320 0
	add	w3, w6, 8
	add	x0, x20, x0, uxtw 3
	.loc 1 6318 0 discriminator 1
	cmp	w1, 9
	.loc 1 6320 0
	add	w2, w7, 9
	ldr	x3, [x20,w3,uxtw 3]
	str	x3, [x0,136]
	.loc 1 6318 0 discriminator 1
	beq	.L975
	.loc 1 6320 0
	add	w3, w6, 9
	add	x2, x20, x2, uxtw 3
	.loc 1 6318 0 discriminator 1
	cmp	w1, 10
	.loc 1 6320 0
	add	w0, w7, 10
	ldr	x3, [x20,w3,uxtw 3]
	str	x3, [x2,136]
	.loc 1 6318 0 discriminator 1
	beq	.L975
	.loc 1 6320 0
	add	w3, w6, 10
	add	x0, x20, x0, uxtw 3
	.loc 1 6318 0 discriminator 1
	cmp	w1, 11
	.loc 1 6320 0
	add	w2, w7, 11
	ldr	x3, [x20,w3,uxtw 3]
	str	x3, [x0,136]
	.loc 1 6318 0 discriminator 1
	beq	.L975
	.loc 1 6320 0
	add	w3, w6, 11
	add	x2, x20, x2, uxtw 3
	.loc 1 6318 0 discriminator 1
	cmp	w1, 12
	.loc 1 6320 0
	add	w0, w7, 12
	ldr	x3, [x20,w3,uxtw 3]
	str	x3, [x2,136]
	.loc 1 6318 0 discriminator 1
	beq	.L975
	.loc 1 6320 0
	add	w3, w6, 12
	add	x0, x20, x0, uxtw 3
	.loc 1 6318 0 discriminator 1
	cmp	w1, 13
	.loc 1 6320 0
	add	w2, w7, 13
	ldr	x3, [x20,w3,uxtw 3]
	str	x3, [x0,136]
	.loc 1 6318 0 discriminator 1
	beq	.L975
	.loc 1 6320 0
	add	w3, w6, 13
	add	x2, x20, x2, uxtw 3
	.loc 1 6318 0 discriminator 1
	cmp	w1, 14
	.loc 1 6320 0
	add	w0, w7, 14
	ldr	x3, [x20,w3,uxtw 3]
	str	x3, [x2,136]
	.loc 1 6318 0 discriminator 1
	beq	.L975
	.loc 1 6320 0
	add	w3, w6, 14
	add	x0, x20, x0, uxtw 3
	.loc 1 6318 0 discriminator 1
	cmp	w1, 15
	.loc 1 6320 0
	add	w2, w7, 15
	ldr	x3, [x20,w3,uxtw 3]
	str	x3, [x0,136]
	.loc 1 6318 0 discriminator 1
	beq	.L975
	.loc 1 6320 0
	add	w3, w6, 15
	.loc 1 6318 0 discriminator 1
	cmp	w1, 16
	.loc 1 6320 0
	add	x2, x20, x2, uxtw 3
	add	w0, w7, 16
	ldr	x1, [x20,w3,uxtw 3]
	str	x1, [x2,136]
	.loc 1 6318 0 discriminator 1
	beq	.L975
	.loc 1 6320 0
	add	w2, w6, 16
	add	x3, x20, x0, uxtw 3
	ldr	x0, [x20,w2,uxtw 3]
	str	x0, [x3,136]
.L975:
	.loc 1 6326 0
	ldr	w22, [x23,2872]
	.loc 1 6327 0
	ldr	w1, [x23,2876]
	.loc 1 6326 0
	str	w22, [x23,2864]
	.loc 1 6327 0
	str	w1, [x23,2868]
	.loc 1 6331 0 discriminator 1
	cbnz	w22, .L990
.L981:
	.loc 1 6339 0 discriminator 1
	cbz	w1, .L983
	add	x0, x19, 53248
	add	x2, x0, 2080
	.loc 1 6341 0
	ldrb	w3, [x2,1]
	cbnz	w3, .L984
	.loc 1 6342 0
	ldr	x0, [x29,208]
	.loc 1 6339 0 discriminator 1
	cmp	w1, 1
	.loc 1 6342 0
	str	x0, [x19,2496]
	.loc 1 6339 0 discriminator 1
	bls	.L986
	.loc 1 6341 0 discriminator 2
	mov	w2, 1
	.loc 1 6339 0 discriminator 1
	cmp	w1, 2
	.loc 1 6341 0 discriminator 2
	udiv	w0, w2, w5
	.loc 1 6342 0
	msub	w0, w0, w5, w2
	add	x0, x0, 17
	ldr	x0, [x20,x0,lsl 3]
	str	x0, [x19,2504]
	.loc 1 6339 0 discriminator 1
	beq	.L986
	.loc 1 6341 0 discriminator 2
	mov	w2, 2
	.loc 1 6339 0 discriminator 1
	cmp	w1, 3
	.loc 1 6341 0 discriminator 2
	udiv	w0, w2, w5
	.loc 1 6342 0
	msub	w0, w0, w5, w2
	add	x0, x0, 17
	ldr	x0, [x20,x0,lsl 3]
	str	x0, [x19,2512]
	.loc 1 6339 0 discriminator 1
	beq	.L986
	.loc 1 6341 0 discriminator 2
	mov	w2, 3
	.loc 1 6339 0 discriminator 1
	cmp	w1, 4
	.loc 1 6341 0 discriminator 2
	udiv	w0, w2, w5
	.loc 1 6342 0
	msub	w0, w0, w5, w2
	add	x0, x0, 17
	ldr	x0, [x20,x0,lsl 3]
	str	x0, [x19,2520]
	.loc 1 6339 0 discriminator 1
	beq	.L986
	.loc 1 6341 0 discriminator 2
	mov	w2, 4
	.loc 1 6339 0 discriminator 1
	cmp	w1, 5
	.loc 1 6341 0 discriminator 2
	udiv	w0, w2, w5
	.loc 1 6342 0
	msub	w0, w0, w5, w2
	add	x0, x0, 17
	ldr	x0, [x20,x0,lsl 3]
	str	x0, [x19,2528]
	.loc 1 6339 0 discriminator 1
	beq	.L986
	.loc 1 6341 0 discriminator 2
	mov	w2, 5
	.loc 1 6339 0 discriminator 1
	cmp	w1, 6
	.loc 1 6341 0 discriminator 2
	udiv	w0, w2, w5
	.loc 1 6342 0
	msub	w0, w0, w5, w2
	add	x0, x0, 17
	ldr	x0, [x20,x0,lsl 3]
	str	x0, [x19,2536]
	.loc 1 6339 0 discriminator 1
	beq	.L986
	.loc 1 6341 0 discriminator 2
	mov	w2, 6
	.loc 1 6339 0 discriminator 1
	cmp	w1, 7
	.loc 1 6341 0 discriminator 2
	udiv	w0, w2, w5
	.loc 1 6342 0
	msub	w0, w0, w5, w2
	add	x0, x0, 17
	ldr	x0, [x20,x0,lsl 3]
	str	x0, [x19,2544]
	.loc 1 6339 0 discriminator 1
	beq	.L986
	.loc 1 6341 0 discriminator 2
	mov	w2, 7
	.loc 1 6339 0 discriminator 1
	cmp	w1, 8
	.loc 1 6341 0 discriminator 2
	udiv	w0, w2, w5
	.loc 1 6342 0
	msub	w0, w0, w5, w2
	add	x0, x0, 17
	ldr	x0, [x20,x0,lsl 3]
	str	x0, [x19,2552]
	.loc 1 6339 0 discriminator 1
	beq	.L986
	.loc 1 6341 0 discriminator 2
	mov	w2, 8
	.loc 1 6339 0 discriminator 1
	cmp	w1, 9
	.loc 1 6341 0 discriminator 2
	udiv	w0, w2, w5
	.loc 1 6342 0
	msub	w0, w0, w5, w2
	add	x0, x0, 17
	ldr	x0, [x20,x0,lsl 3]
	str	x0, [x19,2560]
	.loc 1 6339 0 discriminator 1
	beq	.L986
	.loc 1 6341 0 discriminator 2
	mov	w2, 9
	.loc 1 6339 0 discriminator 1
	cmp	w1, 10
	.loc 1 6341 0 discriminator 2
	udiv	w0, w2, w5
	.loc 1 6342 0
	msub	w0, w0, w5, w2
	add	x0, x0, 17
	ldr	x0, [x20,x0,lsl 3]
	str	x0, [x19,2568]
	.loc 1 6339 0 discriminator 1
	beq	.L986
	.loc 1 6341 0 discriminator 2
	mov	w2, 10
	.loc 1 6339 0 discriminator 1
	cmp	w1, 11
	.loc 1 6341 0 discriminator 2
	udiv	w0, w2, w5
	.loc 1 6342 0
	msub	w0, w0, w5, w2
	add	x0, x0, 17
	ldr	x0, [x20,x0,lsl 3]
	str	x0, [x19,2576]
	.loc 1 6339 0 discriminator 1
	beq	.L986
	.loc 1 6341 0 discriminator 2
	mov	w2, 11
	.loc 1 6339 0 discriminator 1
	cmp	w1, 12
	.loc 1 6341 0 discriminator 2
	udiv	w0, w2, w5
	.loc 1 6342 0
	msub	w0, w0, w5, w2
	add	x0, x0, 17
	ldr	x0, [x20,x0,lsl 3]
	str	x0, [x19,2584]
	.loc 1 6339 0 discriminator 1
	beq	.L986
	.loc 1 6341 0 discriminator 2
	mov	w2, 12
	.loc 1 6339 0 discriminator 1
	cmp	w1, 13
	.loc 1 6341 0 discriminator 2
	udiv	w0, w2, w5
	.loc 1 6342 0
	msub	w0, w0, w5, w2
	add	x0, x0, 17
	ldr	x0, [x20,x0,lsl 3]
	str	x0, [x19,2592]
	.loc 1 6339 0 discriminator 1
	beq	.L986
	.loc 1 6341 0 discriminator 2
	mov	w2, 13
	.loc 1 6339 0 discriminator 1
	cmp	w1, 14
	.loc 1 6341 0 discriminator 2
	udiv	w0, w2, w5
	.loc 1 6342 0
	msub	w0, w0, w5, w2
	add	x0, x0, 17
	ldr	x0, [x20,x0,lsl 3]
	str	x0, [x19,2600]
	.loc 1 6339 0 discriminator 1
	beq	.L986
	.loc 1 6341 0 discriminator 2
	mov	w2, 14
	.loc 1 6339 0 discriminator 1
	cmp	w1, 15
	.loc 1 6341 0 discriminator 2
	udiv	w0, w2, w5
	.loc 1 6342 0
	msub	w0, w0, w5, w2
	add	x0, x0, 17
	ldr	x0, [x20,x0,lsl 3]
	str	x0, [x19,2608]
	.loc 1 6339 0 discriminator 1
	beq	.L986
	.loc 1 6341 0 discriminator 2
	mov	w2, 15
	.loc 1 6339 0 discriminator 1
	cmp	w1, 16
	.loc 1 6341 0 discriminator 2
	udiv	w0, w2, w5
	.loc 1 6342 0
	msub	w0, w0, w5, w2
	add	x0, x0, 17
	ldr	x0, [x20,x0,lsl 3]
	str	x0, [x19,2616]
	.loc 1 6339 0 discriminator 1
	beq	.L986
	.loc 1 6341 0 discriminator 2
	mov	w1, 16
	udiv	w0, w1, w5
	msub	w5, w0, w5, w1
.L1043:
	.loc 1 6342 0
	add	x5, x20, x5, uxtw 3
	ldr	x0, [x5,136]
	str	x0, [x19,2624]
.L986:
	ldr	w1, [x23,2868]
.L982:
	.loc 1 6354 0 discriminator 1
	cmp	w22, 16
	bhi	.L988
	.loc 1 6354 0 is_stmt 0 discriminator 3
	add	w20, w22, 1
	.loc 1 6356 0 is_stmt 1
	ldr	x0, [x19,2360]
	add	x22, x19, x22, uxtw 3
	.loc 1 6354 0 discriminator 1
	cmp	w20, 17
	.loc 1 6356 0
	str	x0, [x22,2360]
	.loc 1 6354 0 discriminator 1
	beq	.L988
	.loc 1 6354 0 is_stmt 0 discriminator 3
	add	w0, w20, 1
	.loc 1 6356 0 is_stmt 1
	ldr	x2, [x19,2360]
	add	x20, x19, x20, uxtw 3
	.loc 1 6354 0 discriminator 1
	cmp	w0, 17
	.loc 1 6356 0
	str	x2, [x20,2360]
	.loc 1 6354 0 discriminator 1
	beq	.L988
	ldr	x4, [x19,2360]
.L1044:
	.loc 1 6354 0 is_stmt 0 discriminator 3
	add	w2, w0, 1
	.loc 1 6356 0 is_stmt 1
	add	x3, x19, x0, uxtw 3
	.loc 1 6354 0 discriminator 1
	cmp	w2, 17
	.loc 1 6356 0
	str	x4, [x3,2360]
	.loc 1 6354 0 discriminator 1
	beq	.L988
	.loc 1 6356 0
	ldr	x4, [x19,2360]
	.loc 1 6354 0 discriminator 3
	add	w3, w0, 2
	.loc 1 6356 0
	add	x2, x19, x2, uxtw 3
	.loc 1 6354 0 discriminator 1
	cmp	w3, 17
	.loc 1 6356 0
	str	x4, [x2,2360]
	.loc 1 6354 0 discriminator 1
	beq	.L988
	.loc 1 6356 0
	ldr	x4, [x19,2360]
	.loc 1 6354 0 discriminator 3
	add	w2, w0, 3
	.loc 1 6356 0
	add	x3, x19, x3, uxtw 3
	.loc 1 6354 0 discriminator 1
	cmp	w2, 17
	.loc 1 6356 0
	str	x4, [x3,2360]
	.loc 1 6354 0 discriminator 1
	beq	.L988
	.loc 1 6356 0
	ldr	x4, [x19,2360]
	.loc 1 6354 0 discriminator 3
	add	w3, w0, 4
	.loc 1 6356 0
	add	x2, x19, x2, uxtw 3
	.loc 1 6354 0 discriminator 1
	cmp	w3, 17
	.loc 1 6356 0
	str	x4, [x2,2360]
	.loc 1 6354 0 discriminator 1
	beq	.L988
	.loc 1 6356 0
	ldr	x4, [x19,2360]
	.loc 1 6354 0 discriminator 3
	add	w2, w0, 5
	.loc 1 6356 0
	add	x3, x19, x3, uxtw 3
	.loc 1 6354 0 discriminator 1
	cmp	w2, 17
	.loc 1 6356 0
	str	x4, [x3,2360]
	.loc 1 6354 0 discriminator 1
	beq	.L988
	.loc 1 6356 0
	ldr	x4, [x19,2360]
	.loc 1 6354 0 discriminator 3
	add	w3, w0, 6
	.loc 1 6356 0
	add	x2, x19, x2, uxtw 3
	.loc 1 6354 0 discriminator 1
	cmp	w3, 17
	.loc 1 6356 0
	str	x4, [x2,2360]
	.loc 1 6354 0 discriminator 1
	beq	.L988
	.loc 1 6356 0
	ldr	x4, [x19,2360]
	.loc 1 6354 0 discriminator 3
	add	w2, w0, 7
	.loc 1 6356 0
	add	x3, x19, x3, uxtw 3
	.loc 1 6354 0 discriminator 1
	cmp	w2, 17
	.loc 1 6356 0
	str	x4, [x3,2360]
	.loc 1 6354 0 discriminator 1
	beq	.L988
	.loc 1 6356 0
	ldr	x4, [x19,2360]
	.loc 1 6354 0 discriminator 3
	add	w3, w0, 8
	.loc 1 6356 0
	add	x2, x19, x2, uxtw 3
	.loc 1 6354 0 discriminator 1
	cmp	w3, 17
	.loc 1 6356 0
	str	x4, [x2,2360]
	.loc 1 6354 0 discriminator 1
	beq	.L988
	.loc 1 6356 0
	ldr	x4, [x19,2360]
	.loc 1 6354 0 discriminator 3
	add	w2, w0, 9
	.loc 1 6356 0
	add	x3, x19, x3, uxtw 3
	.loc 1 6354 0 discriminator 1
	cmp	w2, 17
	.loc 1 6356 0
	str	x4, [x3,2360]
	.loc 1 6354 0 discriminator 1
	beq	.L988
	.loc 1 6356 0
	ldr	x4, [x19,2360]
	.loc 1 6354 0 discriminator 3
	add	w3, w0, 10
	.loc 1 6356 0
	add	x2, x19, x2, uxtw 3
	.loc 1 6354 0 discriminator 1
	cmp	w3, 17
	.loc 1 6356 0
	str	x4, [x2,2360]
	.loc 1 6354 0 discriminator 1
	beq	.L988
	.loc 1 6356 0
	ldr	x4, [x19,2360]
	.loc 1 6354 0 discriminator 3
	add	w2, w0, 11
	.loc 1 6356 0
	add	x3, x19, x3, uxtw 3
	.loc 1 6354 0 discriminator 1
	cmp	w2, 17
	.loc 1 6356 0
	str	x4, [x3,2360]
	.loc 1 6354 0 discriminator 1
	beq	.L988
	.loc 1 6356 0
	ldr	x4, [x19,2360]
	.loc 1 6354 0 discriminator 3
	add	w3, w0, 12
	.loc 1 6356 0
	add	x2, x19, x2, uxtw 3
	.loc 1 6354 0 discriminator 1
	cmp	w3, 17
	.loc 1 6356 0
	str	x4, [x2,2360]
	.loc 1 6354 0 discriminator 1
	beq	.L988
	.loc 1 6356 0
	ldr	x4, [x19,2360]
	.loc 1 6354 0 discriminator 3
	add	w2, w0, 13
	.loc 1 6356 0
	add	x3, x19, x3, uxtw 3
	.loc 1 6354 0 discriminator 1
	cmp	w2, 17
	.loc 1 6356 0
	str	x4, [x3,2360]
	.loc 1 6354 0 discriminator 1
	beq	.L988
	.loc 1 6356 0
	ldr	x3, [x19,2360]
	add	x2, x19, x2, uxtw 3
	.loc 1 6354 0 discriminator 1
	cmp	w0, 2
	.loc 1 6356 0
	str	x3, [x2,2360]
	.loc 1 6354 0 discriminator 1
	bne	.L988
	.loc 1 6356 0
	ldr	x0, [x19,2360]
	str	x0, [x19,2488]
.L988:
	.loc 1 6358 0 discriminator 1
	cmp	w1, 16
	bhi	.L989
	.loc 1 6360 0
	ldr	x3, [x19,2496]
	.loc 1 6358 0 discriminator 3
	add	w0, w1, 1
	.loc 1 6360 0
	add	x2, x19, x1, uxtw 3
	.loc 1 6358 0 discriminator 1
	cmp	w0, 17
	.loc 1 6360 0
	str	x3, [x2,2496]
	.loc 1 6358 0 discriminator 1
	beq	.L989
	.loc 1 6360 0
	ldr	x3, [x19,2496]
	.loc 1 6358 0 discriminator 3
	add	w2, w1, 2
	.loc 1 6360 0
	add	x0, x19, x0, uxtw 3
	.loc 1 6358 0 discriminator 1
	cmp	w2, 17
	.loc 1 6360 0
	str	x3, [x0,2496]
	.loc 1 6358 0 discriminator 1
	beq	.L989
	.loc 1 6360 0
	ldr	x3, [x19,2496]
	.loc 1 6358 0 discriminator 3
	add	w0, w1, 3
	.loc 1 6360 0
	add	x2, x19, x2, uxtw 3
	.loc 1 6358 0 discriminator 1
	cmp	w0, 17
	.loc 1 6360 0
	str	x3, [x2,2496]
	.loc 1 6358 0 discriminator 1
	beq	.L989
	.loc 1 6360 0
	ldr	x3, [x19,2496]
	.loc 1 6358 0 discriminator 3
	add	w2, w1, 4
	.loc 1 6360 0
	add	x0, x19, x0, uxtw 3
	.loc 1 6358 0 discriminator 1
	cmp	w2, 17
	.loc 1 6360 0
	str	x3, [x0,2496]
	.loc 1 6358 0 discriminator 1
	beq	.L989
	.loc 1 6360 0
	ldr	x3, [x19,2496]
	.loc 1 6358 0 discriminator 3
	add	w0, w1, 5
	.loc 1 6360 0
	add	x2, x19, x2, uxtw 3
	.loc 1 6358 0 discriminator 1
	cmp	w0, 17
	.loc 1 6360 0
	str	x3, [x2,2496]
	.loc 1 6358 0 discriminator 1
	beq	.L989
	.loc 1 6360 0
	ldr	x3, [x19,2496]
	.loc 1 6358 0 discriminator 3
	add	w2, w1, 6
	.loc 1 6360 0
	add	x0, x19, x0, uxtw 3
	.loc 1 6358 0 discriminator 1
	cmp	w2, 17
	.loc 1 6360 0
	str	x3, [x0,2496]
	.loc 1 6358 0 discriminator 1
	beq	.L989
	.loc 1 6360 0
	ldr	x3, [x19,2496]
	.loc 1 6358 0 discriminator 3
	add	w0, w1, 7
	.loc 1 6360 0
	add	x2, x19, x2, uxtw 3
	.loc 1 6358 0 discriminator 1
	cmp	w0, 17
	.loc 1 6360 0
	str	x3, [x2,2496]
	.loc 1 6358 0 discriminator 1
	beq	.L989
	.loc 1 6360 0
	ldr	x3, [x19,2496]
	.loc 1 6358 0 discriminator 3
	add	w2, w1, 8
	.loc 1 6360 0
	add	x0, x19, x0, uxtw 3
	.loc 1 6358 0 discriminator 1
	cmp	w2, 17
	.loc 1 6360 0
	str	x3, [x0,2496]
	.loc 1 6358 0 discriminator 1
	beq	.L989
	.loc 1 6360 0
	ldr	x3, [x19,2496]
	.loc 1 6358 0 discriminator 3
	add	w0, w1, 9
	.loc 1 6360 0
	add	x2, x19, x2, uxtw 3
	.loc 1 6358 0 discriminator 1
	cmp	w0, 17
	.loc 1 6360 0
	str	x3, [x2,2496]
	.loc 1 6358 0 discriminator 1
	beq	.L989
	.loc 1 6360 0
	ldr	x3, [x19,2496]
	.loc 1 6358 0 discriminator 3
	add	w2, w1, 10
	.loc 1 6360 0
	add	x0, x19, x0, uxtw 3
	.loc 1 6358 0 discriminator 1
	cmp	w2, 17
	.loc 1 6360 0
	str	x3, [x0,2496]
	.loc 1 6358 0 discriminator 1
	beq	.L989
	.loc 1 6360 0
	ldr	x3, [x19,2496]
	.loc 1 6358 0 discriminator 3
	add	w0, w1, 11
	.loc 1 6360 0
	add	x2, x19, x2, uxtw 3
	.loc 1 6358 0 discriminator 1
	cmp	w0, 17
	.loc 1 6360 0
	str	x3, [x2,2496]
	.loc 1 6358 0 discriminator 1
	beq	.L989
	.loc 1 6360 0
	ldr	x3, [x19,2496]
	.loc 1 6358 0 discriminator 3
	add	w2, w1, 12
	.loc 1 6360 0
	add	x0, x19, x0, uxtw 3
	.loc 1 6358 0 discriminator 1
	cmp	w2, 17
	.loc 1 6360 0
	str	x3, [x0,2496]
	.loc 1 6358 0 discriminator 1
	beq	.L989
	.loc 1 6360 0
	ldr	x3, [x19,2496]
	.loc 1 6358 0 discriminator 3
	add	w0, w1, 13
	.loc 1 6360 0
	add	x2, x19, x2, uxtw 3
	.loc 1 6358 0 discriminator 1
	cmp	w0, 17
	.loc 1 6360 0
	str	x3, [x2,2496]
	.loc 1 6358 0 discriminator 1
	beq	.L989
	.loc 1 6360 0
	ldr	x3, [x19,2496]
	.loc 1 6358 0 discriminator 3
	add	w2, w1, 14
	.loc 1 6360 0
	add	x0, x19, x0, uxtw 3
	.loc 1 6358 0 discriminator 1
	cmp	w2, 17
	.loc 1 6360 0
	str	x3, [x0,2496]
	.loc 1 6358 0 discriminator 1
	beq	.L989
	.loc 1 6360 0
	ldr	x3, [x19,2496]
	.loc 1 6358 0 discriminator 3
	add	w0, w1, 15
	.loc 1 6360 0
	add	x2, x19, x2, uxtw 3
	.loc 1 6358 0 discriminator 1
	cmp	w0, 17
	.loc 1 6360 0
	str	x3, [x2,2496]
	.loc 1 6358 0 discriminator 1
	beq	.L989
	.loc 1 6360 0
	ldr	x2, [x19,2496]
	add	x0, x19, x0, uxtw 3
	str	x2, [x0,2496]
	.loc 1 6358 0 discriminator 1
	cbnz	w1, .L989
	.loc 1 6360 0
	ldr	x0, [x19,2496]
	str	x0, [x19,2624]
.L989:
	.loc 1 6304 0
	mov	w0, 0
.L959:
	.loc 1 6365 0
	ldr	x2, [x29,344]
	ldr	x1, [x21,#:lo12:__stack_chk_guard]
	cmp	x2, x1
	bne	.L1323
	ldp	x19, x20, [sp,16]
	.cfi_remember_state
	.cfi_restore 20
	.cfi_restore 19
.LVL635:
	ldp	x21, x22, [sp,32]
	.cfi_restore 22
	.cfi_restore 21
	ldr	x23, [sp,48]
	.cfi_restore 23
	ldp	x29, x30, [sp], 352
	.cfi_restore 30
	.cfi_restore 29
	.cfi_def_cfa 31, 0
	ret
.LVL636:
.L971:
	.cfi_restore_state
	.loc 1 6326 0
	ldr	w22, [x23,2872]
	.loc 1 6327 0
	ldr	w1, [x23,2876]
	.loc 1 6326 0
	str	w22, [x23,2864]
	.loc 1 6327 0
	str	w1, [x23,2868]
	.loc 1 6331 0 discriminator 1
	cbz	w22, .L976
.L990:
	add	x0, x19, 53248
	add	x2, x0, 2080
	.loc 1 6333 0
	ldrb	w3, [x0,2080]
	cbnz	w3, .L977
	.loc 1 6334 0
	ldr	x0, [x20]
	.loc 1 6331 0 discriminator 1
	cmp	w22, 1
	.loc 1 6334 0
	str	x0, [x19,2360]
	.loc 1 6331 0 discriminator 1
	bls	.L979
	.loc 1 6333 0 discriminator 2
	mov	w2, 1
	.loc 1 6331 0 discriminator 1
	cmp	w22, 2
	.loc 1 6333 0 discriminator 2
	udiv	w0, w2, w5
	msub	w0, w0, w5, w2
	.loc 1 6334 0
	ldr	x0, [x20,w0,uxtw 3]
	str	x0, [x19,2368]
	.loc 1 6331 0 discriminator 1
	beq	.L979
	.loc 1 6333 0 discriminator 2
	mov	w2, 2
	.loc 1 6331 0 discriminator 1
	cmp	w22, 3
	.loc 1 6333 0 discriminator 2
	udiv	w0, w2, w5
	msub	w0, w0, w5, w2
	.loc 1 6334 0
	ldr	x0, [x20,w0,uxtw 3]
	str	x0, [x19,2376]
	.loc 1 6331 0 discriminator 1
	beq	.L979
	.loc 1 6333 0 discriminator 2
	mov	w2, 3
	.loc 1 6331 0 discriminator 1
	cmp	w22, 4
	.loc 1 6333 0 discriminator 2
	udiv	w0, w2, w5
	msub	w0, w0, w5, w2
	.loc 1 6334 0
	ldr	x0, [x20,w0,uxtw 3]
	str	x0, [x19,2384]
	.loc 1 6331 0 discriminator 1
	beq	.L979
	.loc 1 6333 0 discriminator 2
	mov	w2, 4
	.loc 1 6331 0 discriminator 1
	cmp	w22, 5
	.loc 1 6333 0 discriminator 2
	udiv	w0, w2, w5
	msub	w0, w0, w5, w2
	.loc 1 6334 0
	ldr	x0, [x20,w0,uxtw 3]
	str	x0, [x19,2392]
	.loc 1 6331 0 discriminator 1
	beq	.L979
	.loc 1 6333 0 discriminator 2
	mov	w2, 5
	.loc 1 6331 0 discriminator 1
	cmp	w22, 6
	.loc 1 6333 0 discriminator 2
	udiv	w0, w2, w5
	msub	w0, w0, w5, w2
	.loc 1 6334 0
	ldr	x0, [x20,w0,uxtw 3]
	str	x0, [x19,2400]
	.loc 1 6331 0 discriminator 1
	beq	.L979
	.loc 1 6333 0 discriminator 2
	mov	w2, 6
	.loc 1 6331 0 discriminator 1
	cmp	w22, 7
	.loc 1 6333 0 discriminator 2
	udiv	w0, w2, w5
	msub	w0, w0, w5, w2
	.loc 1 6334 0
	ldr	x0, [x20,w0,uxtw 3]
	str	x0, [x19,2408]
	.loc 1 6331 0 discriminator 1
	beq	.L979
	.loc 1 6333 0 discriminator 2
	mov	w2, 7
	.loc 1 6331 0 discriminator 1
	cmp	w22, 8
	.loc 1 6333 0 discriminator 2
	udiv	w0, w2, w5
	msub	w0, w0, w5, w2
	.loc 1 6334 0
	ldr	x0, [x20,w0,uxtw 3]
	str	x0, [x19,2416]
	.loc 1 6331 0 discriminator 1
	beq	.L979
	.loc 1 6333 0 discriminator 2
	mov	w2, 8
	.loc 1 6331 0 discriminator 1
	cmp	w22, 9
	.loc 1 6333 0 discriminator 2
	udiv	w0, w2, w5
	msub	w0, w0, w5, w2
	.loc 1 6334 0
	ldr	x0, [x20,w0,uxtw 3]
	str	x0, [x19,2424]
	.loc 1 6331 0 discriminator 1
	beq	.L979
	.loc 1 6333 0 discriminator 2
	mov	w2, 9
	.loc 1 6331 0 discriminator 1
	cmp	w22, 10
	.loc 1 6333 0 discriminator 2
	udiv	w0, w2, w5
	msub	w0, w0, w5, w2
	.loc 1 6334 0
	ldr	x0, [x20,w0,uxtw 3]
	str	x0, [x19,2432]
	.loc 1 6331 0 discriminator 1
	beq	.L979
	.loc 1 6333 0 discriminator 2
	mov	w2, 10
	.loc 1 6331 0 discriminator 1
	cmp	w22, 11
	.loc 1 6333 0 discriminator 2
	udiv	w0, w2, w5
	msub	w0, w0, w5, w2
	.loc 1 6334 0
	ldr	x0, [x20,w0,uxtw 3]
	str	x0, [x19,2440]
	.loc 1 6331 0 discriminator 1
	beq	.L979
	.loc 1 6333 0 discriminator 2
	mov	w2, 11
	.loc 1 6331 0 discriminator 1
	cmp	w22, 12
	.loc 1 6333 0 discriminator 2
	udiv	w0, w2, w5
	msub	w0, w0, w5, w2
	.loc 1 6334 0
	ldr	x0, [x20,w0,uxtw 3]
	str	x0, [x19,2448]
	.loc 1 6331 0 discriminator 1
	beq	.L979
	.loc 1 6333 0 discriminator 2
	mov	w2, 12
	.loc 1 6331 0 discriminator 1
	cmp	w22, 13
	.loc 1 6333 0 discriminator 2
	udiv	w0, w2, w5
	msub	w0, w0, w5, w2
	.loc 1 6334 0
	ldr	x0, [x20,w0,uxtw 3]
	str	x0, [x19,2456]
	.loc 1 6331 0 discriminator 1
	beq	.L979
	.loc 1 6333 0 discriminator 2
	mov	w2, 13
	.loc 1 6331 0 discriminator 1
	cmp	w22, 14
	.loc 1 6333 0 discriminator 2
	udiv	w0, w2, w5
	msub	w0, w0, w5, w2
	.loc 1 6334 0
	ldr	x0, [x20,w0,uxtw 3]
	str	x0, [x19,2464]
	.loc 1 6331 0 discriminator 1
	beq	.L979
	.loc 1 6333 0 discriminator 2
	mov	w2, 14
	.loc 1 6331 0 discriminator 1
	cmp	w22, 15
	.loc 1 6333 0 discriminator 2
	udiv	w0, w2, w5
	msub	w0, w0, w5, w2
	.loc 1 6334 0
	ldr	x0, [x20,w0,uxtw 3]
	str	x0, [x19,2472]
	.loc 1 6331 0 discriminator 1
	beq	.L979
	.loc 1 6333 0 discriminator 2
	mov	w2, 15
	.loc 1 6331 0 discriminator 1
	cmp	w22, 16
	.loc 1 6333 0 discriminator 2
	udiv	w0, w2, w5
	msub	w0, w0, w5, w2
	.loc 1 6334 0
	ldr	x0, [x20,w0,uxtw 3]
	str	x0, [x19,2480]
	.loc 1 6331 0 discriminator 1
	beq	.L979
	.loc 1 6333 0 discriminator 2
	mov	w2, 16
	udiv	w0, w2, w5
	msub	w0, w0, w5, w2
.L1017:
	.loc 1 6334 0
	ldr	x0, [x20,w0,uxtw 3]
	str	x0, [x19,2488]
.L979:
	.loc 1 6337 0
	cbnz	w8, .L986
	b	.L981
.L977:
	.loc 1 6334 0
	ldr	w3, [x2,4]
	.loc 1 6331 0 discriminator 1
	cmp	w22, 1
	.loc 1 6334 0
	ldr	x3, [x20,x3,lsl 3]
	str	x3, [x19,2360]
	.loc 1 6331 0 discriminator 1
	bls	.L979
	.loc 1 6334 0
	ldr	w3, [x2,8]
	.loc 1 6331 0 discriminator 1
	cmp	w22, 2
	.loc 1 6334 0
	ldr	x3, [x20,x3,lsl 3]
	str	x3, [x19,2368]
	.loc 1 6331 0 discriminator 1
	beq	.L979
	.loc 1 6334 0
	ldr	w3, [x2,12]
	.loc 1 6331 0 discriminator 1
	cmp	w22, 3
	.loc 1 6334 0
	ldr	x3, [x20,x3,lsl 3]
	str	x3, [x19,2376]
	.loc 1 6331 0 discriminator 1
	beq	.L979
	.loc 1 6334 0
	ldr	w3, [x2,16]
	.loc 1 6331 0 discriminator 1
	cmp	w22, 4
	.loc 1 6334 0
	ldr	x3, [x20,x3,lsl 3]
	str	x3, [x19,2384]
	.loc 1 6331 0 discriminator 1
	beq	.L979
	.loc 1 6334 0
	ldr	w3, [x2,20]
	.loc 1 6331 0 discriminator 1
	cmp	w22, 5
	.loc 1 6334 0
	ldr	x3, [x20,x3,lsl 3]
	str	x3, [x19,2392]
	.loc 1 6331 0 discriminator 1
	beq	.L979
	.loc 1 6334 0
	ldr	w3, [x2,24]
	.loc 1 6331 0 discriminator 1
	cmp	w22, 6
	.loc 1 6334 0
	ldr	x3, [x20,x3,lsl 3]
	str	x3, [x19,2400]
	.loc 1 6331 0 discriminator 1
	beq	.L979
	.loc 1 6334 0
	ldr	w3, [x2,28]
	.loc 1 6331 0 discriminator 1
	cmp	w22, 7
	.loc 1 6334 0
	ldr	x3, [x20,x3,lsl 3]
	str	x3, [x19,2408]
	.loc 1 6331 0 discriminator 1
	beq	.L979
	.loc 1 6334 0
	ldr	w3, [x2,32]
	.loc 1 6331 0 discriminator 1
	cmp	w22, 8
	.loc 1 6334 0
	ldr	x3, [x20,x3,lsl 3]
	str	x3, [x19,2416]
	.loc 1 6331 0 discriminator 1
	beq	.L979
	.loc 1 6334 0
	ldr	w2, [x2,36]
	.loc 1 6331 0 discriminator 1
	cmp	w22, 9
	.loc 1 6334 0
	ldr	x2, [x20,x2,lsl 3]
	str	x2, [x19,2424]
	.loc 1 6331 0 discriminator 1
	beq	.L979
	.loc 1 6333 0 discriminator 1
	add	x0, x0, 2080
	.loc 1 6334 0
	ldr	w2, [x0,40]
	.loc 1 6331 0 discriminator 1
	cmp	w22, 10
	.loc 1 6334 0
	ldr	x2, [x20,x2,lsl 3]
	str	x2, [x19,2432]
	.loc 1 6331 0 discriminator 1
	beq	.L979
	.loc 1 6334 0
	ldr	w2, [x0,44]
	.loc 1 6331 0 discriminator 1
	cmp	w22, 11
	.loc 1 6334 0
	ldr	x2, [x20,x2,lsl 3]
	str	x2, [x19,2440]
	.loc 1 6331 0 discriminator 1
	beq	.L979
	.loc 1 6334 0
	ldr	w2, [x0,48]
	.loc 1 6331 0 discriminator 1
	cmp	w22, 12
	.loc 1 6334 0
	ldr	x2, [x20,x2,lsl 3]
	str	x2, [x19,2448]
	.loc 1 6331 0 discriminator 1
	beq	.L979
	.loc 1 6334 0
	ldr	w2, [x0,52]
	.loc 1 6331 0 discriminator 1
	cmp	w22, 13
	.loc 1 6334 0
	ldr	x2, [x20,x2,lsl 3]
	str	x2, [x19,2456]
	.loc 1 6331 0 discriminator 1
	beq	.L979
	.loc 1 6334 0
	ldr	w2, [x0,56]
	.loc 1 6331 0 discriminator 1
	cmp	w22, 14
	.loc 1 6334 0
	ldr	x2, [x20,x2,lsl 3]
	str	x2, [x19,2464]
	.loc 1 6331 0 discriminator 1
	beq	.L979
	.loc 1 6334 0
	ldr	w2, [x0,60]
	.loc 1 6331 0 discriminator 1
	cmp	w22, 15
	.loc 1 6334 0
	ldr	x2, [x20,x2,lsl 3]
	str	x2, [x19,2472]
	.loc 1 6331 0 discriminator 1
	beq	.L979
	.loc 1 6334 0
	ldr	w2, [x0,64]
	.loc 1 6331 0 discriminator 1
	cmp	w22, 16
	.loc 1 6334 0
	ldr	x2, [x20,x2,lsl 3]
	str	x2, [x19,2480]
	.loc 1 6331 0 discriminator 1
	beq	.L979
	.loc 1 6333 0 discriminator 1
	ldr	w0, [x0,68]
	b	.L1017
.L1322:
	.loc 1 6294 0
	add	x20, x19, 49152
	.loc 1 6296 0
	add	x0, x19, 2360
	mov	w1, 0
	mov	x2, 272
	.loc 1 6294 0
	str	wzr, [x20,2864]
	.loc 1 6295 0
	str	wzr, [x20,2868]
	.loc 1 6296 0
	bl	memset
.LVL637:
	.loc 1 6299 0
	ldr	x0, [x19,2336]
	ldr	w0, [x0,16]
	cmp	w0, 2
	bne	.L989
	.loc 1 6302 0
	ldr	x1, [x20,2416]
	.loc 1 6301 0
	mov	w0, 1
	str	w0, [x20,2864]
	.loc 1 6304 0
	mov	w0, 0
	.loc 1 6302 0
	add	x1, x1, 40
	str	x1, [x19,2360]
	b	.L959
.L984:
	.loc 1 6342 0
	ldr	w3, [x2,132]
	.loc 1 6339 0 discriminator 1
	cmp	w1, 1
	.loc 1 6342 0
	add	x3, x3, 17
	ldr	x3, [x20,x3,lsl 3]
	str	x3, [x19,2496]
	.loc 1 6339 0 discriminator 1
	bls	.L986
	.loc 1 6342 0
	ldr	w3, [x2,136]
	.loc 1 6339 0 discriminator 1
	cmp	w1, 2
	.loc 1 6342 0
	add	x3, x3, 17
	ldr	x3, [x20,x3,lsl 3]
	str	x3, [x19,2504]
	.loc 1 6339 0 discriminator 1
	beq	.L986
	.loc 1 6342 0
	ldr	w3, [x2,140]
	.loc 1 6339 0 discriminator 1
	cmp	w1, 3
	.loc 1 6342 0
	add	x3, x3, 17
	ldr	x3, [x20,x3,lsl 3]
	str	x3, [x19,2512]
	.loc 1 6339 0 discriminator 1
	beq	.L986
	.loc 1 6342 0
	ldr	w3, [x2,144]
	.loc 1 6339 0 discriminator 1
	cmp	w1, 4
	.loc 1 6342 0
	add	x3, x3, 17
	ldr	x3, [x20,x3,lsl 3]
	str	x3, [x19,2520]
	.loc 1 6339 0 discriminator 1
	beq	.L986
	.loc 1 6342 0
	ldr	w3, [x2,148]
	.loc 1 6339 0 discriminator 1
	cmp	w1, 5
	.loc 1 6342 0
	add	x3, x3, 17
	ldr	x3, [x20,x3,lsl 3]
	str	x3, [x19,2528]
	.loc 1 6339 0 discriminator 1
	beq	.L986
	.loc 1 6342 0
	ldr	w3, [x2,152]
	.loc 1 6339 0 discriminator 1
	cmp	w1, 6
	.loc 1 6342 0
	add	x3, x3, 17
	ldr	x3, [x20,x3,lsl 3]
	str	x3, [x19,2536]
	.loc 1 6339 0 discriminator 1
	beq	.L986
	.loc 1 6342 0
	ldr	w3, [x2,156]
	.loc 1 6339 0 discriminator 1
	cmp	w1, 7
	.loc 1 6342 0
	add	x3, x3, 17
	ldr	x3, [x20,x3,lsl 3]
	str	x3, [x19,2544]
	.loc 1 6339 0 discriminator 1
	beq	.L986
	.loc 1 6342 0
	ldr	w2, [x2,160]
	.loc 1 6339 0 discriminator 1
	cmp	w1, 8
	.loc 1 6342 0
	add	x2, x2, 17
	ldr	x2, [x20,x2,lsl 3]
	str	x2, [x19,2552]
	.loc 1 6339 0 discriminator 1
	beq	.L986
	.loc 1 6341 0 discriminator 1
	add	x0, x0, 2080
	.loc 1 6342 0
	ldr	w2, [x0,164]
	.loc 1 6339 0 discriminator 1
	cmp	w1, 9
	.loc 1 6342 0
	add	x2, x2, 17
	ldr	x2, [x20,x2,lsl 3]
	str	x2, [x19,2560]
	.loc 1 6339 0 discriminator 1
	beq	.L986
	.loc 1 6342 0
	ldr	w2, [x0,168]
	.loc 1 6339 0 discriminator 1
	cmp	w1, 10
	.loc 1 6342 0
	add	x2, x2, 17
	ldr	x2, [x20,x2,lsl 3]
	str	x2, [x19,2568]
	.loc 1 6339 0 discriminator 1
	beq	.L986
	.loc 1 6342 0
	ldr	w2, [x0,172]
	.loc 1 6339 0 discriminator 1
	cmp	w1, 11
	.loc 1 6342 0
	add	x2, x2, 17
	ldr	x2, [x20,x2,lsl 3]
	str	x2, [x19,2576]
	.loc 1 6339 0 discriminator 1
	beq	.L986
	.loc 1 6342 0
	ldr	w2, [x0,176]
	.loc 1 6339 0 discriminator 1
	cmp	w1, 12
	.loc 1 6342 0
	add	x2, x2, 17
	ldr	x2, [x20,x2,lsl 3]
	str	x2, [x19,2584]
	.loc 1 6339 0 discriminator 1
	beq	.L986
	.loc 1 6342 0
	ldr	w2, [x0,180]
	.loc 1 6339 0 discriminator 1
	cmp	w1, 13
	.loc 1 6342 0
	add	x2, x2, 17
	ldr	x2, [x20,x2,lsl 3]
	str	x2, [x19,2592]
	.loc 1 6339 0 discriminator 1
	beq	.L986
	.loc 1 6342 0
	ldr	w2, [x0,184]
	.loc 1 6339 0 discriminator 1
	cmp	w1, 14
	.loc 1 6342 0
	add	x2, x2, 17
	ldr	x2, [x20,x2,lsl 3]
	str	x2, [x19,2600]
	.loc 1 6339 0 discriminator 1
	beq	.L986
	.loc 1 6342 0
	ldr	w2, [x0,188]
	.loc 1 6339 0 discriminator 1
	cmp	w1, 15
	.loc 1 6342 0
	add	x2, x2, 17
	ldr	x2, [x20,x2,lsl 3]
	str	x2, [x19,2608]
	.loc 1 6339 0 discriminator 1
	beq	.L986
	.loc 1 6342 0
	ldr	w2, [x0,192]
	.loc 1 6339 0 discriminator 1
	cmp	w1, 16
	.loc 1 6342 0
	add	x2, x2, 17
	ldr	x1, [x20,x2,lsl 3]
	str	x1, [x19,2616]
	.loc 1 6339 0 discriminator 1
	beq	.L986
	.loc 1 6341 0 discriminator 1
	ldr	w5, [x0,196]
	b	.L1043
.L983:
	.loc 1 6348 0
	add	x1, x19, 2360
	add	x0, x19, 2496
	mov	x2, 136
	bl	memcpy
.LVL638:
	.loc 1 6349 0
	str	w22, [x23,2868]
	mov	w1, w22
	b	.L982
.L1049:
	.loc 1 6280 0 discriminator 1
	mov	w5, w6
	b	.L966
.L1047:
	.loc 1 6256 0
	mov	w4, 0
	b	.L960
.L1048:
	.loc 1 6268 0 discriminator 1
	mov	w6, w4
	mov	w7, 0
	b	.L963
.L976:
	.loc 1 6356 0
	ldr	x4, [x19,2360]
	.loc 1 6354 0 discriminator 3
	mov	w0, 2
	.loc 1 6356 0
	str	x4, [x19,2368]
	b	.L1044
.L1050:
	.loc 1 6310 0 discriminator 1
	mov	w7, 1
	b	.L972
.L1046:
	.loc 1 6251 0
	mov	w0, -1
	b	.L959
.L1323:
	.loc 1 6365 0
	bl	__stack_chk_fail
.LVL639:
	.cfi_endproc
.LFE2388:
	.size	HEVC_InitListX, .-HEVC_InitListX
	.align	2
	.global	HEVC_DecList
	.type	HEVC_DecList, %function
HEVC_DecList:
.LFB2387:
	.loc 1 6204 0
	.cfi_startproc
.LVL640:
	stp	x29, x30, [sp, -32]!
	.cfi_def_cfa_offset 32
	.cfi_offset 29, -32
	.cfi_offset 30, -24
	.loc 1 6207 0
	add	x2, x0, 49152
	.loc 1 6204 0
	add	x29, sp, 0
	.cfi_def_cfa_register 29
	str	x19, [sp,16]
	.cfi_offset 19, -16
	.loc 1 6207 0
	ldr	w3, [x2,2764]
	cmp	w3, 2
	beq	.L1330
	mov	x19, x0
	.loc 1 6214 0
	bl	HEVC_InitListX
.LVL641:
	.loc 1 6215 0
	cbnz	w0, .L1331
	.loc 1 6221 0
	mov	x0, x19
	bl	HEVC_RepairList
.LVL642:
	.loc 1 6228 0
	mov	w1, 0
	.loc 1 6222 0
	cbnz	w0, .L1332
.L1326:
	.loc 1 6229 0
	mov	w0, w1
	ldr	x19, [sp,16]
	.cfi_remember_state
	.cfi_restore 19
.LVL643:
	ldp	x29, x30, [sp], 32
	.cfi_restore 30
	.cfi_restore 29
	.cfi_def_cfa 31, 0
	ret
.LVL644:
.L1330:
	.cfi_restore_state
	.loc 1 6209 0
	str	wzr, [x2,2864]
	.loc 1 6211 0
	mov	w1, 0
	.loc 1 6210 0
	str	wzr, [x2,2868]
	.loc 1 6229 0
	mov	w0, w1
.LVL645:
	ldr	x19, [sp,16]
	.cfi_remember_state
	.cfi_restore 19
	ldp	x29, x30, [sp], 32
	.cfi_restore 29
	.cfi_restore 30
	.cfi_def_cfa 31, 0
	ret
.LVL646:
.L1331:
	.cfi_restore_state
	.loc 1 6217 0
	adrp	x1, .LC78
	mov	w0, 1
	add	x1, x1, :lo12:.LC78
	bl	dprint_linux_kernel
.LVL647:
	.loc 1 6218 0
	mov	w1, -1
	b	.L1326
.L1332:
.LBB839:
.LBB840:
	.loc 1 6224 0
	adrp	x1, .LC79
	mov	w0, 1
	add	x1, x1, :lo12:.LC79
	bl	dprint_linux_kernel
.LVL648:
	mov	w1, -1
	b	.L1326
.LBE840:
.LBE839:
	.cfi_endproc
.LFE2387:
	.size	HEVC_DecList, .-HEVC_DecList
	.align	2
	.global	HEVC_RemoveApcStore
	.type	HEVC_RemoveApcStore, %function
HEVC_RemoveApcStore:
.LFB2394:
	.loc 1 6653 0
	.cfi_startproc
.LVL649:
	stp	x29, x30, [sp, -32]!
	.cfi_def_cfa_offset 32
	.cfi_offset 29, -32
	.cfi_offset 30, -24
	add	x29, sp, 0
	.cfi_def_cfa_register 29
	stp	x19, x20, [sp,16]
	.cfi_offset 19, -16
	.cfi_offset 20, -8
	add	x20, x0, x1, uxtw 3
	.loc 1 6654 0
	ldr	x3, [x20,2696]
	ldr	w1, [x3,28]
.LVL650:
	cmp	w1, 16
	beq	.L1333
	.loc 1 6657 0
	add	x1, x0, x1, uxtw 2
	str	wzr, [x1,3248]
	mov	x19, x0
	.loc 1 6661 0
	adrp	x1, .LC80
	.loc 1 6658 0
	ldr	w2, [x3,28]
	.loc 1 6661 0
	add	x1, x1, :lo12:.LC80
	mov	w0, 13
.LVL651:
	.loc 1 6658 0
	add	x2, x19, x2, lsl 2
	str	wzr, [x2,3312]
	.loc 1 6659 0
	ldr	w2, [x3,28]
	add	x2, x19, x2, lsl 2
	str	wzr, [x2,3376]
	.loc 1 6660 0
	ldr	w2, [x3,24]
	add	x2, x2, 528
	str	wzr, [x19,x2,lsl 2]
	.loc 1 6661 0
	ldr	w2, [x3,28]
	ldr	w3, [x3,24]
	bl	dprint_linux_kernel
.LVL652:
	.loc 1 6662 0
	ldr	x0, [x20,2696]
	mov	w1, 16
	str	w1, [x0,28]
	.loc 1 6663 0
	ldr	w0, [x19,3244]
	sub	w0, w0, #1
	str	w0, [x19,3244]
.L1333:
	.loc 1 6665 0
	ldp	x19, x20, [sp,16]
	.cfi_restore 20
	.cfi_restore 19
.LVL653:
	ldp	x29, x30, [sp], 32
	.cfi_restore 30
	.cfi_restore 29
	.cfi_def_cfa 31, 0
	ret
	.cfi_endproc
.LFE2394:
	.size	HEVC_RemoveApcStore, .-HEVC_RemoveApcStore
	.align	2
	.global	HEVC_RemoveUnusedApcStore
	.type	HEVC_RemoveUnusedApcStore, %function
HEVC_RemoveUnusedApcStore:
.LFB2395:
	.loc 1 6676 0
	.cfi_startproc
.LVL654:
	stp	x29, x30, [sp, -64]!
	.cfi_def_cfa_offset 64
	.cfi_offset 29, -64
	.cfi_offset 30, -56
	add	x29, sp, 0
	.cfi_def_cfa_register 29
	stp	x19, x20, [sp,16]
	stp	x21, x22, [sp,32]
	str	x23, [sp,48]
	.cfi_offset 19, -48
	.cfi_offset 20, -40
	.cfi_offset 21, -32
	.cfi_offset 22, -24
	.cfi_offset 23, -16
	.loc 1 6680 0 discriminator 1
	mov	w20, 0
.LVL655:
	add	x19, x0, 2696
	ldr	w2, [x0,2676]
	cbz	w2, .L1338
.LBB843:
.LBB844:
	.loc 1 6661 0
	adrp	x22, .LC80
	mov	x21, x0
	.loc 1 6662 0
	mov	w23, 16
	.loc 1 6661 0
	add	x22, x22, :lo12:.LC80
	b	.L1345
.L1340:
.LBE844:
.LBE843:
	.loc 1 6680 0 discriminator 1
	cmp	w20, w2
	add	x19, x19, 8
	bcs	.L1338
.L1345:
	.loc 1 6682 0
	ldr	x3, [x19]
	.loc 1 6680 0 discriminator 2
	add	w20, w20, 1
	.loc 1 6682 0
	ldrb	w1, [x3,1]
	cbnz	w1, .L1340
.LBB846:
.LBB845:
	.loc 1 6654 0
	ldr	w4, [x3,28]
	.loc 1 6661 0
	mov	w0, 13
	mov	x1, x22
	.loc 1 6657 0
	add	x5, x21, x4, uxtw 2
	.loc 1 6654 0
	cmp	w4, 16
	beq	.L1340
	.loc 1 6657 0
	str	wzr, [x5,3248]
	add	x19, x19, 8
	.loc 1 6658 0
	ldr	w2, [x3,28]
	add	x2, x21, x2, lsl 2
	str	wzr, [x2,3312]
	.loc 1 6659 0
	ldr	w2, [x3,28]
	add	x2, x21, x2, lsl 2
	str	wzr, [x2,3376]
	.loc 1 6660 0
	ldr	w2, [x3,24]
	add	x2, x2, 528
	str	wzr, [x21,x2,lsl 2]
	.loc 1 6661 0
	ldr	w2, [x3,28]
	ldr	w3, [x3,24]
	bl	dprint_linux_kernel
.LVL656:
	.loc 1 6662 0
	ldr	x0, [x19,-8]
	str	w23, [x0,28]
	.loc 1 6663 0
	ldr	w0, [x21,3244]
	ldr	w2, [x21,2676]
	sub	w0, w0, #1
	str	w0, [x21,3244]
.LBE845:
.LBE846:
	.loc 1 6680 0 discriminator 1
	cmp	w20, w2
	bcc	.L1345
.LVL657:
.L1338:
	.loc 1 6689 0
	ldp	x19, x20, [sp,16]
	.cfi_restore 20
	.cfi_restore 19
.LVL658:
	ldp	x21, x22, [sp,32]
	.cfi_restore 22
	.cfi_restore 21
.LVL659:
	ldr	x23, [sp,48]
	.cfi_restore 23
	ldp	x29, x30, [sp], 64
	.cfi_restore 30
	.cfi_restore 29
	.cfi_def_cfa 31, 0
	ret
	.cfi_endproc
.LFE2395:
	.size	HEVC_RemoveUnusedApcStore, .-HEVC_RemoveUnusedApcStore
	.align	2
	.global	HEVC_ApplyReferencePictureSet
	.type	HEVC_ApplyReferencePictureSet, %function
HEVC_ApplyReferencePictureSet:
.LFB2397:
	.loc 1 6727 0
	.cfi_startproc
.LVL660:
	stp	x29, x30, [sp, -112]!
	.cfi_def_cfa_offset 112
	.cfi_offset 29, -112
	.cfi_offset 30, -104
	.loc 1 6739 0
	mov	w4, 23556
	.loc 1 6727 0
	add	x29, sp, 0
	.cfi_def_cfa_register 29
	stp	x23, x24, [sp,48]
	.cfi_offset 23, -64
	.cfi_offset 24, -56
	.loc 1 6737 0
	add	x24, x0, 49152
	.loc 1 6727 0
	stp	x19, x20, [sp,16]
	stp	x21, x22, [sp,32]
	stp	x25, x26, [sp,64]
	stp	x27, x28, [sp,80]
	.cfi_offset 19, -96
	.cfi_offset 20, -88
	.cfi_offset 21, -80
	.cfi_offset 22, -72
	.cfi_offset 25, -48
	.cfi_offset 26, -40
	.cfi_offset 27, -32
	.cfi_offset 28, -24
	.loc 1 6738 0
	mov	w19, 2024
	.loc 1 6739 0
	mov	w21, 1
	.loc 1 6738 0
	ldr	x2, [x0,2328]
	.loc 1 6737 0
	ldr	w20, [x24,2780]
	.loc 1 6739 0
	ldr	x1, [x0,2320]
	.loc 1 6742 0 discriminator 1
	ldr	w3, [x0,2676]
	.loc 1 6738 0
	nop // between mem op and mult-accumulate
	smaddl	x19, w20, w19, x2
	ldr	w2, [x19,32]
	.loc 1 6739 0
	smaddl	x1, w2, w4, x1
	ldr	w26, [x1,128]
	lsl	w26, w21, w26
.LVL661:
	.loc 1 6742 0 discriminator 1
	cbz	w3, .L1348
	mov	x28, x0
	add	x0, x0, 53248
.LVL662:
	.loc 1 6747 0
	add	x20, x0, 1876
	add	x25, x28, 2696
	add	x0, x0, 1948
	.loc 1 6742 0 discriminator 1
	mov	w22, 0
.LVL663:
	.loc 1 6783 0
	mov	w23, w21
	str	x0, [x29,104]
.L1366:
	.loc 1 6747 0
	ldr	w1, [x20,20]
	.loc 1 6747 0 is_stmt 0 discriminator 1
	mov	w5, 0
.LVL664:
	.loc 1 6747 0
	ldr	w0, [x20,16]
	.loc 1 6747 0 discriminator 1
	ldr	w3, [x20,24]
	.loc 1 6747 0
	add	w0, w1, w0
	.loc 1 6747 0 discriminator 1
	cmp	w0, w3
	.loc 1 6747 0
	mov	w19, w0
	ldr	x3, [x25]
	.loc 1 6747 0 discriminator 1
	bcs	.L1395
	ldr	w2, [x3,12]
.L1357:
	add	x1, x28, x19, sxtw 2
	.loc 1 6749 0 is_stmt 1
	add	x1, x1, 53248
	.loc 1 6751 0
	ldr	w0, [x3,56]
	.loc 1 6749 0
	ldr	w4, [x1,132]
	cbz	w4, .L1352
	.loc 1 6751 0
	cbz	w0, .L1353
	.loc 1 6751 0 is_stmt 0 discriminator 1
	ldr	w0, [x1,2016]
	cmp	w0, w2
	beq	.L1394
.L1353:
	.loc 1 6769 0 is_stmt 1
	cbnz	w5, .L1393
	.loc 1 6772 0
	ldr	w0, [x1,2016]
	mov	w1, w2
	b	.L1368
.L1352:
	.loc 1 6760 0
	cbz	w0, .L1355
	.loc 1 6761 0
	ldr	w7, [x1,2016]
	sdiv	w4, w2, w26
	sdiv	w0, w7, w26
	msub	w4, w4, w26, w2
	msub	w0, w0, w26, w7
	cmp	w4, w0
	bne	.L1355
.L1394:
	.loc 1 6764 0
	strb	w23, [x3,1]
	.loc 1 6766 0
	mov	w2, 1
	.loc 1 6765 0
	ldr	x0, [x25]
.LVL665:
	str	w21, [x0,4]
	.loc 1 6766 0
	ldr	x1, [x25]
	ldr	w0, [x28,240]
	ldr	w1, [x1,32]
	bl	FSP_SetRef
.LVL666:
	ldr	x3, [x25]
	.loc 1 6772 0
	mov	w5, 1
.LVL667:
	ldr	w4, [x3,12]
.L1356:
	.loc 1 6747 0 discriminator 1
	ldr	w1, [x20,24]
	.loc 1 6747 0 is_stmt 0 discriminator 2
	add	w19, w19, 1
	mov	w2, w4
	.loc 1 6747 0 discriminator 1
	cmp	w19, w1
	bcc	.L1357
	ldr	w1, [x20,20]
	ldr	w0, [x20,16]
	add	w0, w1, w0
.L1351:
	ldr	w2, [x24,2752]
	.loc 1 6792 0 is_stmt 1 discriminator 1
	cbz	w0, .L1359
	ldr	x27, [x29,104]
	mov	w19, 0
.L1361:
	.loc 1 6794 0
	ldr	w0, [x3,56]
	.loc 1 6792 0 discriminator 2
	add	w19, w19, 1
	.loc 1 6794 0
	cbnz	w0, .L1360
	.loc 1 6795 0
	ldr	w0, [x27]
	add	w0, w2, w0
	.loc 1 6794 0 discriminator 1
	cmp	w0, w4
	beq	.L1396
.L1360:
	.loc 1 6792 0 discriminator 1
	ldr	w0, [x20,20]
	add	x27, x27, 4
	ldr	w1, [x20,16]
	add	w1, w0, w1
	cmp	w19, w1
	bcc	.L1361
.L1359:
	.loc 1 6806 0 discriminator 1
	cmp	w4, w2
	beq	.L1364
	cbnz	w5, .L1364
	.loc 1 6808 0
	strb	wzr, [x3,1]
	.loc 1 6809 0
	ldr	x0, [x25]
	str	wzr, [x0,56]
	.loc 1 6812 0
	ldr	x1, [x25]
	ldr	w0, [x1,8]
	cmp	w0, 1
	beq	.L1364
	.loc 1 6814 0
	ldr	w0, [x28,240]
	mov	w2, 0
	ldr	w1, [x1,32]
	bl	FSP_SetRef
.LVL668:
.L1364:
	.loc 1 6742 0 discriminator 1
	ldr	w0, [x28,2676]
	.loc 1 6742 0 is_stmt 0 discriminator 2
	add	w22, w22, 1
	add	x25, x25, 8
	.loc 1 6742 0 discriminator 1
	cmp	w22, w0
	bcc	.L1366
.LVL669:
.L1348:
	.loc 1 6820 0 is_stmt 1
	ldp	x19, x20, [sp,16]
	.cfi_remember_state
	.cfi_restore 20
	.cfi_restore 19
	ldp	x21, x22, [sp,32]
	.cfi_restore 22
	.cfi_restore 21
.LVL670:
	ldp	x23, x24, [sp,48]
	.cfi_restore 24
	.cfi_restore 23
	ldp	x25, x26, [sp,64]
	.cfi_restore 26
	.cfi_restore 25
.LVL671:
	ldp	x27, x28, [sp,80]
	.cfi_restore 28
	.cfi_restore 27
	ldp	x29, x30, [sp], 112
	.cfi_restore 30
	.cfi_restore 29
	.cfi_def_cfa 31, 0
	ret
.LVL672:
.L1355:
	.cfi_restore_state
	.loc 1 6769 0
	cbnz	w5, .L1393
	.loc 1 6772 0
	ldr	w4, [x1,2016]
	.loc 1 6776 0
	sdiv	w1, w2, w26
	.loc 1 6777 0
	sdiv	w0, w4, w26
	.loc 1 6776 0
	msub	w1, w1, w26, w2
	.loc 1 6777 0
	msub	w0, w0, w26, w4
.L1368:
	.loc 1 6780 0 discriminator 1
	cmp	w1, w0
	bne	.L1371
	.loc 1 6780 0 is_stmt 0
	ldrb	w0, [x3,1]
	.loc 1 6780 0 discriminator 1
	cbnz	w0, .L1397
.L1371:
	mov	w4, w2
	mov	w5, 0
	b	.L1356
.L1393:
	.loc 1 6769 0 is_stmt 1
	mov	w4, w2
	mov	w5, 1
	b	.L1356
.L1396:
	.loc 1 6798 0
	strb	w23, [x3,1]
	.loc 1 6800 0
	mov	w2, 1
	.loc 1 6799 0
	ldr	x0, [x25]
	str	w21, [x0,4]
	.loc 1 6800 0
	ldr	x1, [x25]
	ldr	w0, [x28,240]
	ldr	w1, [x1,32]
	bl	FSP_SetRef
.LVL673:
	ldr	x3, [x25]
	.loc 1 6797 0
	mov	w5, 1
.LVL674:
	ldr	w2, [x24,2752]
	ldr	w4, [x3,12]
	b	.L1360
.L1397:
	.loc 1 6783 0
	strb	w23, [x3,1]
	.loc 1 6786 0
	mov	w2, 1
	.loc 1 6784 0
	ldr	x0, [x25]
.LVL675:
	str	w21, [x0,56]
	.loc 1 6785 0
	ldr	x0, [x25]
	str	w21, [x0,4]
	.loc 1 6786 0
	ldr	x1, [x25]
	ldr	w0, [x28,240]
	ldr	w1, [x1,32]
	bl	FSP_SetRef
.LVL676:
	ldr	x3, [x25]
	.loc 1 6782 0
	mov	w5, 1
.LVL677:
	ldr	w4, [x3,12]
	b	.L1356
.L1395:
	ldr	w4, [x3,12]
	b	.L1351
	.cfi_endproc
.LFE2397:
	.size	HEVC_ApplyReferencePictureSet, .-HEVC_ApplyReferencePictureSet
	.align	2
	.global	HEVC_CheckThatAllRefPicsAreAvailable
	.type	HEVC_CheckThatAllRefPicsAreAvailable, %function
HEVC_CheckThatAllRefPicsAreAvailable:
.LFB2398:
	.loc 1 6824 0
	.cfi_startproc
.LVL678:
	sub	sp, sp, #48
	.cfi_def_cfa_offset 48
	.loc 1 6834 0
	add	x9, x0, 49152
	.loc 1 6835 0
	mov	w4, 2024
	.loc 1 6836 0
	mov	w6, 1
	.loc 1 6824 0
	stp	x19, x20, [sp]
	stp	x21, x22, [sp,16]
	str	x23, [sp,32]
	.cfi_offset 19, -48
	.cfi_offset 20, -40
	.cfi_offset 21, -32
	.cfi_offset 22, -24
	.cfi_offset 23, -16
	.loc 1 6842 0
	add	x19, x0, 53248
	add	x22, x19, 1876
	.loc 1 6835 0
	ldr	x3, [x0,2328]
	.loc 1 6834 0
	ldr	w5, [x9,2780]
	.loc 1 6836 0
	ldr	x2, [x0,2320]
	.loc 1 6842 0
	ldr	w11, [x22,20]
	.loc 1 6835 0
	nop // between mem op and mult-accumulate
	smaddl	x3, w5, w4, x3
	.loc 1 6842 0
	ldr	w7, [x22,16]
	.loc 1 6842 0 is_stmt 0 discriminator 1
	ldr	w23, [x22,24]
	.loc 1 6835 0 is_stmt 1
	ldr	w4, [x3,32]
	.loc 1 6836 0
	mov	w3, 23556
	.loc 1 6842 0
	add	w11, w11, w7
	.loc 1 6842 0 is_stmt 0 discriminator 1
	cmp	w11, w23
	.loc 1 6842 0
	mov	w20, w11
	.loc 1 6836 0 is_stmt 1
	smaddl	x2, w4, w3, x2
	ldr	w8, [x2,128]
	lsl	w8, w6, w8
.LVL679:
	.loc 1 6842 0 discriminator 1
	bcs	.L1399
	ldr	w10, [x0,2676]
	mov	w13, 0
	mov	w12, 0
.LVL680:
	sub	w5, w10, #1
	mov	x4, x5
	add	x5, x5, 338
	add	x5, x0, x5, lsl 3
.L1400:
	sxtw	x21, w20
	.loc 1 6846 0 discriminator 1
	cbz	w10, .L1406
	add	x15, x0, x21, lsl 2
	add	x2, x0, 2696
	add	x15, x15, 53248
	mov	w18, 0
	ldr	w7, [x15,132]
.L1403:
	.loc 1 6848 0
	cbz	w7, .L1401
	.loc 1 6850 0
	ldr	x6, [x2]
	ldr	w3, [x6,56]
	cbz	w3, .L1402
	.loc 1 6850 0 is_stmt 0 discriminator 1
	ldr	w14, [x6,12]
	ldr	w3, [x15,2016]
	cmp	w14, w3
	beq	.L1442
.L1402:
	add	x2, x2, 8
	.loc 1 6846 0 is_stmt 1 discriminator 1
	cmp	x2, x5
	bne	.L1403
	.loc 1 6866 0
	cbz	w18, .L1406
.L1404:
	.loc 1 6842 0 discriminator 2
	add	w20, w20, 1
	.loc 1 6842 0 is_stmt 0 discriminator 1
	cmp	w20, w23
	bne	.L1400
	.loc 1 6888 0 is_stmt 1 discriminator 1
	cbz	w11, .L1408
.L1407:
	uxtw	x5, w4
	add	x8, x19, 1948
.LVL681:
	add	x5, x5, 338
	add	x19, x19, 1929
	.loc 1 6826 0
	mov	w16, 0
	add	x5, x0, x5, lsl 3
.L1412:
	.loc 1 6892 0 discriminator 1
	cbz	w10, .L1413
	add	x2, x0, 2696
	mov	w14, 0
	b	.L1410
.L1409:
	cmp	x2, x5
	beq	.L1443
.L1410:
	.loc 1 6894 0
	ldr	x3, [x2]
	add	x2, x2, 8
	ldr	w4, [x3,56]
	cbnz	w4, .L1409
	.loc 1 6894 0 is_stmt 0 discriminator 1
	ldr	w7, [x9,2752]
	ldr	w4, [x8]
	ldr	w6, [x3,12]
	add	w4, w7, w4
	cmp	w6, w4
	bne	.L1409
	.loc 1 6894 0 discriminator 2
	ldrb	w15, [x3,1]
	.loc 1 6896 0 is_stmt 1
	cmp	w15, wzr
	csinc	w14, w14, wzr, eq
	.loc 1 6892 0 discriminator 1
	cmp	x2, x5
	bne	.L1410
.L1443:
	.loc 1 6901 0
	cbz	w14, .L1413
.L1411:
	.loc 1 6888 0 discriminator 2
	add	w16, w16, 1
	add	x8, x8, 4
	.loc 1 6888 0 is_stmt 0 discriminator 1
	cmp	w11, w16
	add	x19, x19, 1
	bhi	.L1412
.LVL682:
.L1408:
	.loc 1 6926 0 is_stmt 1
	mov	w0, 1
.LVL683:
	.loc 1 6920 0
	cbz	w12, .L1433
	.loc 1 6922 0
	str	w13, [x1]
	.loc 1 6923 0
	mov	w0, 0
.L1433:
	.loc 1 6927 0
	ldp	x19, x20, [sp]
	.cfi_remember_state
	.cfi_restore 20
	.cfi_restore 19
	ldp	x21, x22, [sp,16]
	.cfi_restore 22
	.cfi_restore 21
	ldr	x23, [sp,32]
	.cfi_restore 23
	add	sp, sp, 48
	.cfi_def_cfa_offset 0
	ret
.LVL684:
.L1401:
	.cfi_restore_state
	.loc 1 6857 0
	ldr	x3, [x2]
	ldr	w6, [x3,56]
	cbz	w6, .L1402
	.loc 1 6857 0 is_stmt 0 discriminator 1
	ldr	w17, [x3,12]
	ldr	w16, [x15,2016]
	sdiv	w14, w17, w8
	sdiv	w6, w16, w8
	msub	w14, w14, w8, w17
	msub	w6, w6, w8, w16
	cmp	w14, w6
	bne	.L1402
	.loc 1 6857 0 discriminator 2
	ldrb	w3, [x3,1]
	.loc 1 6852 0 is_stmt 1
	cmp	w3, wzr
	csinc	w18, w18, wzr, eq
	b	.L1402
.L1442:
	.loc 1 6850 0 discriminator 2
	ldrb	w3, [x6,1]
	.loc 1 6852 0
	cmp	w3, wzr
	csinc	w18, w18, wzr, eq
	b	.L1402
.LVL685:
.L1413:
	.loc 1 6903 0
	ldr	w4, [x9,2752]
	ldr	w2, [x8]
	ldr	w3, [x0,196]
	add	w2, w4, w2
	cmp	w2, w3
	blt	.L1411
	.loc 1 6905 0
	ldrb	w3, [x19]
	cmp	w3, wzr
	csel	w13, w13, w2, eq
	cmp	w3, wzr
	csinc	w12, w12, wzr, eq
	b	.L1411
.LVL686:
.L1406:
	.loc 1 6868 0
	add	x2, x22, x21, lsl 2
	ldr	w6, [x9,2752]
	ldr	w3, [x0,196]
	ldr	w2, [x2,72]
	add	w6, w6, w2
	cmp	w6, w3
	blt	.L1404
	.loc 1 6870 0
	add	x21, x22, x21
	ldrb	w2, [x21,53]
	cmp	w2, wzr
	csel	w13, w13, w6, eq
	cmp	w2, wzr
	csinc	w12, w12, wzr, eq
	b	.L1404
.LVL687:
.L1399:
	.loc 1 6888 0 discriminator 1
	cbz	w11, .L1418
	ldr	w10, [x0,2676]
	.loc 1 6828 0
	mov	w13, 0
	.loc 1 6826 0
	mov	w12, 0
.LVL688:
	sub	w4, w10, #1
	b	.L1407
.LVL689:
.L1418:
	.loc 1 6926 0
	mov	w0, w6
.LVL690:
	b	.L1433
	.cfi_endproc
.LFE2398:
	.size	HEVC_CheckThatAllRefPicsAreAvailable, .-HEVC_CheckThatAllRefPicsAreAvailable
	.align	2
	.global	HEVC_SetFrmRepeatCount
	.type	HEVC_SetFrmRepeatCount, %function
HEVC_SetFrmRepeatCount:
.LFB2401:
	.loc 1 7086 0
	.cfi_startproc
.LVL691:
	.loc 1 7087 0
	ldr	x2, [x0,2336]
	ldr	w2, [x2,684]
	add	w2, w2, 2047
	cmp	w2, 4095
	bls	.L1445
.LBB849:
.LBB850:
	.loc 1 7089 0
	ldr	w4, [x0,2672]
	ldr	w3, [x0,272]
	ldr	w2, [x0,268]
	add	w3, w4, w3
	add	w4, w3, 1
	cmp	w2, w4
	bcc	.L1445
	sub	w2, w2, #1
	.loc 1 7091 0
	sub	w2, w2, w3
	cmp	w2, 1
	bls	.L1446
	.loc 1 7093 0
	mov	w2, 2
	str	w2, [x1,24]
	.loc 1 7094 0
	ldr	w1, [x0,272]
.LVL692:
	add	w1, w1, w2
	str	w1, [x0,272]
.LBE850:
.LBE849:
	.loc 1 7113 0
	ret
.LVL693:
.L1445:
.LBB853:
.LBB851:
	.loc 1 7104 0
	str	wzr, [x1,24]
.LBE851:
.LBE853:
	.loc 1 7113 0
	ret
.L1446:
.LBB854:
.LBB852:
	.loc 1 7098 0
	mov	w2, 1
	str	w2, [x1,24]
	.loc 1 7099 0
	ldr	w1, [x0,272]
.LVL694:
	add	w1, w1, w2
	str	w1, [x0,272]
.LBE852:
.LBE854:
	.loc 1 7113 0
	ret
	.cfi_endproc
.LFE2401:
	.size	HEVC_SetFrmRepeatCount, .-HEVC_SetFrmRepeatCount
	.align	2
	.global	HEVC_GetFreeFrameStoreNum
	.type	HEVC_GetFreeFrameStoreNum, %function
HEVC_GetFreeFrameStoreNum:
.LFB2407:
	.loc 1 7398 0
	.cfi_startproc
.LVL695:
	add	x1, x0, 65536
	add	x3, x0, 69632
	.loc 1 7400 0
	mov	w5, 0
.LVL696:
	add	x1, x1, 216
	add	x3, x3, 3320
.L1451:
	.loc 1 7404 0
	ldr	w2, [x1,4]
	cbnz	w2, .L1449
.LBB855:
.LBB856:
	.loc 1 10113 0
	cbz	x1, .L1450
	.loc 1 10118 0 discriminator 1
	ldr	w2, [x0,2676]
	cbz	w2, .L1450
	.loc 1 10120 0
	ldr	x4, [x0,2696]
	cmp	x4, x1
	beq	.L1449
	.loc 1 10118 0 discriminator 1
	cmp	w2, 1
	bls	.L1450
	.loc 1 10120 0
	ldr	x4, [x0,2704]
	cmp	x4, x1
	beq	.L1449
	.loc 1 10118 0 discriminator 1
	cmp	w2, 2
	beq	.L1450
	.loc 1 10120 0
	ldr	x4, [x0,2712]
	cmp	x4, x1
	beq	.L1449
	.loc 1 10118 0 discriminator 1
	cmp	w2, 3
	beq	.L1450
	.loc 1 10120 0
	ldr	x4, [x0,2720]
	cmp	x4, x1
	beq	.L1449
	.loc 1 10118 0 discriminator 1
	cmp	w2, 4
	beq	.L1450
	.loc 1 10120 0
	ldr	x4, [x0,2728]
	cmp	x4, x1
	beq	.L1449
	.loc 1 10118 0 discriminator 1
	cmp	w2, 5
	beq	.L1450
	.loc 1 10120 0
	ldr	x4, [x0,2736]
	cmp	x4, x1
	beq	.L1449
	.loc 1 10118 0 discriminator 1
	cmp	w2, 6
	beq	.L1450
	.loc 1 10120 0
	ldr	x4, [x0,2744]
	cmp	x4, x1
	beq	.L1449
	.loc 1 10118 0 discriminator 1
	cmp	w2, 7
	beq	.L1450
	.loc 1 10120 0
	ldr	x4, [x0,2752]
	cmp	x4, x1
	beq	.L1449
	.loc 1 10118 0 discriminator 1
	cmp	w2, 8
	beq	.L1450
	.loc 1 10120 0
	ldr	x4, [x0,2760]
	cmp	x4, x1
	beq	.L1449
	.loc 1 10118 0 discriminator 1
	cmp	w2, 9
	beq	.L1450
	.loc 1 10120 0
	ldr	x4, [x0,2768]
	cmp	x4, x1
	beq	.L1449
	.loc 1 10118 0 discriminator 1
	cmp	w2, 10
	beq	.L1450
	.loc 1 10120 0
	ldr	x4, [x0,2776]
	cmp	x4, x1
	beq	.L1449
	.loc 1 10118 0 discriminator 1
	cmp	w2, 11
	beq	.L1450
	.loc 1 10120 0
	ldr	x4, [x0,2784]
	cmp	x4, x1
	beq	.L1449
	.loc 1 10118 0 discriminator 1
	cmp	w2, 12
	beq	.L1450
	.loc 1 10120 0
	ldr	x4, [x0,2792]
	cmp	x4, x1
	beq	.L1449
	.loc 1 10118 0 discriminator 1
	cmp	w2, 13
	beq	.L1450
	.loc 1 10120 0
	ldr	x4, [x0,2800]
	cmp	x4, x1
	beq	.L1449
	.loc 1 10118 0 discriminator 1
	cmp	w2, 14
	beq	.L1450
	.loc 1 10120 0
	ldr	x4, [x0,2808]
	cmp	x4, x1
	beq	.L1449
	.loc 1 10118 0 discriminator 1
	cmp	w2, 15
	beq	.L1450
	.loc 1 10120 0
	ldr	x4, [x0,2816]
	cmp	x4, x1
	beq	.L1449
	.loc 1 10118 0 discriminator 1
	cmp	w2, 16
	beq	.L1450
	.loc 1 10120 0
	ldr	x2, [x0,2824]
	cmp	x1, x2
	beq	.L1449
.L1450:
.LBE856:
.LBE855:
	.loc 1 7406 0
	add	w5, w5, 1
.L1449:
	add	x1, x1, 360
	.loc 1 7402 0 discriminator 1
	cmp	x1, x3
	bne	.L1451
	.loc 1 7411 0
	mov	w0, w5
.LVL697:
	ret
	.cfi_endproc
.LFE2407:
	.size	HEVC_GetFreeFrameStoreNum, .-HEVC_GetFreeFrameStoreNum
	.align	2
	.global	HEVC_UpdateReflist
	.type	HEVC_UpdateReflist, %function
HEVC_UpdateReflist:
.LFB2409:
	.loc 1 7531 0
	.cfi_startproc
.LVL698:
	stp	x29, x30, [sp, -80]!
	.cfi_def_cfa_offset 80
	.cfi_offset 29, -80
	.cfi_offset 30, -72
	add	x29, sp, 0
	.cfi_def_cfa_register 29
	stp	x25, x26, [sp,64]
	.cfi_offset 25, -16
	.cfi_offset 26, -8
	.loc 1 7538 0 discriminator 1
	add	x25, x0, 53248
	.loc 1 7531 0
	stp	x19, x20, [sp,16]
	stp	x21, x22, [sp,32]
	stp	x23, x24, [sp,48]
	.cfi_offset 19, -64
	.cfi_offset 20, -56
	.cfi_offset 21, -48
	.cfi_offset 22, -40
	.cfi_offset 23, -32
	.cfi_offset 24, -24
	.loc 1 7531 0
	mov	x19, x0
	.loc 1 7538 0 discriminator 1
	ldr	w0, [x25,1892]
.LVL699:
	cbz	w0, .L1526
	add	x21, x25, 1929
	add	x22, x25, 1948
	mov	w24, 0
	mov	w20, 0
.LVL700:
	.loc 1 7542 0
	add	x26, x19, 49152
.L1513:
	.loc 1 7540 0
	ldrb	w0, [x21]
	cbz	w0, .L1508
	.loc 1 7543 0 discriminator 1
	ldr	w2, [x19,2676]
	.loc 1 7542 0
	ldr	w1, [x26,2752]
	ldr	w0, [x22]
	add	w1, w1, w0
	.loc 1 7543 0 discriminator 1
	cbz	w2, .L1508
	.loc 1 7545 0
	ldr	x0, [x19,2696]
	ldr	w3, [x0,12]
	cmp	w3, w1
	beq	.L1676
	.loc 1 7543 0 discriminator 1
	cmp	w2, 1
	bls	.L1508
	.loc 1 7545 0
	ldr	x0, [x19,2704]
	ldr	w3, [x0,12]
	cmp	w3, w1
	beq	.L1528
	.loc 1 7543 0 discriminator 1
	cmp	w2, 2
	beq	.L1508
	.loc 1 7545 0
	ldr	x0, [x19,2712]
	ldr	w3, [x0,12]
	cmp	w3, w1
	beq	.L1529
	.loc 1 7543 0 discriminator 1
	cmp	w2, 3
	beq	.L1508
	.loc 1 7545 0
	ldr	x0, [x19,2720]
	ldr	w3, [x0,12]
	cmp	w3, w1
	beq	.L1530
	.loc 1 7543 0 discriminator 1
	cmp	w2, 4
	beq	.L1508
	.loc 1 7545 0
	ldr	x0, [x19,2728]
	ldr	w3, [x0,12]
	cmp	w3, w1
	beq	.L1531
	.loc 1 7543 0 discriminator 1
	cmp	w2, 5
	beq	.L1508
	.loc 1 7545 0
	ldr	x0, [x19,2736]
	ldr	w3, [x0,12]
	cmp	w3, w1
	beq	.L1532
	.loc 1 7543 0 discriminator 1
	cmp	w2, 6
	beq	.L1508
	.loc 1 7545 0
	ldr	x0, [x19,2744]
	ldr	w3, [x0,12]
	cmp	w3, w1
	beq	.L1533
	.loc 1 7543 0 discriminator 1
	cmp	w2, 7
	beq	.L1508
	.loc 1 7545 0
	ldr	x0, [x19,2752]
	ldr	w3, [x0,12]
	cmp	w3, w1
	beq	.L1534
	.loc 1 7543 0 discriminator 1
	cmp	w2, 8
	beq	.L1508
	.loc 1 7545 0
	ldr	x0, [x19,2760]
	ldr	w3, [x0,12]
	cmp	w3, w1
	beq	.L1535
	.loc 1 7543 0 discriminator 1
	cmp	w2, 9
	beq	.L1508
	.loc 1 7545 0
	ldr	x0, [x19,2768]
	ldr	w3, [x0,12]
	cmp	w3, w1
	beq	.L1536
	.loc 1 7543 0 discriminator 1
	cmp	w2, 10
	beq	.L1508
	.loc 1 7545 0
	ldr	x0, [x19,2776]
	ldr	w3, [x0,12]
	cmp	w3, w1
	beq	.L1537
	.loc 1 7543 0 discriminator 1
	cmp	w2, 11
	beq	.L1508
	.loc 1 7545 0
	ldr	x0, [x19,2784]
	ldr	w3, [x0,12]
	cmp	w3, w1
	beq	.L1538
	.loc 1 7543 0 discriminator 1
	cmp	w2, 12
	beq	.L1508
	.loc 1 7545 0
	ldr	x0, [x19,2792]
	ldr	w3, [x0,12]
	cmp	w3, w1
	beq	.L1539
	.loc 1 7543 0 discriminator 1
	cmp	w2, 13
	beq	.L1508
	.loc 1 7545 0
	ldr	x0, [x19,2800]
	ldr	w3, [x0,12]
	cmp	w3, w1
	beq	.L1540
	.loc 1 7543 0 discriminator 1
	cmp	w2, 14
	beq	.L1508
	.loc 1 7545 0
	ldr	x0, [x19,2808]
	ldr	w3, [x0,12]
	cmp	w3, w1
	beq	.L1541
	.loc 1 7543 0 discriminator 1
	cmp	w2, 15
	beq	.L1508
	.loc 1 7545 0
	ldr	x0, [x19,2816]
	ldr	w3, [x0,12]
	cmp	w3, w1
	beq	.L1542
	.loc 1 7543 0 discriminator 1
	cmp	w2, 16
	beq	.L1508
	.loc 1 7545 0
	ldr	x0, [x19,2824]
	ldr	w2, [x0,12]
	cmp	w2, w1
	beq	.L1543
.L1508:
	.loc 1 7538 0 discriminator 1
	ldr	w0, [x25,1892]
	.loc 1 7538 0 is_stmt 0 discriminator 2
	add	w20, w20, 1
	add	x21, x21, 1
	add	x22, x22, 4
	.loc 1 7538 0 discriminator 1
	cmp	w0, w20
	bhi	.L1513
.L1507:
	.loc 1 7563 0 is_stmt 1
	ldr	w1, [x19,2672]
	.loc 1 7562 0
	str	w24, [x19,2688]
	.loc 1 7563 0
	cmp	w24, w1
	bcs	.L1517
	.loc 1 7565 0
	add	w2, w24, 1
	add	x3, x19, x24, uxtw 3
	.loc 1 7563 0
	cmp	w1, w2
	.loc 1 7565 0
	str	xzr, [x3,2832]
	.loc 1 7563 0
	bls	.L1517
	.loc 1 7565 0
	add	w3, w24, 2
	add	x2, x19, x2, uxtw 3
	.loc 1 7563 0
	cmp	w1, w3
	.loc 1 7565 0
	str	xzr, [x2,2832]
	.loc 1 7563 0
	bls	.L1517
	.loc 1 7565 0
	add	w2, w24, 3
	add	x3, x19, x3, uxtw 3
	.loc 1 7563 0
	cmp	w1, w2
	.loc 1 7565 0
	str	xzr, [x3,2832]
	.loc 1 7563 0
	bls	.L1517
	.loc 1 7565 0
	add	w3, w24, 4
	add	x2, x19, x2, uxtw 3
	.loc 1 7563 0
	cmp	w1, w3
	.loc 1 7565 0
	str	xzr, [x2,2832]
	.loc 1 7563 0
	bls	.L1517
	.loc 1 7565 0
	add	w2, w24, 5
	add	x3, x19, x3, uxtw 3
	.loc 1 7563 0
	cmp	w1, w2
	.loc 1 7565 0
	str	xzr, [x3,2832]
	.loc 1 7563 0
	bls	.L1517
	.loc 1 7565 0
	add	w3, w24, 6
	add	x2, x19, x2, uxtw 3
	.loc 1 7563 0
	cmp	w1, w3
	.loc 1 7565 0
	str	xzr, [x2,2832]
	.loc 1 7563 0
	bls	.L1517
	.loc 1 7565 0
	add	w2, w24, 7
	add	x3, x19, x3, uxtw 3
	.loc 1 7563 0
	cmp	w1, w2
	.loc 1 7565 0
	str	xzr, [x3,2832]
	.loc 1 7563 0
	bls	.L1517
	.loc 1 7565 0
	add	w3, w24, 8
	add	x2, x19, x2, uxtw 3
	.loc 1 7563 0
	cmp	w1, w3
	.loc 1 7565 0
	str	xzr, [x2,2832]
	.loc 1 7563 0
	bls	.L1517
	.loc 1 7565 0
	add	w2, w24, 9
	add	x3, x19, x3, uxtw 3
	.loc 1 7563 0
	cmp	w1, w2
	.loc 1 7565 0
	str	xzr, [x3,2832]
	.loc 1 7563 0
	bls	.L1517
	.loc 1 7565 0
	add	w3, w24, 10
	add	x2, x19, x2, uxtw 3
	.loc 1 7563 0
	cmp	w1, w3
	.loc 1 7565 0
	str	xzr, [x2,2832]
	.loc 1 7563 0
	bls	.L1517
	.loc 1 7565 0
	add	w2, w24, 11
	add	x3, x19, x3, uxtw 3
	.loc 1 7563 0
	cmp	w1, w2
	.loc 1 7565 0
	str	xzr, [x3,2832]
	.loc 1 7563 0
	bls	.L1517
	.loc 1 7565 0
	add	w3, w24, 12
	add	x2, x19, x2, uxtw 3
	.loc 1 7563 0
	cmp	w1, w3
	.loc 1 7565 0
	str	xzr, [x2,2832]
	.loc 1 7563 0
	bls	.L1517
	.loc 1 7565 0
	add	w2, w24, 13
	add	x3, x19, x3, uxtw 3
	.loc 1 7563 0
	cmp	w1, w2
	.loc 1 7565 0
	str	xzr, [x3,2832]
	.loc 1 7563 0
	bls	.L1517
	.loc 1 7565 0
	add	w3, w24, 14
	add	x2, x19, x2, uxtw 3
	.loc 1 7563 0
	cmp	w1, w3
	.loc 1 7565 0
	str	xzr, [x2,2832]
	.loc 1 7563 0
	bls	.L1517
	.loc 1 7565 0
	add	w2, w24, 15
	add	x3, x19, x3, uxtw 3
	.loc 1 7563 0
	cmp	w1, w2
	.loc 1 7565 0
	str	xzr, [x3,2832]
	.loc 1 7563 0
	bls	.L1517
	.loc 1 7565 0
	add	w24, w24, 16
	add	x2, x19, x2, uxtw 3
	.loc 1 7563 0
	cmp	w1, w24
	.loc 1 7565 0
	str	xzr, [x2,2832]
	.loc 1 7563 0
	bls	.L1517
	.loc 1 7565 0
	add	x24, x19, x24, uxtw 3
	str	xzr, [x24,2832]
.L1517:
	.loc 1 7569 0
	ldr	w2, [x25,1896]
	.loc 1 7568 0
	mov	w23, 0
	.loc 1 7569 0
	add	w0, w0, w2
	.loc 1 7570 0 discriminator 1
	cmp	w0, w20
	bls	.L1516
	uxtw	x2, w20
	sub	w0, w0, w20
	add	x21, x2, 12288
	add	x20, x2, 53248
.LVL701:
	add	x3, x20, 1930
	add	x21, x21, 1511
	sub	w1, w0, #1
	add	x20, x20, 1929
	add	x0, x3, x1
	add	x20, x19, x20
	add	x21, x19, x21, lsl 2
	add	x24, x19, x0
	mov	w23, 0
	.loc 1 7574 0
	add	x25, x19, 49152
.L1523:
	.loc 1 7572 0
	ldrb	w0, [x20]
	cbz	w0, .L1518
	.loc 1 7575 0 discriminator 1
	ldr	w2, [x19,2676]
	.loc 1 7574 0
	ldr	w1, [x25,2752]
	ldr	w0, [x21]
	add	w1, w1, w0
	.loc 1 7575 0 discriminator 1
	cbz	w2, .L1518
	.loc 1 7577 0
	ldr	x0, [x19,2696]
	ldr	w3, [x0,12]
	cmp	w3, w1
	beq	.L1677
	.loc 1 7575 0 discriminator 1
	cmp	w2, 1
	bls	.L1518
	.loc 1 7577 0
	ldr	x0, [x19,2704]
	ldr	w3, [x0,12]
	cmp	w3, w1
	beq	.L1545
	.loc 1 7575 0 discriminator 1
	cmp	w2, 2
	beq	.L1518
	.loc 1 7577 0
	ldr	x0, [x19,2712]
	ldr	w3, [x0,12]
	cmp	w3, w1
	beq	.L1546
	.loc 1 7575 0 discriminator 1
	cmp	w2, 3
	beq	.L1518
	.loc 1 7577 0
	ldr	x0, [x19,2720]
	ldr	w3, [x0,12]
	cmp	w3, w1
	beq	.L1547
	.loc 1 7575 0 discriminator 1
	cmp	w2, 4
	beq	.L1518
	.loc 1 7577 0
	ldr	x0, [x19,2728]
	ldr	w3, [x0,12]
	cmp	w3, w1
	beq	.L1548
	.loc 1 7575 0 discriminator 1
	cmp	w2, 5
	beq	.L1518
	.loc 1 7577 0
	ldr	x0, [x19,2736]
	ldr	w3, [x0,12]
	cmp	w3, w1
	beq	.L1549
	.loc 1 7575 0 discriminator 1
	cmp	w2, 6
	beq	.L1518
	.loc 1 7577 0
	ldr	x0, [x19,2744]
	ldr	w3, [x0,12]
	cmp	w3, w1
	beq	.L1550
	.loc 1 7575 0 discriminator 1
	cmp	w2, 7
	beq	.L1518
	.loc 1 7577 0
	ldr	x0, [x19,2752]
	ldr	w3, [x0,12]
	cmp	w3, w1
	beq	.L1551
	.loc 1 7575 0 discriminator 1
	cmp	w2, 8
	beq	.L1518
	.loc 1 7577 0
	ldr	x0, [x19,2760]
	ldr	w3, [x0,12]
	cmp	w3, w1
	beq	.L1552
	.loc 1 7575 0 discriminator 1
	cmp	w2, 9
	beq	.L1518
	.loc 1 7577 0
	ldr	x0, [x19,2768]
	ldr	w3, [x0,12]
	cmp	w3, w1
	beq	.L1553
	.loc 1 7575 0 discriminator 1
	cmp	w2, 10
	beq	.L1518
	.loc 1 7577 0
	ldr	x0, [x19,2776]
	ldr	w3, [x0,12]
	cmp	w3, w1
	beq	.L1554
	.loc 1 7575 0 discriminator 1
	cmp	w2, 11
	beq	.L1518
	.loc 1 7577 0
	ldr	x0, [x19,2784]
	ldr	w3, [x0,12]
	cmp	w3, w1
	beq	.L1555
	.loc 1 7575 0 discriminator 1
	cmp	w2, 12
	beq	.L1518
	.loc 1 7577 0
	ldr	x0, [x19,2792]
	ldr	w3, [x0,12]
	cmp	w3, w1
	beq	.L1556
	.loc 1 7575 0 discriminator 1
	cmp	w2, 13
	beq	.L1518
	.loc 1 7577 0
	ldr	x0, [x19,2800]
	ldr	w3, [x0,12]
	cmp	w3, w1
	beq	.L1557
	.loc 1 7575 0 discriminator 1
	cmp	w2, 14
	beq	.L1518
	.loc 1 7577 0
	ldr	x0, [x19,2808]
	ldr	w3, [x0,12]
	cmp	w3, w1
	beq	.L1558
	.loc 1 7575 0 discriminator 1
	cmp	w2, 15
	beq	.L1518
	.loc 1 7577 0
	ldr	x0, [x19,2816]
	ldr	w3, [x0,12]
	cmp	w3, w1
	beq	.L1559
	.loc 1 7575 0 discriminator 1
	cmp	w2, 16
	beq	.L1518
	.loc 1 7577 0
	ldr	x0, [x19,2824]
	ldr	w2, [x0,12]
	cmp	w2, w1
	beq	.L1560
.L1518:
	add	x20, x20, 1
	add	x21, x21, 4
	.loc 1 7570 0 discriminator 1
	cmp	x20, x24
	bne	.L1523
	ldr	w1, [x19,2672]
.LVL702:
.L1516:
	.loc 1 7593 0
	str	w23, [x19,2692]
	.loc 1 7595 0
	cmp	w1, w23
	bls	.L1506
	.loc 1 7597 0
	add	w0, w23, 1
	add	x2, x19, x23, uxtw 3
	.loc 1 7595 0
	cmp	w1, w0
	.loc 1 7597 0
	str	xzr, [x2,2968]
	.loc 1 7595 0
	bls	.L1506
	.loc 1 7597 0
	add	w2, w23, 2
	add	x0, x19, x0, uxtw 3
	.loc 1 7595 0
	cmp	w1, w2
	.loc 1 7597 0
	str	xzr, [x0,2968]
	.loc 1 7595 0
	bls	.L1506
	.loc 1 7597 0
	add	w0, w23, 3
	add	x2, x19, x2, uxtw 3
	.loc 1 7595 0
	cmp	w1, w0
	.loc 1 7597 0
	str	xzr, [x2,2968]
	.loc 1 7595 0
	bls	.L1506
	.loc 1 7597 0
	add	w2, w23, 4
	add	x0, x19, x0, uxtw 3
	.loc 1 7595 0
	cmp	w2, w1
	.loc 1 7597 0
	str	xzr, [x0,2968]
	.loc 1 7595 0
	bcs	.L1506
	.loc 1 7597 0
	add	w0, w23, 5
	add	x2, x19, x2, uxtw 3
	.loc 1 7595 0
	cmp	w1, w0
	.loc 1 7597 0
	str	xzr, [x2,2968]
	.loc 1 7595 0
	bls	.L1506
	.loc 1 7597 0
	add	w2, w23, 6
	add	x0, x19, x0, uxtw 3
	.loc 1 7595 0
	cmp	w1, w2
	.loc 1 7597 0
	str	xzr, [x0,2968]
	.loc 1 7595 0
	bls	.L1506
	.loc 1 7597 0
	add	w0, w23, 7
	add	x2, x19, x2, uxtw 3
	.loc 1 7595 0
	cmp	w1, w0
	.loc 1 7597 0
	str	xzr, [x2,2968]
	.loc 1 7595 0
	bls	.L1506
	.loc 1 7597 0
	add	w2, w23, 8
	add	x0, x19, x0, uxtw 3
	.loc 1 7595 0
	cmp	w1, w2
	.loc 1 7597 0
	str	xzr, [x0,2968]
	.loc 1 7595 0
	bls	.L1506
	.loc 1 7597 0
	add	w0, w23, 9
	add	x2, x19, x2, uxtw 3
	.loc 1 7595 0
	cmp	w1, w0
	.loc 1 7597 0
	str	xzr, [x2,2968]
	.loc 1 7595 0
	bls	.L1506
	.loc 1 7597 0
	add	w2, w23, 10
	add	x0, x19, x0, uxtw 3
	.loc 1 7595 0
	cmp	w1, w2
	.loc 1 7597 0
	str	xzr, [x0,2968]
	.loc 1 7595 0
	bls	.L1506
	.loc 1 7597 0
	add	w0, w23, 11
	add	x2, x19, x2, uxtw 3
	.loc 1 7595 0
	cmp	w1, w0
	.loc 1 7597 0
	str	xzr, [x2,2968]
	.loc 1 7595 0
	bls	.L1506
	.loc 1 7597 0
	add	w2, w23, 12
	add	x0, x19, x0, uxtw 3
	.loc 1 7595 0
	cmp	w1, w2
	.loc 1 7597 0
	str	xzr, [x0,2968]
	.loc 1 7595 0
	bls	.L1506
	.loc 1 7597 0
	add	w0, w23, 13
	add	x2, x19, x2, uxtw 3
	.loc 1 7595 0
	cmp	w1, w0
	.loc 1 7597 0
	str	xzr, [x2,2968]
	.loc 1 7595 0
	bls	.L1506
	.loc 1 7597 0
	add	w2, w23, 14
	add	x0, x19, x0, uxtw 3
	.loc 1 7595 0
	cmp	w1, w2
	.loc 1 7597 0
	str	xzr, [x0,2968]
	.loc 1 7595 0
	bls	.L1506
	.loc 1 7597 0
	add	w0, w23, 15
	add	x2, x19, x2, uxtw 3
	.loc 1 7595 0
	cmp	w1, w0
	.loc 1 7597 0
	str	xzr, [x2,2968]
	.loc 1 7595 0
	bls	.L1506
	.loc 1 7597 0
	add	w23, w23, 16
	add	x0, x19, x0, uxtw 3
	.loc 1 7595 0
	cmp	w1, w23
	.loc 1 7597 0
	str	xzr, [x0,2968]
	.loc 1 7595 0
	bls	.L1506
	.loc 1 7597 0
	add	x23, x19, x23, uxtw 3
	str	xzr, [x23,2968]
.L1506:
	.loc 1 7601 0
	ldp	x19, x20, [sp,16]
	.cfi_remember_state
	.cfi_restore 20
	.cfi_restore 19
.LVL703:
	ldp	x21, x22, [sp,32]
	.cfi_restore 22
	.cfi_restore 21
	ldp	x23, x24, [sp,48]
	.cfi_restore 24
	.cfi_restore 23
	ldp	x25, x26, [sp,64]
	.cfi_restore 26
	.cfi_restore 25
	ldp	x29, x30, [sp], 80
	.cfi_restore 30
	.cfi_restore 29
	.cfi_def_cfa 31, 0
	ret
.LVL704:
.L1676:
	.cfi_restore_state
	.loc 1 7543 0
	mov	w23, 0
.L1509:
	ubfiz	x23, x23, 3, 5
	.loc 1 7547 0
	mov	w1, 1
	add	x23, x19, x23
	strb	w1, [x0,1]
	.loc 1 7549 0
	ldr	x0, [x23,2696]
	ldrb	w1, [x0,1]
	cbnz	w1, .L1678
.L1511:
	.loc 1 7554 0
	mov	w1, 1
	str	w1, [x0,60]
	.loc 1 7556 0
	add	x0, x19, x24, uxtw 3
	add	w24, w24, w1
	.loc 1 7555 0
	ldr	x1, [x23,2696]
	str	wzr, [x1,56]
	.loc 1 7556 0
	ldr	x1, [x23,2696]
	str	x1, [x0,2832]
	.loc 1 7557 0
	b	.L1508
.L1678:
	.loc 1 7551 0
	ldr	w1, [x0,32]
	mov	w2, 1
	ldr	w0, [x19,240]
	bl	FSP_SetRef
.LVL705:
	ldr	x0, [x23,2696]
	b	.L1511
.LVL706:
.L1677:
	.loc 1 7575 0
	mov	w22, 0
.L1519:
	ubfiz	x22, x22, 3, 5
	.loc 1 7579 0
	mov	w1, 1
	add	x22, x19, x22
	strb	w1, [x0,1]
	.loc 1 7581 0
	ldr	x0, [x22,2696]
	ldrb	w1, [x0,1]
	cbnz	w1, .L1679
.L1521:
	.loc 1 7585 0
	mov	w1, 1
	str	w1, [x0,60]
	.loc 1 7587 0
	add	x0, x19, x23, uxtw 3
	add	w23, w23, w1
	.loc 1 7586 0
	ldr	x1, [x22,2696]
	str	wzr, [x1,56]
	.loc 1 7587 0
	ldr	x1, [x22,2696]
	str	x1, [x0,2968]
	.loc 1 7588 0
	b	.L1518
.L1679:
	.loc 1 7583 0
	ldr	w1, [x0,32]
	mov	w2, 1
	ldr	w0, [x19,240]
	bl	FSP_SetRef
.LVL707:
	ldr	x0, [x22,2696]
	b	.L1521
.L1545:
	.loc 1 7575 0 discriminator 2
	mov	w22, 1
	b	.L1519
.L1560:
	mov	w22, 16
	b	.L1519
.L1547:
	mov	w22, 3
	b	.L1519
.L1546:
	mov	w22, 2
	b	.L1519
.L1551:
	mov	w22, 7
	b	.L1519
.L1550:
	mov	w22, 6
	b	.L1519
.L1549:
	mov	w22, 5
	b	.L1519
.L1548:
	mov	w22, 4
	b	.L1519
.L1559:
	mov	w22, 15
	b	.L1519
.L1558:
	mov	w22, 14
	b	.L1519
.L1557:
	mov	w22, 13
	b	.L1519
.L1556:
	mov	w22, 12
	b	.L1519
.L1555:
	mov	w22, 11
	b	.L1519
.L1554:
	mov	w22, 10
	b	.L1519
.L1553:
	mov	w22, 9
	b	.L1519
.L1552:
	mov	w22, 8
	b	.L1519
.LVL708:
.L1543:
	.loc 1 7543 0 discriminator 2
	mov	w23, 16
	b	.L1509
.L1542:
	mov	w23, 15
	b	.L1509
.L1541:
	mov	w23, 14
	b	.L1509
.L1540:
	mov	w23, 13
	b	.L1509
.L1539:
	mov	w23, 12
	b	.L1509
.L1538:
	mov	w23, 11
	b	.L1509
.L1537:
	mov	w23, 10
	b	.L1509
.L1536:
	mov	w23, 9
	b	.L1509
.L1535:
	mov	w23, 8
	b	.L1509
.L1534:
	mov	w23, 7
	b	.L1509
.L1533:
	mov	w23, 6
	b	.L1509
.L1532:
	mov	w23, 5
	b	.L1509
.L1531:
	mov	w23, 4
	b	.L1509
.L1530:
	mov	w23, 3
	b	.L1509
.L1529:
	mov	w23, 2
	b	.L1509
.L1528:
	mov	w23, 1
	b	.L1509
.LVL709:
.L1526:
	.loc 1 7532 0
	mov	w24, 0
	.loc 1 7538 0
	mov	w20, 0
.LVL710:
	b	.L1507
	.cfi_endproc
.LFE2409:
	.size	HEVC_UpdateReflist, .-HEVC_UpdateReflist
	.align	2
	.global	HEVC_UpdateLTReflist
	.type	HEVC_UpdateLTReflist, %function
HEVC_UpdateLTReflist:
.LFB2410:
	.loc 1 7613 0
	.cfi_startproc
.LVL711:
	.loc 1 7623 0
	add	x3, x0, 49152
	.loc 1 7628 0
	add	x1, x0, 53248
	.loc 1 7624 0
	ldr	x2, [x0,2328]
	mov	w7, 2024
	.loc 1 7625 0
	ldr	x5, [x0,2320]
	mov	w13, 1
	.loc 1 7623 0
	ldr	w9, [x3,2780]
	.loc 1 7628 0
	add	x1, x1, 1876
	.loc 1 7628 0 is_stmt 0 discriminator 1
	ldr	w3, [x1,16]
	ldr	w4, [x1,20]
	.loc 1 7624 0 is_stmt 1
	nop // between mem op and mult-accumulate
	smaddl	x7, w9, w7, x2
	.loc 1 7628 0
	ldr	w10, [x1,24]
	.loc 1 7628 0 is_stmt 0 discriminator 1
	add	w3, w3, w4
	sub	w2, w3, #1
	.loc 1 7624 0 is_stmt 1
	ldr	w6, [x7,32]
	.loc 1 7628 0
	sub	w10, w10, #1
.LVL712:
	.loc 1 7628 0 is_stmt 0 discriminator 1
	cmp	w10, w2
	.loc 1 7625 0 is_stmt 1
	mov	w2, 23556
	smaddl	x5, w6, w2, x5
	ldr	w8, [x5,128]
	lsl	w8, w13, w8
.LVL713:
	.loc 1 7628 0 discriminator 1
	ble	.L1690
	mov	w12, 0
	.loc 1 7630 0
	mov	x11, x1
	.loc 1 7639 0 discriminator 1
	sub	w8, w8, #1
.LVL714:
	.loc 1 7642 0
	mov	w14, w13
.LVL715:
.L1687:
	.loc 1 7630 0
	sxtw	x2, w10
.LVL716:
	add	x1, x11, x2
	ldrb	w1, [x1,53]
	cbz	w1, .L1682
	add	x2, x0, x2, lsl 2
.LVL717:
	.loc 1 7636 0 discriminator 1
	ldr	w9, [x0,2676]
	.loc 1 7632 0
	add	x2, x2, 53248
	ldr	w6, [x2,2016]
.LVL718:
	.loc 1 7633 0
	ldrb	w7, [x2,132]
.LVL719:
	.loc 1 7634 0 discriminator 1
	and	w2, w6, w8
	cmp	w7, wzr
	csel	w6, w2, w6, eq
	.loc 1 7636 0 discriminator 1
	cmp	w9, wzr
	ble	.L1682
	add	x3, x0, 2696
	mov	w2, 0
.LVL720:
	b	.L1686
.LVL721:
.L1685:
	.loc 1 7636 0 is_stmt 0 discriminator 2
	add	w2, w2, 1
	.loc 1 7636 0 discriminator 1
	cmp	w2, w9
	beq	.L1682
.L1686:
	.loc 1 7638 0 is_stmt 1
	ldr	x4, [x3]
	.loc 1 7639 0 discriminator 1
	cmp	w7, wzr
	add	x3, x3, 8
	.loc 1 7638 0
	ldr	w1, [x4,12]
.LVL722:
	.loc 1 7639 0 discriminator 1
	and	w5, w1, w8
	csel	w1, w5, w1, eq
	.loc 1 7640 0
	cmp	w6, w1
	bne	.L1685
	.loc 1 7642 0
	strb	w14, [x4,1]
	add	x2, x0, x2, sxtw 3
.LVL723:
	.loc 1 7646 0
	add	x1, x0, x12, sxtw 3
.LVL724:
	add	w12, w12, 1
	.loc 1 7644 0
	ldr	x3, [x2,2696]
	str	wzr, [x3,60]
	.loc 1 7645 0
	ldr	x3, [x2,2696]
	str	w13, [x3,56]
	.loc 1 7646 0
	ldr	x2, [x2,2696]
	str	x2, [x1,3104]
.LVL725:
.L1682:
	.loc 1 7628 0 discriminator 1
	ldr	w1, [x11,16]
.LVL726:
	.loc 1 7628 0 is_stmt 0 discriminator 2
	sub	w10, w10, #1
.LVL727:
	.loc 1 7628 0 discriminator 1
	ldr	w2, [x11,20]
.LVL728:
	add	w2, w1, w2
	sub	w2, w2, #1
	cmp	w2, w10
	blt	.L1687
	mov	w2, w12
.LVL729:
.L1681:
	.loc 1 7653 0 is_stmt 1
	ldr	w1, [x0,2672]
	.loc 1 7652 0
	str	w2, [x0,2684]
	.loc 1 7653 0
	cmp	w12, w1
	bge	.L1680
	.loc 1 7655 0
	add	w2, w12, 1
	add	x3, x0, x12, sxtw 3
	.loc 1 7653 0
	cmp	w2, w1
	.loc 1 7655 0
	str	xzr, [x3,3104]
	.loc 1 7653 0
	bge	.L1680
	.loc 1 7655 0
	add	w3, w12, 2
	add	x2, x0, x2, sxtw 3
	.loc 1 7653 0
	cmp	w3, w1
	.loc 1 7655 0
	str	xzr, [x2,3104]
	.loc 1 7653 0
	bge	.L1680
	.loc 1 7655 0
	add	w2, w12, 3
	add	x3, x0, x3, sxtw 3
	.loc 1 7653 0
	cmp	w2, w1
	.loc 1 7655 0
	str	xzr, [x3,3104]
	.loc 1 7653 0
	bge	.L1680
	.loc 1 7655 0
	add	w3, w12, 4
	add	x2, x0, x2, sxtw 3
	.loc 1 7653 0
	cmp	w3, w1
	.loc 1 7655 0
	str	xzr, [x2,3104]
	.loc 1 7653 0
	bge	.L1680
	.loc 1 7655 0
	add	w2, w12, 5
	add	x3, x0, x3, sxtw 3
	.loc 1 7653 0
	cmp	w1, w2
	.loc 1 7655 0
	str	xzr, [x3,3104]
	.loc 1 7653 0
	ble	.L1680
	.loc 1 7655 0
	add	w3, w12, 6
	add	x2, x0, x2, sxtw 3
	.loc 1 7653 0
	cmp	w1, w3
	.loc 1 7655 0
	str	xzr, [x2,3104]
	.loc 1 7653 0
	ble	.L1680
	.loc 1 7655 0
	add	w2, w12, 7
	add	x3, x0, x3, sxtw 3
	.loc 1 7653 0
	cmp	w1, w2
	.loc 1 7655 0
	str	xzr, [x3,3104]
	.loc 1 7653 0
	ble	.L1680
	.loc 1 7655 0
	add	w3, w12, 8
	add	x2, x0, x2, sxtw 3
	.loc 1 7653 0
	cmp	w1, w3
	.loc 1 7655 0
	str	xzr, [x2,3104]
	.loc 1 7653 0
	ble	.L1680
	.loc 1 7655 0
	add	w2, w12, 9
	add	x3, x0, x3, sxtw 3
	.loc 1 7653 0
	cmp	w1, w2
	.loc 1 7655 0
	str	xzr, [x3,3104]
	.loc 1 7653 0
	ble	.L1680
	.loc 1 7655 0
	add	w3, w12, 10
	add	x2, x0, x2, sxtw 3
	.loc 1 7653 0
	cmp	w1, w3
	.loc 1 7655 0
	str	xzr, [x2,3104]
	.loc 1 7653 0
	ble	.L1680
	.loc 1 7655 0
	add	w2, w12, 11
	add	x3, x0, x3, sxtw 3
	.loc 1 7653 0
	cmp	w1, w2
	.loc 1 7655 0
	str	xzr, [x3,3104]
	.loc 1 7653 0
	ble	.L1680
	.loc 1 7655 0
	add	w3, w12, 12
	add	x2, x0, x2, sxtw 3
	.loc 1 7653 0
	cmp	w1, w3
	.loc 1 7655 0
	str	xzr, [x2,3104]
	.loc 1 7653 0
	ble	.L1680
	.loc 1 7655 0
	add	w2, w12, 13
	add	x3, x0, x3, sxtw 3
	.loc 1 7653 0
	cmp	w1, w2
	.loc 1 7655 0
	str	xzr, [x3,3104]
	.loc 1 7653 0
	ble	.L1680
	.loc 1 7655 0
	add	w3, w12, 14
	add	x2, x0, x2, sxtw 3
	.loc 1 7653 0
	cmp	w1, w3
	.loc 1 7655 0
	str	xzr, [x2,3104]
	.loc 1 7653 0
	ble	.L1680
	.loc 1 7655 0
	add	w2, w12, 15
	add	x3, x0, x3, sxtw 3
	.loc 1 7653 0
	cmp	w1, w2
	.loc 1 7655 0
	str	xzr, [x3,3104]
	.loc 1 7653 0
	ble	.L1680
	.loc 1 7655 0
	add	w12, w12, 16
	add	x2, x0, x2, sxtw 3
	.loc 1 7653 0
	cmp	w1, w12
	.loc 1 7655 0
	str	xzr, [x2,3104]
	.loc 1 7653 0
	ble	.L1680
	.loc 1 7655 0
	add	x0, x0, x12, sxtw 3
.LVL730:
	str	xzr, [x0,3104]
.LVL731:
.L1680:
	.loc 1 7659 0
	ret
.LVL732:
.L1690:
	.loc 1 7628 0 discriminator 1
	mov	w2, 0
	.loc 1 7614 0
	mov	w12, 0
	b	.L1681
	.cfi_endproc
.LFE2410:
	.size	HEVC_UpdateLTReflist, .-HEVC_UpdateLTReflist
	.align	2
	.global	HEVC_GetAPC
	.type	HEVC_GetAPC, %function
HEVC_GetAPC:
.LFB2412:
	.loc 1 7729 0
	.cfi_startproc
.LVL733:
	stp	x29, x30, [sp, -48]!
	.cfi_def_cfa_offset 48
	.cfi_offset 29, -48
	.cfi_offset 30, -40
	add	x29, sp, 0
	.cfi_def_cfa_register 29
	stp	x19, x20, [sp,16]
	str	x21, [sp,32]
	.cfi_offset 19, -32
	.cfi_offset 20, -24
	.cfi_offset 21, -16
	.loc 1 7729 0
	mov	x20, x1
	mov	x19, x0
	.loc 1 7733 0
	cbz	x1, .L1697
	.loc 1 7735 0 discriminator 1
	ldr	w0, [x0,3240]
.LVL734:
	cbz	w0, .L1743
	.loc 1 7737 0
	ldr	w1, [x19,3248]
	cbz	w1, .L1745
	.loc 1 7735 0 discriminator 1
	cmp	w0, 1
	bls	.L1743
	.loc 1 7737 0
	ldr	w1, [x19,3252]
	cbz	w1, .L1706
	.loc 1 7735 0 discriminator 1
	cmp	w0, 2
	beq	.L1743
	.loc 1 7737 0
	ldr	w1, [x19,3256]
	cbz	w1, .L1708
	.loc 1 7735 0 discriminator 1
	cmp	w0, 3
	beq	.L1743
	.loc 1 7737 0
	ldr	w1, [x19,3260]
	cbz	w1, .L1710
	.loc 1 7735 0 discriminator 1
	cmp	w0, 4
	beq	.L1743
	.loc 1 7737 0
	ldr	w1, [x19,3264]
	cbz	w1, .L1712
	.loc 1 7735 0 discriminator 1
	cmp	w0, 5
	beq	.L1743
	.loc 1 7737 0
	ldr	w1, [x19,3268]
	cbz	w1, .L1714
	.loc 1 7735 0 discriminator 1
	cmp	w0, 6
	beq	.L1743
	.loc 1 7737 0
	ldr	w1, [x19,3272]
	cbz	w1, .L1716
	.loc 1 7735 0 discriminator 1
	cmp	w0, 7
	beq	.L1743
	.loc 1 7737 0
	ldr	w1, [x19,3276]
	cbz	w1, .L1718
	.loc 1 7735 0 discriminator 1
	cmp	w0, 8
	beq	.L1743
	.loc 1 7737 0
	ldr	w1, [x19,3280]
	cbz	w1, .L1720
	.loc 1 7735 0 discriminator 1
	cmp	w0, 9
	beq	.L1743
	.loc 1 7737 0
	ldr	w1, [x19,3284]
	cbz	w1, .L1722
	.loc 1 7735 0 discriminator 1
	cmp	w0, 10
	beq	.L1743
	.loc 1 7737 0
	ldr	w1, [x19,3288]
	cbz	w1, .L1724
	.loc 1 7735 0 discriminator 1
	cmp	w0, 11
	beq	.L1743
	.loc 1 7737 0
	ldr	w1, [x19,3292]
	cbz	w1, .L1726
	.loc 1 7735 0 discriminator 1
	cmp	w0, 12
	beq	.L1743
	.loc 1 7737 0
	ldr	w1, [x19,3296]
	cbz	w1, .L1728
	.loc 1 7735 0 discriminator 1
	cmp	w0, 13
	beq	.L1743
	.loc 1 7737 0
	ldr	w1, [x19,3300]
	cbz	w1, .L1730
	.loc 1 7735 0 discriminator 1
	cmp	w0, 14
	beq	.L1743
	.loc 1 7737 0
	ldr	w1, [x19,3304]
	cbz	w1, .L1732
	.loc 1 7735 0 discriminator 1
	cmp	w0, 15
	beq	.L1743
	.loc 1 7737 0
	ldr	w0, [x19,3308]
	cbz	w0, .L1746
.LVL735:
.L1743:
	.loc 1 7756 0
	mov	w0, -7
.L1742:
	.loc 1 7762 0
	ldp	x19, x20, [sp,16]
	.cfi_remember_state
	.cfi_restore 20
	.cfi_restore 19
.LVL736:
	ldr	x21, [sp,32]
	.cfi_restore 21
.LVL737:
	ldp	x29, x30, [sp], 48
	.cfi_restore 30
	.cfi_restore 29
	.cfi_def_cfa 31, 0
	ret
.LVL738:
.L1746:
	.cfi_restore_state
	.loc 1 7735 0 discriminator 2
	mov	w21, 15
.LVL739:
.L1699:
	.loc 1 7740 0
	ldr	w0, [x19,240]
	ldr	w1, [x20,32]
	bl	FSP_GetLogicFs
.LVL740:
	mov	x5, x0
.LVL741:
	.loc 1 7741 0
	cbz	x0, .L1701
	.loc 1 7741 0 is_stmt 0 discriminator 1
	ldr	x0, [x0,296]
	cbz	x0, .L1701
	ubfiz	x2, x21, 2, 4
	.loc 1 7743 0 is_stmt 1
	mov	w4, 1
	add	x2, x19, x2
	.loc 1 7747 0
	adrp	x1, .LC81
	mov	w3, w21
	add	x1, x1, :lo12:.LC81
	mov	w0, 13
	.loc 1 7743 0
	str	w4, [x2,3248]
	.loc 1 7744 0
	ldr	x4, [x5,296]
	ldr	w4, [x4,4]
	str	w4, [x2,3312]
	.loc 1 7745 0
	ldr	w4, [x20,12]
	str	w4, [x2,3376]
	.loc 1 7746 0
	ldr	w2, [x19,3244]
	add	w2, w2, 1
	str	w2, [x19,3244]
	.loc 1 7747 0
	ldr	w2, [x20,160]
	bl	dprint_linux_kernel
.LVL742:
	.loc 1 7748 0
	str	w21, [x20,28]
	.loc 1 7749 0
	mov	w0, 0
	.loc 1 7762 0
	ldp	x19, x20, [sp,16]
	.cfi_remember_state
	.cfi_restore 19
	.cfi_restore 20
.LVL743:
	ldr	x21, [sp,32]
	.cfi_restore 21
.LVL744:
	ldp	x29, x30, [sp], 48
	.cfi_restore 29
	.cfi_restore 30
	.cfi_def_cfa 31, 0
	ret
.LVL745:
.L1745:
	.cfi_restore_state
	.loc 1 7737 0
	mov	w21, 0
.LVL746:
	b	.L1699
.LVL747:
.L1730:
	.loc 1 7735 0 discriminator 2
	mov	w21, 13
.LVL748:
	b	.L1699
.LVL749:
.L1728:
	mov	w21, 12
.LVL750:
	b	.L1699
.LVL751:
.L1726:
	mov	w21, 11
.LVL752:
	b	.L1699
.LVL753:
.L1724:
	mov	w21, 10
.LVL754:
	b	.L1699
.LVL755:
.L1722:
	mov	w21, 9
.LVL756:
	b	.L1699
.LVL757:
.L1720:
	mov	w21, 8
.LVL758:
	b	.L1699
.LVL759:
.L1718:
	mov	w21, 7
.LVL760:
	b	.L1699
.LVL761:
.L1714:
	mov	w21, 5
.LVL762:
	b	.L1699
.LVL763:
.L1712:
	mov	w21, 4
.LVL764:
	b	.L1699
.LVL765:
.L1710:
	mov	w21, 3
.LVL766:
	b	.L1699
.LVL767:
.L1732:
	mov	w21, 14
.LVL768:
	b	.L1699
.LVL769:
.L1706:
	mov	w21, 1
.LVL770:
	b	.L1699
.LVL771:
.L1716:
	mov	w21, 6
.LVL772:
	b	.L1699
.LVL773:
.L1708:
	mov	w21, 2
.LVL774:
	b	.L1699
.LVL775:
.L1701:
	.loc 1 7753 0 discriminator 4
	ldr	w2, [x20,32]
	adrp	x1, .LC82
	ldr	w3, [x20,12]
	add	x1, x1, :lo12:.LC82
	ldrb	w4, [x20,1]
	mov	x6, 0
	mov	w0, 0
	bl	dprint_linux_kernel
.LVL776:
	b	.L1743
.LVL777:
.L1697:
	.loc 1 7733 0 discriminator 1
	adrp	x1, .LC41
.LVL778:
	adrp	x2, .LC42
	mov	w0, 0
	add	x1, x1, :lo12:.LC41
	add	x2, x2, :lo12:.LC42
	mov	w3, 7733
	bl	dprint_linux_kernel
.LVL779:
	mov	w0, -7
	.loc 1 7733 0 is_stmt 0
	b	.L1742
	.cfi_endproc
.LFE2412:
	.size	HEVC_GetAPC, .-HEVC_GetAPC
	.align	2
	.global	HEVC_CheckFrameStore
	.type	HEVC_CheckFrameStore, %function
HEVC_CheckFrameStore:
.LFB2418:
	.loc 1 8003 0 is_stmt 1
	.cfi_startproc
.LVL780:
	stp	x29, x30, [sp, -32]!
	.cfi_def_cfa_offset 32
	.cfi_offset 29, -32
	.cfi_offset 30, -24
	add	x29, sp, 0
	.cfi_def_cfa_register 29
	str	x19, [sp,16]
	.cfi_offset 19, -16
	.loc 1 8003 0
	mov	x19, x1
	.loc 1 8008 0
	ldr	w0, [x0,240]
.LVL781:
	ldr	w1, [x1,32]
.LVL782:
	bl	FSP_GetLogicFs
.LVL783:
	.loc 1 8009 0
	cbz	x0, .L1748
	.loc 1 8011 0
	ldrsb	w4, [x0,1]
	cbz	w4, .L1759
	cmp	w4, 3
	beq	.L1759
	.loc 1 8025 0
	ldr	w0, [x19,8]
.LVL784:
	cmp	w0, 1
	beq	.L1755
	.loc 1 8039 0
	ldr	w4, [x19,4]
	ldrb	w5, [x19]
	cbz	w4, .L1754
	.loc 1 8039 0 is_stmt 0 discriminator 1
	cmp	w5, 1
	.loc 1 8045 0 is_stmt 1
	mov	w0, 0
	.loc 1 8039 0 discriminator 1
	beq	.L1754
.L1764:
	.loc 1 8046 0
	ldr	x19, [sp,16]
	.cfi_remember_state
	.cfi_restore 19
.LVL785:
	ldp	x29, x30, [sp], 32
	.cfi_restore 30
	.cfi_restore 29
	.cfi_def_cfa 31, 0
	ret
.LVL786:
.L1759:
	.cfi_restore_state
	.loc 1 8014 0
	adrp	x2, .LANCHOR0
	adrp	x1, .LC83
	add	x2, x2, :lo12:.LANCHOR0
	ldr	w3, [x19,32]
	add	x1, x1, :lo12:.LC83
	add	x2, x2, 272
	mov	w0, 13
.LVL787:
	bl	dprint_linux_kernel
.LVL788:
.L1751:
	.loc 1 8025 0
	ldr	w0, [x19,8]
	cmp	w0, 1
	beq	.L1755
	.loc 1 8034 0
	adrp	x2, .LANCHOR0
	ldr	w3, [x19,12]
	adrp	x1, .LC85
	add	x2, x2, :lo12:.LANCHOR0
	mov	w0, 1
	add	x1, x1, :lo12:.LC85
	add	x2, x2, 272
	bl	dprint_linux_kernel
.LVL789:
	.loc 1 8035 0
	mov	w0, -3
	b	.L1764
.LVL790:
.L1748:
	.loc 1 8020 0
	ldr	w3, [x19,12]
	adrp	x1, .LC84
	ldr	w4, [x19,8]
	add	x1, x1, :lo12:.LC84
	ldr	w5, [x19,32]
	mov	x2, x19
	mov	w0, 1
.LVL791:
	bl	dprint_linux_kernel
.LVL792:
	b	.L1751
.L1754:
	.loc 1 8041 0
	adrp	x2, .LANCHOR0
	adrp	x1, .LC86
	add	x2, x2, :lo12:.LANCHOR0
	mov	w0, 1
	add	x1, x1, :lo12:.LC86
	add	x2, x2, 272
	mov	x3, x19
	bl	dprint_linux_kernel
.LVL793:
	.loc 1 8042 0
	mov	w0, -1
	b	.L1764
.L1755:
	.loc 1 8027 0
	mov	w0, 1
	.loc 1 8028 0
	mov	w1, 2
	.loc 1 8027 0
	strb	w0, [x19,2]
	.loc 1 8029 0
	mov	w0, -3
	.loc 1 8028 0
	str	w1, [x19,8]
	.loc 1 8029 0
	b	.L1764
	.cfi_endproc
.LFE2418:
	.size	HEVC_CheckFrameStore, .-HEVC_CheckFrameStore
	.align	2
	.global	HEVC_GetImagePara
	.type	HEVC_GetImagePara, %function
HEVC_GetImagePara:
.LFB2419:
	.loc 1 8058 0
	.cfi_startproc
.LVL794:
	stp	x29, x30, [sp, -32]!
	.cfi_def_cfa_offset 32
	.cfi_offset 29, -32
	.cfi_offset 30, -24
	add	x29, sp, 0
	.cfi_def_cfa_register 29
	str	x19, [sp,16]
	.cfi_offset 19, -16
	.loc 1 8058 0
	mov	x19, x1
	.loc 1 8067 0
	ldr	w4, [x1,124]
	.loc 1 8069 0
	mov	w1, 25600
.LVL795:
	str	w1, [x19,152]
	.loc 1 8067 0
	mov	w1, -16132
	and	w1, w4, w1
	str	w1, [x19,124]
	.loc 1 8059 0
	ldr	w2, [x19,16]
	.loc 1 8071 0
	ldr	x3, [x0,27936]
	ldr	w3, [x3,12444]
	and	w3, w3, 16776960
	cmp	w3, 256
	beq	.L1773
	.loc 1 8075 0
	cmp	w3, 65536
	beq	.L1774
	.loc 1 8079 0
	mov	w5, 256
	mov	w4, 0
	movk	w5, 0x1, lsl 16
	cmp	w3, w5
	beq	.L1783
.L1770:
.LVL796:
	.loc 1 8092 0
	and	w2, w2, 3
.LVL797:
	.loc 1 8094 0
	ldr	w3, [x19,4]
	orr	w1, w1, w2
	mov	w2, 11264
	orr	w1, w1, w2
	.loc 1 8091 0
	orr	w4, w1, w4
	.loc 1 8088 0
	str	w4, [x19,124]
	.loc 1 8094 0
	cbz	w3, .L1771
	.loc 1 8096 0
	ldr	w1, [x19,20]
	str	w1, [x19,164]
.L1771:
	.loc 1 8099 0
	ldr	w0, [x0,240]
.LVL798:
	ldr	w1, [x19,32]
	bl	FSP_GetFsImagePtr
.LVL799:
	.loc 1 8100 0
	cbz	x0, .L1769
	.loc 1 8102 0
	add	x1, x19, 80
	mov	x2, 280
	bl	memcpy
.LVL800:
.L1769:
	.loc 1 8106 0
	ldr	x19, [sp,16]
	.cfi_remember_state
	.cfi_restore 19
.LVL801:
	ldp	x29, x30, [sp], 32
	.cfi_restore 30
	.cfi_restore 29
	.cfi_def_cfa 31, 0
	ret
.LVL802:
.L1773:
	.cfi_restore_state
	mov	w4, 0
	b	.L1770
.L1774:
	mov	w4, 256
	b	.L1770
.L1783:
	.loc 1 8079 0 discriminator 1
	ldr	w3, [x0,5228]
	mov	w4, 256
	cmp	w3, wzr
	csel	w4, wzr, w4, ne
	b	.L1770
	.cfi_endproc
.LFE2419:
	.size	HEVC_GetImagePara, .-HEVC_GetImagePara
	.align	2
	.global	HEVC_OutputCurrPic
	.type	HEVC_OutputCurrPic, %function
HEVC_OutputCurrPic:
.LFB2402:
	.loc 1 7126 0
	.cfi_startproc
.LVL803:
	stp	x29, x30, [sp, -80]!
	.cfi_def_cfa_offset 80
	.cfi_offset 29, -80
	.cfi_offset 30, -72
	.loc 1 7135 0
	mov	x2, 280
	.loc 1 7126 0
	add	x29, sp, 0
	.cfi_def_cfa_register 29
	stp	x21, x22, [sp,32]
	.cfi_offset 21, -48
	.cfi_offset 22, -40
	.loc 1 7132 0
	add	x22, x0, 49152
	.loc 1 7126 0
	stp	x23, x24, [sp,48]
	stp	x19, x20, [sp,16]
	.cfi_offset 23, -32
	.cfi_offset 24, -24
	.cfi_offset 19, -64
	.cfi_offset 20, -56
	.loc 1 7126 0
	adrp	x23, __stack_chk_guard
	.loc 1 7134 0
	add	x24, x22, 2368
	.loc 1 7132 0
	ldr	x20, [x22,2416]
.LVL804:
	.loc 1 7126 0
	mov	x19, x0
	.loc 1 7134 0
	ldr	w3, [x24,40]
	.loc 1 7135 0
	add	x1, x22, 2424
	.loc 1 7126 0
	ldr	x4, [x23,#:lo12:__stack_chk_guard]
	.loc 1 7135 0
	add	x0, x20, 80
.LVL805:
	.loc 1 7134 0
	str	w3, [x20,20]
	.loc 1 7126 0
	str	x4, [x29,72]
	.loc 1 7135 0
	bl	memcpy
.LVL806:
	.loc 1 7137 0
	mov	x0, x19
	mov	x1, x20
	bl	HEVC_GetImagePara
.LVL807:
	.loc 1 7139 0
	ldr	w0, [x19,240]
	ldr	w1, [x20,32]
	bl	FSP_GetFsImagePtr
.LVL808:
	mov	x21, x0
.LVL809:
	.loc 1 7140 0
	cbz	x0, .L1808
	.loc 1 7146 0
	ldr	w0, [x20,20]
	str	w0, [x21,84]
	.loc 1 7147 0
	cbnz	w0, .L1787
.L1792:
	.loc 1 7154 0
	ldrb	w0, [x22,2368]
	cbnz	w0, .L1809
.L1789:
	.loc 1 7158 0
	ldr	w0, [x19,240]
	mov	w2, 1
	ldr	w1, [x20,32]
	bl	FSP_SetDisplay
.LVL810:
	.loc 1 7159 0
	add	x3, x19, 57344
	ldr	w0, [x19,240]
	mov	w1, 16
	mov	x2, x19
	add	x3, x3, 1976
	mov	x4, x21
	bl	InsertImgToVoQueue
.LVL811:
	cmp	w0, 1
	bne	.L1810
.LBB857:
.LBB858:
	.loc 1 7087 0
	ldr	x0, [x19,2336]
	ldr	w0, [x0,684]
	add	w0, w0, 2047
	cmp	w0, 4095
	bhi	.L1811
	.loc 1 7109 0
	str	wzr, [x21,24]
.L1796:
.LBE858:
.LBE857:
	.loc 1 7167 0
	ldr	w2, [x19,280]
	.loc 1 7178 0
	mov	w0, 0
	.loc 1 7168 0
	ldr	w1, [x19,272]
	.loc 1 7167 0
	add	w2, w2, 1
	str	w2, [x19,280]
	.loc 1 7168 0
	add	w1, w1, 1
	str	w1, [x19,272]
.L1786:
	.loc 1 7179 0
	ldr	x2, [x29,72]
	ldr	x1, [x23,#:lo12:__stack_chk_guard]
	cmp	x2, x1
	bne	.L1812
	ldp	x19, x20, [sp,16]
	.cfi_remember_state
	.cfi_restore 20
	.cfi_restore 19
.LVL812:
	ldp	x21, x22, [sp,32]
	.cfi_restore 22
	.cfi_restore 21
.LVL813:
	ldp	x23, x24, [sp,48]
	.cfi_restore 24
	.cfi_restore 23
	ldp	x29, x30, [sp], 80
	.cfi_restore 30
	.cfi_restore 29
	.cfi_def_cfa 31, 0
	ret
.LVL814:
.L1787:
	.cfi_restore_state
	.loc 1 7147 0 discriminator 1
	ldr	w1, [x24,12]
	cbz	w1, .L1813
.L1790:
	.loc 1 7152 0 discriminator 1
	ldr	x1, [x19,2336]
	ldr	w1, [x1,8]
	cmp	w1, w0
	bcs	.L1792
	.loc 1 7172 0
	ldr	w0, [x19,240]
	mov	w2, 0
	ldr	w1, [x20,32]
	bl	FSP_SetDisplay
.LVL815:
	.loc 1 7173 0
	ldr	x0, [x19,2336]
	adrp	x2, .LANCHOR0
	ldr	w3, [x21,84]
	adrp	x1, .LC90
	add	x2, x2, :lo12:.LANCHOR0
	add	x1, x1, :lo12:.LC90
	ldr	w4, [x0,8]
	add	x2, x2, 296
	mov	w0, 1
	bl	dprint_linux_kernel
.LVL816:
	.loc 1 7174 0
	adrp	x0, g_event_report
	ldr	x4, [x0,#:lo12:g_event_report]
	cbz	x4, .L1798
.LBB860:
	.loc 1 7174 0 is_stmt 0 discriminator 1
	ldr	x5, [x19,2336]
	mov	w1, 104
	ldr	w6, [x21,84]
	add	x2, x29, 64
	ldr	w0, [x19,240]
	mov	w3, 8
	ldr	w5, [x5,8]
	str	w6, [x29,64]
	str	w5, [x29,68]
	blr	x4
.LVL817:
.LBE860:
	.loc 1 7175 0 is_stmt 1
	mov	w0, -1
	b	.L1786
.L1809:
	.loc 1 7156 0
	ldr	w0, [x19,240]
	mov	w2, 1
	ldr	w1, [x20,32]
	bl	FSP_SetRef
.LVL818:
	b	.L1789
.L1811:
.LBB861:
.LBB859:
	mov	x0, x19
	mov	x1, x21
	bl	HEVC_SetFrmRepeatCount.part.3
.LVL819:
	b	.L1796
.L1813:
.LBE859:
.LBE861:
	.loc 1 7149 0
	adrp	x2, .LANCHOR0
	adrp	x1, .LC88
	add	x2, x2, :lo12:.LANCHOR0
	mov	w0, 1
	add	x1, x1, :lo12:.LC88
	add	x2, x2, 296
	bl	dprint_linux_kernel
.LVL820:
	.loc 1 7150 0
	adrp	x0, g_event_report
	ldr	x4, [x0,#:lo12:g_event_report]
	cbz	x4, .L1791
	.loc 1 7150 0 is_stmt 0 discriminator 1
	ldr	w0, [x19,240]
	mov	w1, 111
	mov	x2, 0
	mov	w3, 0
	blr	x4
.LVL821:
.L1791:
	.loc 1 7152 0 is_stmt 1
	ldr	w0, [x21,84]
	cbnz	w0, .L1790
	b	.L1792
.L1798:
	.loc 1 7175 0
	mov	w0, -1
	b	.L1786
.L1810:
	.loc 1 7161 0
	adrp	x2, .LANCHOR0
	adrp	x1, .LC89
	add	x2, x2, :lo12:.LANCHOR0
	add	x1, x1, :lo12:.LC89
	add	x2, x2, 296
	mov	w0, 1
	bl	dprint_linux_kernel
.LVL822:
	.loc 1 7162 0
	ldr	w0, [x19,240]
	mov	w2, 0
	ldr	w1, [x20,32]
	bl	FSP_SetDisplay
.LVL823:
	.loc 1 7163 0
	mov	w0, -1
	b	.L1786
.LVL824:
.L1808:
	.loc 1 7142 0
	adrp	x2, .LANCHOR0
	adrp	x1, .LC87
	add	x2, x2, :lo12:.LANCHOR0
	mov	w0, 0
.LVL825:
	add	x1, x1, :lo12:.LC87
	add	x2, x2, 296
	bl	dprint_linux_kernel
.LVL826:
	.loc 1 7143 0
	mov	w0, -1
	b	.L1786
.L1812:
	.loc 1 7179 0
	bl	__stack_chk_fail
.LVL827:
	.cfi_endproc
.LFE2402:
	.size	HEVC_OutputCurrPic, .-HEVC_OutputCurrPic
	.align	2
	.global	HEVC_FirstFrameFastOut
	.type	HEVC_FirstFrameFastOut, %function
HEVC_FirstFrameFastOut:
.LFB2403:
	.loc 1 7192 0
	.cfi_startproc
.LVL828:
	stp	x29, x30, [sp, -32]!
	.cfi_def_cfa_offset 32
	.cfi_offset 29, -32
	.cfi_offset 30, -24
	add	x29, sp, 0
	.cfi_def_cfa_register 29
	stp	x19, x20, [sp,16]
	.cfi_offset 19, -16
	.cfi_offset 20, -8
	.loc 1 7192 0
	mov	x19, x0
	.loc 1 7196 0
	bl	HEVC_OutputCurrPic
.LVL829:
	mov	w20, w0
.LVL830:
	.loc 1 7197 0
	cbnz	w0, .L1817
	.loc 1 7204 0
	add	x0, x19, 49152
	.loc 1 7205 0
	add	x2, x19, 57344
	.loc 1 7204 0
	mov	w4, 2
	.loc 1 7205 0
	mov	w1, 1
	.loc 1 7204 0
	ldr	x3, [x0,2416]
	str	w4, [x3,8]
	.loc 1 7205 0
	str	w1, [x2,2592]
	.loc 1 7206 0
	ldr	w2, [x0,2376]
	str	w2, [x19,208]
	.loc 1 7207 0
	ldr	x0, [x0,2416]
	strb	w1, [x0,2]
	.loc 1 7211 0
	mov	w0, w20
	ldp	x19, x20, [sp,16]
	.cfi_remember_state
	.cfi_restore 20
	.cfi_restore 19
.LVL831:
	ldp	x29, x30, [sp], 32
	.cfi_restore 30
	.cfi_restore 29
	.cfi_def_cfa 31, 0
	ret
.LVL832:
.L1817:
	.cfi_restore_state
.LBB864:
.LBB865:
	.loc 1 7199 0
	adrp	x2, .LANCHOR0
	adrp	x1, .LC91
	add	x2, x2, :lo12:.LANCHOR0
	add	x1, x1, :lo12:.LC91
	add	x2, x2, 320
	mov	w0, 1
.LVL833:
	bl	dprint_linux_kernel
.LVL834:
.LBE865:
.LBE864:
	.loc 1 7211 0
	mov	w0, w20
	ldp	x19, x20, [sp,16]
	.cfi_restore 19
	.cfi_restore 20
.LVL835:
	ldp	x29, x30, [sp], 32
	.cfi_restore 29
	.cfi_restore 30
	.cfi_def_cfa 31, 0
	ret
	.cfi_endproc
.LFE2403:
	.size	HEVC_FirstFrameFastOut, .-HEVC_FirstFrameFastOut
	.align	2
	.global	HEVC_CheckOutputImage
	.type	HEVC_CheckOutputImage, %function
HEVC_CheckOutputImage:
.LFB2420:
	.loc 1 8117 0
	.cfi_startproc
.LVL836:
	.loc 1 8119 0
	cmp	w1, 19
	bhi	.L1820
	.loc 1 8123 0
	uxtw	x1, w1
	lsl	x2, x1, 5
	sub	x1, x2, x1, lsl 3
.LVL837:
	add	x0, x0, x1, lsl 4
.LVL838:
	sub	x1, x0, x1
	add	x1, x1, 65536
	ldrb	w0, [x1,217]
	cmp	w0, wzr
	cset	w0, ne
	.loc 1 8133 0
	ret
.LVL839:
.L1820:
	.loc 1 8121 0
	mov	w0, -1
.LVL840:
	.loc 1 8133 0
	ret
	.cfi_endproc
.LFE2420:
	.size	HEVC_CheckOutputImage, .-HEVC_CheckOutputImage
	.align	2
	.global	HEVC_DECRecycleImage
	.type	HEVC_DECRecycleImage, %function
HEVC_DECRecycleImage:
.LFB2421:
	.loc 1 8145 0
	.cfi_startproc
.LVL841:
	stp	x29, x30, [sp, -48]!
	.cfi_def_cfa_offset 48
	.cfi_offset 29, -48
	.cfi_offset 30, -40
	add	x29, sp, 0
	.cfi_def_cfa_register 29
	stp	x21, x22, [sp,32]
	stp	x19, x20, [sp,16]
	.cfi_offset 21, -16
	.cfi_offset 22, -8
	.cfi_offset 19, -32
	.cfi_offset 20, -24
	.loc 1 8145 0
	mov	x21, x0
	mov	w22, w1
	.loc 1 8150 0
	ldr	w0, [x0,240]
.LVL842:
	bl	FSP_GetLogicFs
.LVL843:
	.loc 1 8151 0
	cbz	x0, .L1826
	.loc 1 8154 0
	ldrsb	w1, [x0,1]
	add	x19, x0, 256
	add	x20, x0, 288
	cbz	w1, .L1832
.L1829:
	.loc 1 8163 0
	ldr	x2, [x19]
	.loc 1 8165 0
	mov	x1, x2
	.loc 1 8163 0
	cbz	x2, .L1824
	.loc 1 8165 0
	ldr	w0, [x21,240]
.LVL844:
	bl	FreeUsdByDec
.LVL845:
	.loc 1 8166 0
	str	xzr, [x19]
.LVL846:
.L1824:
	add	x19, x19, 8
	.loc 1 8161 0 discriminator 1
	cmp	x19, x20
	bne	.L1829
	.loc 1 8171 0
	ldr	w0, [x21,240]
.LVL847:
	mov	w1, w22
	mov	w2, 0
	bl	FSP_SetDisplay
.LVL848:
	.loc 1 8172 0
	mov	w0, 0
.L1822:
	.loc 1 8176 0
	ldp	x19, x20, [sp,16]
	.cfi_remember_state
	.cfi_restore 20
	.cfi_restore 19
	ldp	x21, x22, [sp,32]
	.cfi_restore 22
	.cfi_restore 21
.LVL849:
	ldp	x29, x30, [sp], 48
	.cfi_restore 30
	.cfi_restore 29
	.cfi_def_cfa 31, 0
	ret
.LVL850:
.L1832:
	.cfi_restore_state
.LBB868:
.LBB869:
	.loc 1 8156 0
	adrp	x1, .LC92
	mov	w0, 1
.LVL851:
	add	x1, x1, :lo12:.LC92
	bl	dprint_linux_kernel
.LVL852:
	mov	w0, -1
	b	.L1822
.LVL853:
.L1826:
.LBE869:
.LBE868:
	.loc 1 8175 0
	mov	w0, -1
.LVL854:
	b	.L1822
	.cfi_endproc
.LFE2421:
	.size	HEVC_DECRecycleImage, .-HEVC_DECRecycleImage
	.align	2
	.global	HEVC_ArrangeVahbMem
	.type	HEVC_ArrangeVahbMem, %function
HEVC_ArrangeVahbMem:
.LFB2422:
	.loc 1 8180 0
	.cfi_startproc
.LVL855:
	stp	x29, x30, [sp, -80]!
	.cfi_def_cfa_offset 80
	.cfi_offset 29, -80
	.cfi_offset 30, -72
	add	x29, sp, 0
	.cfi_def_cfa_register 29
	stp	x19, x20, [sp,16]
	.cfi_offset 19, -64
	.cfi_offset 20, -56
	.loc 1 8180 0
	mov	x19, x0
	adrp	x20, __stack_chk_guard
	.loc 1 8189 0
	ldr	x0, [x0,2336]
.LVL856:
	.loc 1 8184 0
	stp	xzr, xzr, [x29,48]
	.loc 1 8180 0
	ldr	x3, [x20,#:lo12:__stack_chk_guard]
.LVL857:
	.loc 1 8189 0
	ldr	w0, [x0,28]
	.loc 1 8180 0
	str	x3, [x29,72]
	.loc 1 8185 0
	str	w1, [x29,52]
	.loc 1 8189 0
	cmp	w0, 24
	.loc 1 8186 0
	str	w2, [x29,56]
	.loc 1 8187 0
	str	w1, [x29,60]
	.loc 1 8188 0
	str	w2, [x29,64]
	.loc 1 8189 0
	beq	.L1834
	.loc 1 8189 0 is_stmt 0 discriminator 1
	ldr	w0, [x19,2672]
	.loc 1 8191 0 is_stmt 1 discriminator 1
	sxtb	w6, w6
.LVL858:
	.loc 1 8189 0 discriminator 1
	strb	w0, [x29,49]
	.loc 1 8190 0
	mov	w0, 5
	strb	w0, [x29,50]
.L1837:
	.loc 1 8194 0
	ldr	w0, [x19,240]
	add	x1, x29, 48
.LVL859:
	.loc 1 8191 0 discriminator 4
	strb	w6, [x29,51]
	.loc 1 8194 0
	bl	FSP_ConfigInstance
.LVL860:
	cbnz	w0, .L1835
	.loc 1 8196 0
	ldr	x2, [x19,2336]
	add	x3, x29, 44
	ldr	w0, [x19,240]
	ldr	w1, [x2,20]
	ldr	w2, [x2,24]
	bl	FSP_PartitionFsMemory
.LVL861:
	.loc 1 8209 0
	cmp	w0, wzr
	mov	w0, -20
	csinc	w0, w0, wzr, ne
.L1836:
	.loc 1 8210 0
	ldr	x2, [x29,72]
	ldr	x1, [x20,#:lo12:__stack_chk_guard]
	cmp	x2, x1
	bne	.L1842
	ldp	x19, x20, [sp,16]
	.cfi_remember_state
	.cfi_restore 20
	.cfi_restore 19
.LVL862:
	ldp	x29, x30, [sp], 80
	.cfi_restore 30
	.cfi_restore 29
	.cfi_def_cfa 31, 0
	ret
.LVL863:
.L1834:
	.cfi_restore_state
	.loc 1 8190 0
	mov	w0, 5
	.loc 1 8191 0 discriminator 2
	mov	w6, 1
.LVL864:
	.loc 1 8190 0
	strb	w0, [x29,50]
	b	.L1837
.LVL865:
.L1835:
	.loc 1 8205 0
	adrp	x1, .LC93
	mov	w0, 1
	add	x1, x1, :lo12:.LC93
	bl	dprint_linux_kernel
.LVL866:
	.loc 1 8206 0
	mov	w0, -20
	b	.L1836
.L1842:
	.loc 1 8210 0
	bl	__stack_chk_fail
.LVL867:
	.cfi_endproc
.LFE2422:
	.size	HEVC_ArrangeVahbMem, .-HEVC_ArrangeVahbMem
	.align	2
	.global	HEVC_AllocFrameStore
	.type	HEVC_AllocFrameStore, %function
HEVC_AllocFrameStore:
.LFB2423:
	.loc 1 8226 0
	.cfi_startproc
.LVL868:
	stp	x29, x30, [sp, -48]!
	.cfi_def_cfa_offset 48
	.cfi_offset 29, -48
	.cfi_offset 30, -40
	.loc 1 8238 0
	mov	x2, 0
	.loc 1 8226 0
	add	x29, sp, 0
	.cfi_def_cfa_register 29
	stp	x21, x22, [sp,32]
	.cfi_offset 21, -16
	.cfi_offset 22, -8
	.loc 1 8235 0
	add	x21, x0, 49152
	.loc 1 8226 0
	stp	x19, x20, [sp,16]
	.cfi_offset 19, -32
	.cfi_offset 20, -24
	.loc 1 8226 0
	mov	x20, x0
	add	x0, x0, 65536
.LVL869:
	add	x0, x0, 216
	.loc 1 8235 0
	strb	wzr, [x21,2369]
.LVL870:
.L1846:
	.loc 1 8240 0
	ldr	w1, [x0,4]
	cbnz	w1, .L1844
.LBB870:
.LBB871:
	.loc 1 10113 0
	cbz	x0, .L1852
	.loc 1 10118 0 discriminator 1
	ldr	w1, [x20,2676]
	cbz	w1, .L1869
	.loc 1 10120 0
	ldr	x3, [x20,2696]
	cmp	x3, x0
	beq	.L1844
	.loc 1 10118 0 discriminator 1
	cmp	w1, 1
	bls	.L1869
	.loc 1 10120 0
	ldr	x3, [x20,2704]
	cmp	x3, x0
	beq	.L1844
	.loc 1 10118 0 discriminator 1
	cmp	w1, 2
	beq	.L1869
	.loc 1 10120 0
	ldr	x3, [x20,2712]
	cmp	x3, x0
	beq	.L1844
	.loc 1 10118 0 discriminator 1
	cmp	w1, 3
	beq	.L1869
	.loc 1 10120 0
	ldr	x3, [x20,2720]
	cmp	x3, x0
	beq	.L1844
	.loc 1 10118 0 discriminator 1
	cmp	w1, 4
	beq	.L1869
	.loc 1 10120 0
	ldr	x3, [x20,2728]
	cmp	x3, x0
	beq	.L1844
	.loc 1 10118 0 discriminator 1
	cmp	w1, 5
	beq	.L1869
	.loc 1 10120 0
	ldr	x3, [x20,2736]
	cmp	x3, x0
	beq	.L1844
	.loc 1 10118 0 discriminator 1
	cmp	w1, 6
	beq	.L1869
	.loc 1 10120 0
	ldr	x3, [x20,2744]
	cmp	x3, x0
	beq	.L1844
	.loc 1 10118 0 discriminator 1
	cmp	w1, 7
	beq	.L1869
	.loc 1 10120 0
	ldr	x3, [x20,2752]
	cmp	x3, x0
	beq	.L1844
	.loc 1 10118 0 discriminator 1
	cmp	w1, 8
	beq	.L1869
	.loc 1 10120 0
	ldr	x3, [x20,2760]
	cmp	x3, x0
	beq	.L1844
	.loc 1 10118 0 discriminator 1
	cmp	w1, 9
	beq	.L1869
	.loc 1 10120 0
	ldr	x3, [x20,2768]
	cmp	x3, x0
	beq	.L1844
	.loc 1 10118 0 discriminator 1
	cmp	w1, 10
	beq	.L1869
	.loc 1 10120 0
	ldr	x3, [x20,2776]
	cmp	x3, x0
	beq	.L1844
	.loc 1 10118 0 discriminator 1
	cmp	w1, 11
	beq	.L1869
	.loc 1 10120 0
	ldr	x3, [x20,2784]
	cmp	x3, x0
	beq	.L1844
	.loc 1 10118 0 discriminator 1
	cmp	w1, 12
	beq	.L1869
	.loc 1 10120 0
	ldr	x3, [x20,2792]
	cmp	x3, x0
	beq	.L1844
	.loc 1 10118 0 discriminator 1
	cmp	w1, 13
	beq	.L1869
	.loc 1 10120 0
	ldr	x3, [x20,2800]
	cmp	x3, x0
	beq	.L1844
	.loc 1 10118 0 discriminator 1
	cmp	w1, 14
	beq	.L1869
	.loc 1 10120 0
	ldr	x3, [x20,2808]
	cmp	x0, x3
	beq	.L1844
	.loc 1 10118 0 discriminator 1
	cmp	w1, 15
	beq	.L1869
	.loc 1 10120 0
	ldr	x3, [x20,2816]
	cmp	x0, x3
	beq	.L1844
	.loc 1 10118 0 discriminator 1
	cmp	w1, 16
	beq	.L1869
	.loc 1 10120 0
	ldr	x1, [x20,2824]
	cmp	x0, x1
	beq	.L1844
.L1869:
	.loc 1 10118 0 discriminator 1
	mov	x19, x0
.L1845:
.LBE871:
.LBE870:
	.loc 1 8247 0
	lsl	x1, x2, 5
	.loc 1 8244 0
	mov	w0, 101
	.loc 1 8247 0
	sub	x1, x1, x2, lsl 3
	.loc 1 8245 0
	mov	w2, 1
.LVL871:
	.loc 1 8244 0
	str	w0, [x21,2408]
	.loc 1 8247 0
	add	x0, x21, 2424
	add	x22, x20, x1, lsl 4
	.loc 1 8245 0
	strb	w2, [x21,2369]
	.loc 1 8247 0
	sub	x22, x22, x1
	mov	x2, 280
	add	x22, x22, 65536
	add	x1, x22, 296
	bl	memcpy
.LVL872:
	.loc 1 8250 0
	str	x19, [x21,2416]
	.loc 1 8248 0
	str	wzr, [x21,2508]
	.loc 1 8251 0
	str	wzr, [x22,236]
	.loc 1 8252 0
	strb	wzr, [x22,218]
	.loc 1 8253 0
	strb	wzr, [x19]
	.loc 1 8254 0
	ldr	x0, [x21,2416]
	str	wzr, [x0,56]
	.loc 1 8255 0
	ldr	x0, [x21,2416]
	str	wzr, [x0,60]
	.loc 1 8256 0
	ldr	x0, [x21,2416]
	str	wzr, [x0,8]
	.loc 1 8261 0
	ldrb	w1, [x21,2369]
	cmp	w1, 1
	bne	.L1850
	.loc 1 8270 0
	ldr	w0, [x20,240]
	bl	FSP_NewLogicFs
.LVL873:
	mov	w22, w0
.LVL874:
	.loc 1 8271 0
	ldr	w0, [x20,240]
	mov	w1, w22
	bl	FSP_GetLogicFs
.LVL875:
	mov	x19, x0
.LVL876:
	.loc 1 8272 0
	cbz	x0, .L1848
	tbnz	w22, #31, .L1848
	.loc 1 8274 0
	ldr	x0, [x20,2336]
	add	x1, x19, 8
	ldr	w0, [x0,28]
	cmp	w0, 25
	bne	.L1849
	.loc 1 8278 0
	ldr	x7, [x20,27944]
	.loc 1 8279 0
	ldr	w0, [x1,76]
	.loc 1 8284 0
	ldr	w2, [x1,136]
	.loc 1 8278 0
	ldr	w6, [x7,76]
	.loc 1 8283 0
	ldr	w4, [x1,168]
	.loc 1 8286 0
	ldr	w3, [x1,176]
.LVL877:
	.loc 1 8279 0
	mul	w5, w0, w6
.LVL878:
	.loc 1 8280 0
	ldr	w7, [x7,72]
	.loc 1 8284 0
	add	w2, w5, w2
	.loc 1 8283 0
	add	w4, w5, w4
	.loc 1 8285 0
	add	w0, w2, w0
	.loc 1 8286 0
	add	w3, w5, w3
	.loc 1 8280 0
	str	w7, [x1,48]
	.loc 1 8281 0
	str	w6, [x1,52]
	.loc 1 8283 0
	str	w4, [x1,172]
	.loc 1 8284 0
	str	w2, [x1,140]
	.loc 1 8285 0
	str	w0, [x1,148]
	.loc 1 8286 0
	str	w3, [x1,180]
.L1849:
	.loc 1 8289 0
	ldr	x0, [x21,2416]
	mov	x2, 280
	add	x0, x0, 80
	bl	memcpy
.LVL879:
	.loc 1 8290 0
	ldr	x20, [x21,2416]
.LVL880:
	add	x0, x21, 2424
	mov	x2, 280
	add	x1, x20, 80
	bl	memcpy
.LVL881:
	.loc 1 8292 0
	str	w22, [x20,32]
	.loc 1 8303 0
	mov	w0, 0
	.loc 1 8293 0
	ldrsb	w1, [x19,4]
	str	w1, [x21,2404]
	.loc 1 8304 0
	ldp	x19, x20, [sp,16]
	.cfi_remember_state
	.cfi_restore 19
	.cfi_restore 20
.LVL882:
	ldp	x21, x22, [sp,32]
	.cfi_restore 21
	.cfi_restore 22
.LVL883:
	ldp	x29, x30, [sp], 48
	.cfi_restore 29
	.cfi_restore 30
	.cfi_def_cfa 31, 0
	ret
.LVL884:
.L1844:
	.cfi_restore_state
	.loc 1 8238 0 discriminator 2
	add	w2, w2, 1
.LVL885:
	add	x0, x0, 360
.LVL886:
	.loc 1 8238 0 is_stmt 0 discriminator 1
	cmp	w2, 20
	bne	.L1846
.L1850:
	.loc 1 8263 0 is_stmt 1
	adrp	x1, .LC94
	mov	w0, 0
	add	x1, x1, :lo12:.LC94
	bl	dprint_linux_kernel
.LVL887:
	.loc 1 8264 0
	mov	w0, -4
.LVL888:
.L1878:
	.loc 1 8304 0
	ldp	x19, x20, [sp,16]
	.cfi_remember_state
	.cfi_restore 20
	.cfi_restore 19
.LVL889:
	ldp	x21, x22, [sp,32]
	.cfi_restore 22
	.cfi_restore 21
.LVL890:
	ldp	x29, x30, [sp], 48
	.cfi_restore 30
	.cfi_restore 29
	.cfi_def_cfa 31, 0
	ret
.LVL891:
.L1852:
	.cfi_restore_state
.LBB873:
.LBB872:
	.loc 1 10113 0
	mov	x19, 0
	b	.L1845
.LVL892:
.L1848:
.LBE872:
.LBE873:
	.loc 1 8298 0
	adrp	x1, .LC95
	.loc 1 8297 0
	strb	wzr, [x21,2369]
	.loc 1 8298 0
	mov	w0, 0
	add	x1, x1, :lo12:.LC95
	bl	dprint_linux_kernel
.LVL893:
	.loc 1 8300 0
	mov	w0, -4
	b	.L1878
	.cfi_endproc
.LFE2423:
	.size	HEVC_AllocFrameStore, .-HEVC_AllocFrameStore
	.align	2
	.global	HEVC_IsVoFinish
	.type	HEVC_IsVoFinish, %function
HEVC_IsVoFinish:
.LFB2424:
	.loc 1 8308 0
	.cfi_startproc
.LVL894:
	stp	x29, x30, [sp, -16]!
	.cfi_def_cfa_offset 16
	.cfi_offset 29, -16
	.cfi_offset 30, -8
	.loc 1 8312 0
	adrp	x1, .LC96
	mov	w0, 1
.LVL895:
	.loc 1 8308 0
	add	x29, sp, 0
	.cfi_def_cfa_register 29
	.loc 1 8312 0
	add	x1, x1, :lo12:.LC96
	.loc 1 8308 0
	.loc 1 8312 0
	bl	dprint_linux_kernel
.LVL896:
	.loc 1 8331 0
	mov	w0, -1
	ldp	x29, x30, [sp], 16
	.cfi_restore 30
	.cfi_restore 29
	.cfi_def_cfa 31, 0
	ret
	.cfi_endproc
.LFE2424:
	.size	HEVC_IsVoFinish, .-HEVC_IsVoFinish
	.align	2
	.global	HEVC_GetBackPicFromVOQueue
	.type	HEVC_GetBackPicFromVOQueue, %function
HEVC_GetBackPicFromVOQueue:
.LFB2425:
	.loc 1 8334 0
	.cfi_startproc
.LVL897:
	stp	x29, x30, [sp, -64]!
	.cfi_def_cfa_offset 64
	.cfi_offset 29, -64
	.cfi_offset 30, -56
	add	x29, sp, 0
	.cfi_def_cfa_register 29
	stp	x21, x22, [sp,32]
	.cfi_offset 21, -32
	.cfi_offset 22, -24
	mov	x22, x0
	str	x23, [sp,48]
	stp	x19, x20, [sp,16]
	.cfi_offset 23, -16
	.cfi_offset 19, -48
	.cfi_offset 20, -40
	.loc 1 8339 0
	add	x0, x0, 57344
.LVL898:
	add	x20, x22, 65536
	add	x23, x22, 69632
	add	x0, x0, 1976
	add	x20, x20, 217
	add	x23, x23, 3321
	bl	ResetVoQueue
.LVL899:
.L1884:
	.loc 1 8344 0
	strb	wzr, [x20]
	add	x19, x20, 327
	.loc 1 8345 0
	str	wzr, [x20,3]
	add	x21, x20, 359
.L1883:
	.loc 1 8348 0
	ldr	x0, [x19]
	.loc 1 8350 0
	mov	x1, x0
	.loc 1 8348 0
	cbz	x0, .L1882
	.loc 1 8350 0
	ldr	w0, [x22,240]
	bl	FreeUsdByDec
.LVL900:
	.loc 1 8351 0
	str	xzr, [x19]
.L1882:
	add	x19, x19, 8
	.loc 1 8346 0 discriminator 1
	cmp	x19, x21
	bne	.L1883
	add	x20, x20, 360
	.loc 1 8342 0 discriminator 1
	cmp	x20, x23
	bne	.L1884
	.loc 1 8357 0 discriminator 1
	ldr	w1, [x22,176]
	cbz	w1, .L1881
	sub	w1, w1, #1
	add	x0, x22, 2112
	add	x1, x1, 529
	add	x22, x22, x1, lsl 2
.LVL901:
.L1886:
	.loc 1 8359 0
	str	wzr, [x0],4
	.loc 1 8357 0 discriminator 1
	cmp	x0, x22
	bne	.L1886
.LVL902:
.L1881:
	.loc 1 8363 0
	ldp	x19, x20, [sp,16]
	.cfi_restore 20
	.cfi_restore 19
	ldp	x21, x22, [sp,32]
	.cfi_restore 22
	.cfi_restore 21
.LVL903:
	ldr	x23, [sp,48]
	.cfi_restore 23
	ldp	x29, x30, [sp], 64
	.cfi_restore 30
	.cfi_restore 29
	.cfi_def_cfa 31, 0
	ret
	.cfi_endproc
.LFE2425:
	.size	HEVC_GetBackPicFromVOQueue, .-HEVC_GetBackPicFromVOQueue
	.align	2
	.global	HEVC_RemoveFrameStoreOutDPB
	.type	HEVC_RemoveFrameStoreOutDPB, %function
HEVC_RemoveFrameStoreOutDPB:
.LFB2427:
	.loc 1 8434 0
	.cfi_startproc
.LVL904:
	stp	x29, x30, [sp, -48]!
	.cfi_def_cfa_offset 48
	.cfi_offset 29, -48
	.cfi_offset 30, -40
	add	x29, sp, 0
	.cfi_def_cfa_register 29
	stp	x21, x22, [sp,32]
	.cfi_offset 21, -16
	.cfi_offset 22, -8
	uxtw	x21, w1
	stp	x19, x20, [sp,16]
	.cfi_offset 19, -32
	.cfi_offset 20, -24
	add	x22, x0, x21, lsl 3
	.loc 1 8434 0
	mov	x19, x0
	mov	x20, x21
	.loc 1 8438 0
	ldr	x0, [x22,2696]
.LVL905:
	str	wzr, [x0,4]
	.loc 1 8440 0
	ldr	x1, [x22,2696]
.LVL906:
	ldr	w0, [x19,240]
	ldr	w1, [x1,32]
	bl	FSP_GetLogicFs
.LVL907:
	.loc 1 8441 0
	cbz	x0, .L1895
	.loc 1 8443 0
	ldrsb	w0, [x0,1]
.LVL908:
	cmp	w0, 3
	beq	.L1896
	.loc 1 8445 0
	ldr	x1, [x22,2696]
	mov	w2, 0
	ldr	w0, [x19,240]
	ldr	w1, [x1,32]
	bl	FSP_SetDisplay
.LVL909:
.L1896:
	.loc 1 8447 0
	ldr	x1, [x22,2696]
	mov	w2, 0
	ldr	w0, [x19,240]
	ldr	w1, [x1,32]
	bl	FSP_SetRef
.LVL910:
.L1895:
	.loc 1 8451 0 discriminator 1
	ldr	w0, [x19,2676]
.LVL911:
	sub	w0, w0, #1
.LVL912:
	cmp	w20, w0
	bhi	.L1898
	.loc 1 8453 0
	add	w1, w20, 1
.LVL913:
	add	x21, x19, x21, lsl 3
.LVL914:
	.loc 1 8451 0 discriminator 1
	cmp	w1, w0
	.loc 1 8453 0
	add	x1, x1, 336
	add	x1, x19, x1, lsl 3
	ldr	x2, [x1,8]
	str	x2, [x21,2696]
	.loc 1 8451 0 discriminator 1
	bhi	.L1898
	.loc 1 8453 0
	add	w3, w20, 2
.LVL915:
	.loc 1 8451 0 discriminator 1
	cmp	w3, w0
	.loc 1 8453 0
	add	x3, x3, 336
.LVL916:
	add	x3, x19, x3, lsl 3
	ldr	x2, [x3,8]
	str	x2, [x1,8]
	.loc 1 8451 0 discriminator 1
	bhi	.L1898
	.loc 1 8453 0
	add	w2, w20, 3
.LVL917:
	.loc 1 8451 0 discriminator 1
	cmp	w0, w2
	.loc 1 8453 0
	add	x2, x2, 336
.LVL918:
	add	x2, x19, x2, lsl 3
	ldr	x1, [x2,8]
	str	x1, [x3,8]
	.loc 1 8451 0 discriminator 1
	bcc	.L1898
	.loc 1 8453 0
	add	w1, w20, 4
.LVL919:
	.loc 1 8451 0 discriminator 1
	cmp	w0, w1
	.loc 1 8453 0
	add	x1, x1, 336
.LVL920:
	add	x1, x19, x1, lsl 3
	ldr	x3, [x1,8]
	str	x3, [x2,8]
	.loc 1 8451 0 discriminator 1
	bcc	.L1898
	.loc 1 8453 0
	add	w2, w20, 5
.LVL921:
	.loc 1 8451 0 discriminator 1
	cmp	w0, w2
	.loc 1 8453 0
	add	x2, x2, 336
.LVL922:
	add	x2, x19, x2, lsl 3
	ldr	x3, [x2,8]
	str	x3, [x1,8]
	.loc 1 8451 0 discriminator 1
	bcc	.L1898
	.loc 1 8453 0
	add	w1, w20, 6
.LVL923:
	.loc 1 8451 0 discriminator 1
	cmp	w0, w1
	.loc 1 8453 0
	add	x1, x1, 336
.LVL924:
	add	x1, x19, x1, lsl 3
	ldr	x3, [x1,8]
	str	x3, [x2,8]
	.loc 1 8451 0 discriminator 1
	bcc	.L1898
	.loc 1 8453 0
	add	w2, w20, 7
.LVL925:
	.loc 1 8451 0 discriminator 1
	cmp	w0, w2
	.loc 1 8453 0
	add	x2, x2, 336
.LVL926:
	add	x2, x19, x2, lsl 3
	ldr	x3, [x2,8]
	str	x3, [x1,8]
	.loc 1 8451 0 discriminator 1
	bcc	.L1898
	.loc 1 8453 0
	add	w1, w20, 8
.LVL927:
	.loc 1 8451 0 discriminator 1
	cmp	w0, w1
	.loc 1 8453 0
	add	x1, x1, 336
.LVL928:
	add	x1, x19, x1, lsl 3
	ldr	x3, [x1,8]
	str	x3, [x2,8]
	.loc 1 8451 0 discriminator 1
	bcc	.L1898
	.loc 1 8453 0
	add	w2, w20, 9
.LVL929:
	.loc 1 8451 0 discriminator 1
	cmp	w0, w2
	.loc 1 8453 0
	add	x3, x19, x2, lsl 3
	ldr	x3, [x3,2696]
	str	x3, [x1,8]
	.loc 1 8451 0 discriminator 1
	bcc	.L1898
.LVL930:
	.loc 1 8453 0
	add	w1, w20, 10
	add	x2, x19, x2, lsl 3
	.loc 1 8451 0 discriminator 1
	cmp	w0, w1
	.loc 1 8453 0
	add	x1, x1, 336
	add	x1, x19, x1, lsl 3
	ldr	x3, [x1,8]
	str	x3, [x2,2696]
	.loc 1 8451 0 discriminator 1
	bcc	.L1898
	.loc 1 8453 0
	add	w2, w20, 11
.LVL931:
	.loc 1 8451 0 discriminator 1
	cmp	w0, w2
	.loc 1 8453 0
	add	x2, x2, 336
.LVL932:
	add	x2, x19, x2, lsl 3
	ldr	x3, [x2,8]
	str	x3, [x1,8]
	.loc 1 8451 0 discriminator 1
	bcc	.L1898
	.loc 1 8453 0
	add	w1, w20, 12
.LVL933:
	.loc 1 8451 0 discriminator 1
	cmp	w0, w1
	.loc 1 8453 0
	add	x1, x1, 336
.LVL934:
	add	x1, x19, x1, lsl 3
	ldr	x3, [x1,8]
	str	x3, [x2,8]
	.loc 1 8451 0 discriminator 1
	bcc	.L1898
	.loc 1 8453 0
	add	w2, w20, 13
.LVL935:
	.loc 1 8451 0 discriminator 1
	cmp	w0, w2
	.loc 1 8453 0
	add	x2, x2, 336
.LVL936:
	add	x2, x19, x2, lsl 3
	ldr	x3, [x2,8]
	str	x3, [x1,8]
	.loc 1 8451 0 discriminator 1
	bcc	.L1898
	.loc 1 8453 0
	add	w1, w20, 14
.LVL937:
	.loc 1 8451 0 discriminator 1
	cmp	w0, w1
	.loc 1 8453 0
	add	x1, x1, 336
.LVL938:
	add	x1, x19, x1, lsl 3
	ldr	x3, [x1,8]
	str	x3, [x2,8]
	.loc 1 8451 0 discriminator 1
	bcc	.L1898
	.loc 1 8453 0
	add	w2, w20, 15
.LVL939:
	.loc 1 8451 0 discriminator 1
	cmp	w0, w2
	.loc 1 8453 0
	add	x2, x2, 336
.LVL940:
	add	x2, x19, x2, lsl 3
	ldr	x3, [x2,8]
	str	x3, [x1,8]
	.loc 1 8451 0 discriminator 1
	bcc	.L1898
	.loc 1 8453 0
	add	w1, w20, 16
.LVL941:
	.loc 1 8451 0 discriminator 1
	cmp	w0, w1
	.loc 1 8453 0
	add	x1, x1, 336
.LVL942:
	add	x1, x19, x1, lsl 3
	ldr	x3, [x1,8]
	str	x3, [x2,8]
	.loc 1 8451 0 discriminator 1
	bcc	.L1898
	.loc 1 8453 0
	add	w20, w20, 17
	add	x20, x19, x20, lsl 3
.LVL943:
	ldr	x2, [x20,2696]
	str	x2, [x1,8]
.LVL944:
.L1898:
	.loc 1 8455 0
	add	x1, x19, x0, uxtw 3
	str	xzr, [x1,2696]
	.loc 1 8456 0
	str	w0, [x19,2676]
	.loc 1 8459 0
	ldp	x19, x20, [sp,16]
	.cfi_restore 20
	.cfi_restore 19
.LVL945:
