	.cpu generic+fp+simd
	.file	"mpeg4.c"
	.text
.Ltext0:
	.cfi_sections	.debug_frame
#APP
	.irp	num,0,1,2,3,4,5,6,7,8,9,10,11,12,13,14,15,16,17,18,19,20,21,22,23,24,25,26,27,28,29,30
	.equ	.L__reg_num_x\num, \num
	.endr
	.equ	.L__reg_num_xzr, 31

	.macro	mrs_s, rt, sreg
	.inst	0xd5200000|(\sreg)|(.L__reg_num_\rt)
	.endm

	.macro	msr_s, sreg, rt
	.inst	0xd5000000|(\sreg)|(.L__reg_num_\rt)
	.endm

#NO_APP
	.align	2
	.global	log2bin
	.type	log2bin, %function
log2bin:
.LFB2315:
	.file 1 "/home/jenkins1/slave_49/workspace/CHICAGO_B100_chipset_component/opensource/component_code/vendor/huawei/extra/build/build_script/kirin_kernel_release/kernel/drivers/vcodec/hi_vcodec/vdec/vfmw/vfmw_v4.0/firmware/common/syntax/mpeg4.c"
	.loc 1 217 0
	.cfi_startproc
.LVL0:
	.loc 1 220 0
	cbz	w0, .L4
	mov	w1, 0
.LVL1:
.L3:
	add	w1, w1, 1
.LVL2:
	.loc 1 222 0
	lsr	w0, w0, 1
	sxth	w1, w1
.LVL3:
	.loc 1 220 0
	cbnz	w0, .L3
	mov	w0, w1
.LVL4:
	.loc 1 227 0
	ret
.LVL5:
.L4:
	.loc 1 220 0
	mov	w0, 0
.LVL6:
	.loc 1 227 0
	ret
	.cfi_endproc
.LFE2315:
	.size	log2bin, .-log2bin
	.align	2
	.global	bs_get_spritetrajectory
	.type	bs_get_spritetrajectory, %function
bs_get_spritetrajectory:
.LFB2316:
	.loc 1 230 0
	.cfi_startproc
.LVL7:
	stp	x29, x30, [sp, -48]!
	.cfi_def_cfa_offset 48
	.cfi_offset 29, -48
	.cfi_offset 30, -40
	add	x29, sp, 0
	.cfi_def_cfa_register 29
	stp	x21, x22, [sp,32]
	.cfi_offset 21, -16
	.cfi_offset 22, -8
	adrp	x22, .LANCHOR0
	mov	x21, x0
	stp	x19, x20, [sp,16]
	.cfi_offset 19, -32
	.cfi_offset 20, -24
	add	x19, x22, :lo12:.LANCHOR0
	.loc 1 232 0
	mov	w20, 0
.L10:
	.loc 1 234 0
	ldrb	w1, [x19,4]
	mov	x0, x21
	add	x19, x19, 8
	bl	BsShow
.LVL8:
	ldr	w1, [x19,-8]
	cmp	w0, w1
	beq	.L12
	.loc 1 232 0 discriminator 2
	add	w20, w20, 1
	.loc 1 232 0 is_stmt 0 discriminator 1
	cmp	w20, 12
	bne	.L10
	.loc 1 240 0 is_stmt 1
	mov	w0, -1
	.loc 1 241 0
	ldp	x19, x20, [sp,16]
	.cfi_remember_state
	.cfi_restore 20
	.cfi_restore 19
	ldp	x21, x22, [sp,32]
	.cfi_restore 22
	.cfi_restore 21
.LVL9:
	ldp	x29, x30, [sp], 48
	.cfi_restore 30
	.cfi_restore 29
	.cfi_def_cfa 31, 0
	ret
.LVL10:
.L12:
	.cfi_restore_state
	.loc 1 236 0
	add	x22, x22, :lo12:.LANCHOR0
	add	x22, x22, x20, uxtw 3
	ldrb	w1, [x22,4]
	mov	x0, x21
	bl	BsSkip
.LVL11:
	.loc 1 237 0
	mov	w0, w20
	.loc 1 241 0
	ldp	x19, x20, [sp,16]
	.cfi_restore 19
	.cfi_restore 20
	ldp	x21, x22, [sp,32]
	.cfi_restore 21
	.cfi_restore 22
.LVL12:
	ldp	x29, x30, [sp], 48
	.cfi_restore 29
	.cfi_restore 30
	.cfi_def_cfa 31, 0
	ret
	.cfi_endproc
.LFE2316:
	.size	bs_get_spritetrajectory, .-bs_get_spritetrajectory
	.align	2
	.global	MP4_GetGMCparam
	.type	MP4_GetGMCparam, %function
MP4_GetGMCparam:
.LFB2317:
	.loc 1 246 0
	.cfi_startproc
.LVL13:
	sub	sp, sp, #48
	.cfi_def_cfa_offset 48
	.loc 1 252 0
	mov	w9, 2
	.loc 1 253 0
	mov	w10, 3
	.loc 1 254 0
	mov	w3, 16
	.loc 1 246 0
	stp	x19, x20, [sp]
	stp	x21, x22, [sp,16]
	stp	x23, x24, [sp,32]
	.cfi_offset 19, -48
	.cfi_offset 20, -40
	.cfi_offset 21, -32
	.cfi_offset 22, -24
	.cfi_offset 23, -16
	.cfi_offset 24, -8
	.loc 1 255 0
	ldr	w6, [x0,708]
	.loc 1 252 0
	ldrb	w2, [x0,65]
	.loc 1 255 0
	ldr	w8, [x0,704]
	.loc 1 269 0
	lsl	w4, w6, 4
	str	w4, [x1,8]
	.loc 1 252 0
	lsl	w9, w9, w2
.LVL14:
	.loc 1 253 0
	sub	w10, w10, w2
.LVL15:
	.loc 1 282 0 discriminator 1
	cmp	w6, 1
	.loc 1 270 0
	ldr	w4, [x0,704]
	.loc 1 254 0
	sdiv	w12, w3, w9
.LVL16:
	.loc 1 270 0
	lsl	w5, w4, 4
	str	w5, [x1,12]
	.loc 1 271 0
	ldrb	w2, [x0,65]
	str	w2, [x1,4]
	.loc 1 272 0
	ldrb	w15, [x0,64]
	str	w15, [x1]
	.loc 1 275 0
	ldr	w13, [x0,680]
	.loc 1 276 0
	ldr	w11, [x0,684]
	.loc 1 277 0
	ldr	w19, [x0,688]
	.loc 1 278 0
	ldr	w24, [x0,692]
	.loc 1 279 0
	ldr	w21, [x0,696]
	.loc 1 280 0
	ldr	w18, [x0,700]
	.loc 1 282 0 discriminator 1
	ble	.L38
	mov	w3, 0
.LVL17:
	mov	w2, 1
.L15:
	.loc 1 282 0 is_stmt 0 discriminator 2
	add	w3, w3, 1
	.loc 1 282 0 discriminator 1
	lsl	w4, w2, w3
	cmp	w6, w4
	bgt	.L15
	lsl	w20, w4, 4
.L14:
	.loc 1 283 0 is_stmt 1 discriminator 1
	cmp	w8, 1
	ble	.L39
	mov	w2, 0
.LVL18:
	mov	w7, 1
.L17:
	.loc 1 283 0 is_stmt 0 discriminator 2
	add	w2, w2, 1
	.loc 1 283 0 discriminator 1
	lsl	w5, w7, w2
	cmp	w8, w5
	bgt	.L17
	lsl	w16, w5, 4
.L16:
	.loc 1 312 0 is_stmt 1
	ldrb	w0, [x0,12]
.LVL19:
	cmp	w0, 1
	beq	.L43
	.loc 1 325 0
	add	w0, w13, w6, lsl 1
	.loc 1 328 0
	add	w17, w11, w8, lsl 1
	.loc 1 323 0
	asr	w14, w9, 1
	.loc 1 326 0
	add	w24, w11, w24
	.loc 1 327 0
	add	w21, w13, w21
	.loc 1 325 0
	add	w0, w19, w0
	.loc 1 328 0
	add	w17, w18, w17
	.loc 1 323 0
	mul	w13, w13, w14
	.loc 1 324 0
	mul	w11, w11, w14
	.loc 1 325 0
	mul	w0, w14, w0
.LVL20:
	.loc 1 326 0
	mul	w24, w14, w24
.LVL21:
	.loc 1 327 0
	mul	w21, w14, w21
.LVL22:
	.loc 1 328 0
	mul	w17, w14, w17
.LVL23:
.L19:
	.loc 1 338 0
	neg	w7, w6, lsl 4
	sub	w14, w6, w4
	mul	w22, w12, w13
	madd	w7, w12, w0, w7
	.loc 1 338 0 is_stmt 0 discriminator 1
	asr	w23, w6, 1
	.loc 1 338 0
	mul	w0, w7, w4
.LVL24:
	madd	w0, w14, w22, w0
	cmp	w0, wzr
	ble	.L20
	.loc 1 338 0 discriminator 1
	add	w0, w0, w23
.L21:
	.loc 1 340 0 is_stmt 1
	mul	w24, w12, w24
.LVL25:
	mul	w19, w12, w11
	.loc 1 342 0
	mul	w21, w12, w21
.LVL26:
	.loc 1 340 0
	mul	w7, w24, w4
	.loc 1 342 0
	sub	w18, w8, w5
	.loc 1 340 0
	madd	w7, w14, w19, w7
	.loc 1 342 0
	mul	w21, w21, w5
	madd	w14, w22, w18, w21
	.loc 1 340 0 discriminator 1
	cmp	w7, wzr
	add	w21, w7, w23
	sub	w7, w7, w23
	csel	w7, w7, w21, le
	.loc 1 342 0
	cmp	w14, wzr
	.loc 1 338 0 discriminator 4
	sdiv	w0, w0, w6
	add	w0, w0, w20
	.loc 1 342 0 discriminator 1
	asr	w20, w8, 1
	.loc 1 340 0 discriminator 4
	sdiv	w6, w7, w6
	.loc 1 342 0
	ble	.L24
	.loc 1 342 0 is_stmt 0 discriminator 1
	add	w14, w14, w20
.L25:
	.loc 1 344 0 is_stmt 1
	neg	w7, w8, lsl 4
	madd	w7, w12, w17, w7
	mul	w7, w7, w5
	madd	w7, w19, w18, w7
	.loc 1 344 0 is_stmt 0 discriminator 1
	cmp	w7, wzr
	add	w17, w7, w20
.LVL27:
	sub	w7, w7, w20
	csel	w7, w7, w17, le
	.loc 1 346 0 is_stmt 1
	cmp	w15, 3
	bls	.L44
	ldr	w5, [x1,16]
	.loc 1 250 0
	mov	w11, 0
.LVL28:
	ldr	w8, [x1,32]
	mov	w3, 0
.LVL29:
	ldr	w7, [x1,36]
	ldr	w12, [x1,40]
.LVL30:
	ldr	w0, [x1,44]
	ldr	w19, [x1,20]
	ldr	w6, [x1,24]
	ldr	w16, [x1,28]
.L34:
	.loc 1 432 0
	lsl	w2, w9, w3
.LVL31:
	cmp	w2, w5
	beq	.L45
.LVL32:
.L35:
	.loc 1 455 0
	mov	w9, 16
.LVL33:
	sub	w3, w9, w3
.LVL34:
	.loc 1 456 0
	sub	w11, w9, w11
.LVL35:
	.loc 1 457 0
	lsl	w2, w8, w3
	.loc 1 458 0
	lsl	w4, w7, w3
	.loc 1 460 0
	lsl	w8, w0, w11
	.loc 1 459 0
	lsl	w7, w12, w11
	.loc 1 461 0
	lsl	w0, w5, w3
	.loc 1 462 0
	lsl	w19, w19, w3
	.loc 1 463 0
	lsl	w6, w6, w3
	.loc 1 464 0
	lsl	w16, w16, w3
	.loc 1 457 0
	str	w2, [x1,32]
	.loc 1 458 0
	str	w4, [x1,36]
	.loc 1 459 0
	str	w7, [x1,40]
	.loc 1 460 0
	str	w8, [x1,44]
	.loc 1 461 0
	str	w0, [x1,16]
	.loc 1 462 0
	str	w19, [x1,20]
	.loc 1 463 0
	str	w6, [x1,24]
	.loc 1 464 0
	str	w16, [x1,28]
.LVL36:
.L13:
	.loc 1 618 0
	ldp	x19, x20, [sp]
	.cfi_remember_state
	.cfi_restore 20
	.cfi_restore 19
	ldp	x21, x22, [sp,16]
	.cfi_restore 22
	.cfi_restore 21
.LVL37:
	ldp	x23, x24, [sp,32]
	.cfi_restore 24
	.cfi_restore 23
	add	sp, sp, 48
	.cfi_def_cfa_offset 0
	ret
.LVL38:
.L44:
	.cfi_restore_state
	.loc 1 346 0
	adrp	x17, .L30
	add	x17, x17, :lo12:.L30
	ldrb	w15, [x17,w15,uxtw]
	adr	x17, .Lrtx30
	add	x15, x17, w15, sxtb #2
	br	x15
.Lrtx30:
	.section	.rodata
	.align	0
	.align	2
.L30:
	.byte	(.L40 - .Lrtx30) / 4
	.byte	(.L31 - .Lrtx30) / 4
	.byte	(.L32 - .Lrtx30) / 4
	.byte	(.L33 - .Lrtx30) / 4
	.text
.L40:
	mov	w0, 0
	mov	w12, 0
.LVL39:
	mov	w7, 0
	mov	w8, 0
.L29:
	.loc 1 398 0
	mov	w3, 0
.LVL40:
	mov	w11, 0
.LVL41:
.L37:
	.loc 1 439 0
	asr	w12, w12, w11
	.loc 1 437 0
	asr	w2, w8, w3
.LVL42:
	.loc 1 440 0
	asr	w11, w0, w11
.LVL43:
	.loc 1 438 0
	asr	w4, w7, w3
	.loc 1 447 0
	mov	w0, 1
	.loc 1 437 0
	str	w2, [x1,32]
	.loc 1 438 0
	str	w4, [x1,36]
	.loc 1 439 0
	str	w12, [x1,40]
	.loc 1 440 0
	str	w11, [x1,44]
	.loc 1 441 0
	str	w9, [x1,16]
	.loc 1 442 0
	str	wzr, [x1,20]
	.loc 1 443 0
	str	wzr, [x1,24]
	.loc 1 444 0
	str	w9, [x1,28]
	.loc 1 447 0
	str	w0, [x1]
	b	.L13
.LVL44:
.L33:
	.loc 1 344 0 discriminator 4
	sdiv	w7, w7, w8
	.loc 1 400 0
	cmp	w2, w3
	.loc 1 411 0
	neg	w20, w12
	.loc 1 400 0
	csel	w18, w2, w3, le
.LVL45:
	.loc 1 402 0
	asr	w17, w5, w18
.LVL46:
	.loc 1 413 0
	lsl	w15, w4, 1
	.loc 1 411 0
	mul	w19, w20, w13
	.loc 1 416 0
	mul	w20, w20, w11
	.loc 1 344 0 discriminator 4
	add	w16, w7, w16
	.loc 1 401 0
	asr	w21, w4, w18
.LVL47:
	.loc 1 411 0
	add	w5, w0, w19
	.loc 1 416 0
	add	w6, w6, w20
	.loc 1 413 0
	mul	w7, w15, w17
	.loc 1 417 0
	add	w16, w16, w20
	.loc 1 403 0
	add	w2, w3, w2
.LVL48:
	.loc 1 342 0 discriminator 4
	sdiv	w14, w14, w8
	.loc 1 414 0
	neg	w4, w4, lsl 4
	.loc 1 411 0
	mul	w5, w5, w17
	.loc 1 412 0
	add	w19, w14, w19
	.loc 1 403 0
	add	w3, w2, w10
.LVL49:
	.loc 1 416 0
	mul	w6, w6, w17
	.loc 1 417 0
	mul	w16, w16, w21
	.loc 1 412 0
	mul	w19, w19, w21
	.loc 1 413 0
	mul	w7, w7, w12
	.loc 1 417 0
	add	w8, w6, w16
	.loc 1 412 0
	add	w12, w5, w19
.LVL50:
	.loc 1 403 0
	sub	w3, w3, w18
.LVL51:
	.loc 1 406 0
	mov	w0, 1
	.loc 1 414 0
	mul	w2, w4, w17
	.loc 1 418 0
	madd	w8, w7, w11, w8
	.loc 1 413 0
	madd	w12, w7, w13, w12
	.loc 1 415 0
	add	w10, w3, w0
.LVL52:
	.loc 1 406 0
	sub	w7, w3, #1
	lsl	w14, w0, w7
	.loc 1 415 0
	lsl	w10, w0, w10
	.loc 1 407 0
	lsl	w4, w11, w3
	.loc 1 403 0
	lsl	w0, w13, w3
	.loc 1 419 0
	add	w11, w2, w8
	.loc 1 414 0
	add	w12, w12, w2
	.loc 1 432 0
	lsl	w2, w9, w3
	.loc 1 406 0
	add	w8, w0, w14
	.loc 1 410 0
	add	w7, w14, w4
	.loc 1 420 0
	add	w0, w10, w11
	.loc 1 415 0
	add	w12, w12, w10
	.loc 1 403 0
	str	w8, [x1,32]
	.loc 1 407 0
	str	w7, [x1,36]
	.loc 1 432 0
	cmp	w2, w5
	.loc 1 411 0
	str	w12, [x1,40]
	.loc 1 427 0
	add	w11, w3, 2
.LVL53:
	.loc 1 416 0
	str	w0, [x1,44]
	.loc 1 421 0
	str	w5, [x1,16]
	.loc 1 422 0
	str	w19, [x1,20]
	.loc 1 423 0
	str	w6, [x1,24]
	.loc 1 424 0
	str	w16, [x1,28]
	.loc 1 432 0
	bne	.L35
.LVL54:
.L45:
	.loc 1 433 0
	cbnz	w19, .L35
	.loc 1 434 0
	cbnz	w6, .L35
	.loc 1 435 0
	cmp	w5, w16
	bne	.L35
	b	.L37
.LVL55:
.L32:
	.loc 1 381 0
	neg	w14, w12
	.loc 1 383 0
	lsl	w2, w4, 1
.LVL56:
	.loc 1 378 0
	sub	w19, w19, w6
	.loc 1 373 0
	add	w3, w3, w10
.LVL57:
	.loc 1 381 0
	madd	w5, w14, w13, w0
	.loc 1 386 0
	madd	w6, w14, w11, w6
	.loc 1 383 0
	mul	w7, w2, w12
	.loc 1 382 0
	add	w8, w19, w5
	.loc 1 387 0
	add	w0, w5, w6
	.loc 1 376 0
	mov	w2, 1
	.loc 1 384 0
	neg	w14, w4, lsl 4
	.loc 1 383 0
	madd	w12, w7, w13, w8
.LVL58:
	.loc 1 388 0
	madd	w4, w7, w11, w0
	.loc 1 376 0
	sub	w7, w3, #1
	.loc 1 385 0
	add	w0, w3, w2
	.loc 1 376 0
	lsl	w10, w2, w7
.LVL59:
	.loc 1 385 0
	lsl	w0, w2, w0
	.loc 1 373 0
	lsl	w8, w13, w3
	.loc 1 377 0
	lsl	w2, w11, w3
	.loc 1 384 0
	add	w12, w12, w14
	.loc 1 389 0
	add	w4, w14, w4
	.loc 1 385 0
	add	w12, w12, w0
	.loc 1 376 0
	add	w8, w8, w10
	.loc 1 380 0
	add	w7, w10, w2
	.loc 1 390 0
	add	w0, w0, w4
	.loc 1 373 0
	str	w8, [x1,32]
	.loc 1 397 0
	add	w11, w3, 2
.LVL60:
	.loc 1 377 0
	str	w7, [x1,36]
	.loc 1 398 0
	mov	w16, w5
	.loc 1 381 0
	str	w12, [x1,40]
	.loc 1 386 0
	str	w0, [x1,44]
	.loc 1 391 0
	str	w5, [x1,16]
	.loc 1 392 0
	str	w19, [x1,20]
	.loc 1 393 0
	str	w6, [x1,24]
	.loc 1 394 0
	str	w5, [x1,28]
	.loc 1 398 0
	b	.L34
.LVL61:
.L31:
	.loc 1 363 0
	and	w12, w13, 1
.LVL62:
	.loc 1 364 0
	and	w0, w11, 1
	.loc 1 363 0
	orr	w12, w12, w13, asr 1
	.loc 1 364 0
	orr	w0, w0, w11, asr 1
	.loc 1 371 0
	mov	w7, w11
	mov	w8, w13
	b	.L29
.LVL63:
.L43:
	.loc 1 316 0
	madd	w0, w9, w6, w13
	.loc 1 319 0
	madd	w17, w9, w8, w11
	.loc 1 316 0
	add	w0, w19, w0
.LVL64:
	.loc 1 317 0
	add	w24, w11, w24
.LVL65:
	.loc 1 318 0
	add	w21, w13, w21
.LVL66:
	.loc 1 319 0
	add	w17, w18, w17
.LVL67:
	b	.L19
.LVL68:
.L24:
	.loc 1 342 0 discriminator 2
	sub	w14, w14, w20
	b	.L25
.LVL69:
.L20:
	.loc 1 338 0 discriminator 2
	sub	w0, w0, w23
	b	.L21
.LVL70:
.L38:
	.loc 1 282 0 discriminator 1
	mov	w20, w3
	mov	w4, 1
	.loc 1 260 0
	mov	w3, 0
.LVL71:
	b	.L14
.L39:
	.loc 1 283 0 discriminator 1
	mov	w16, 16
	mov	w5, 1
	mov	w2, 0
.LVL72:
	b	.L16
	.cfi_endproc
.LFE2317:
	.size	MP4_GetGMCparam, .-MP4_GetGMCparam
	.align	2
	.global	Mp4_GetUserDataBuf
	.type	Mp4_GetUserDataBuf, %function
Mp4_GetUserDataBuf:
.LFB2318:
	.loc 1 637 0
	.cfi_startproc
.LVL73:
	stp	x29, x30, [sp, -32]!
	.cfi_def_cfa_offset 32
	.cfi_offset 29, -32
	.cfi_offset 30, -24
	add	x29, sp, 0
	.cfi_def_cfa_register 29
	.loc 1 638 0
	ldr	x3, [x1,w2,uxtw 3]
	.loc 1 637 0
	stp	x19, x20, [sp,16]
	.cfi_offset 19, -16
	.cfi_offset 20, -8
	.loc 1 638 0
	cbz	x3, .L51
.LVL74:
.L47:
	.loc 1 648 0
	mov	x0, x3
.LVL75:
	ldp	x19, x20, [sp,16]
	.cfi_remember_state
	.cfi_restore 20
	.cfi_restore 19
.LVL76:
	ldp	x29, x30, [sp], 32
	.cfi_restore 30
	.cfi_restore 29
	.cfi_def_cfa 31, 0
	ret
.LVL77:
.L51:
	.cfi_restore_state
	mov	w20, w2
	mov	x19, x1
	.loc 1 640 0
	bl	GetUsd
.LVL78:
	mov	x3, x0
	str	x0, [x19,w20,uxtw 3]
	.loc 1 641 0
	cbz	x0, .L47
	.loc 1 643 0
	add	w0, w20, 4
	str	w0, [x3,1040]
	ldr	x3, [x19,w20,uxtw 3]
	b	.L47
	.cfi_endproc
.LFE2318:
	.size	Mp4_GetUserDataBuf, .-Mp4_GetUserDataBuf
	.align	2
	.global	Mp4_ClearUsrData
	.type	Mp4_ClearUsrData, %function
Mp4_ClearUsrData:
.LFB2319:
	.loc 1 666 0
	.cfi_startproc
.LVL79:
	stp	x29, x30, [sp, -48]!
	.cfi_def_cfa_offset 48
	.cfi_offset 29, -48
	.cfi_offset 30, -40
	add	x29, sp, 0
	.cfi_def_cfa_register 29
	stp	x19, x20, [sp,16]
	str	x21, [sp,32]
	.cfi_offset 19, -32
	.cfi_offset 20, -24
	.cfi_offset 21, -16
	.loc 1 666 0
	mov	x20, x1
	mov	w21, w0
	mov	x19, 0
.L53:
	.loc 1 671 0
	ldr	x1, [x20,x19]
	mov	w0, w21
	bl	FreeUsdByDec
.LVL80:
	.loc 1 672 0
	str	xzr, [x20,x19]
	add	x19, x19, 8
	.loc 1 669 0 discriminator 1
	cmp	x19, 32
	bne	.L53
	.loc 1 674 0
	ldp	x19, x20, [sp,16]
	.cfi_restore 20
	.cfi_restore 19
.LVL81:
	ldr	x21, [sp,32]
	.cfi_restore 21
.LVL82:
	ldp	x29, x30, [sp], 48
	.cfi_restore 30
	.cfi_restore 29
	.cfi_def_cfa 31, 0
	ret
	.cfi_endproc
.LFE2319:
	.size	Mp4_ClearUsrData, .-Mp4_ClearUsrData
	.align	2
	.global	Mp4_Syntax_Init
	.type	Mp4_Syntax_Init, %function
Mp4_Syntax_Init:
.LFB2320:
	.loc 1 693 0
	.cfi_startproc
.LVL83:
	stp	x29, x30, [sp, -32]!
	.cfi_def_cfa_offset 32
	.cfi_offset 29, -32
	.cfi_offset 30, -24
	.loc 1 697 0
	mov	w1, 0
	mov	x2, 604
	.loc 1 693 0
	add	x29, sp, 0
	.cfi_def_cfa_register 29
	stp	x19, x20, [sp,16]
	.cfi_offset 19, -16
	.cfi_offset 20, -8
	.loc 1 693 0
	mov	x19, x0
	.loc 1 696 0
	add	x0, x0, 16384
.LVL84:
	add	x3, x0, 3608
	.loc 1 697 0
	add	x0, x0, 3632
	.loc 1 698 0
	add	x20, x19, 20480
	.loc 1 696 0
	str	xzr, [x3,16]
	stp	xzr, xzr, [x3]
	.loc 1 697 0
	bl	memset
.LVL85:
	.loc 1 698 0
	add	x0, x20, 744
	.loc 1 699 0
	mov	w1, 0
	mov	x2, 768
	.loc 1 698 0
	stp	xzr, xzr, [x0]
	stp	xzr, xzr, [x0,16]
	stp	xzr, xzr, [x0,32]
	str	xzr, [x19,21272]
	.loc 1 699 0
	add	x0, x20, 804
	.loc 1 698 0
	str	wzr, [x20,800]
	.loc 1 699 0
	bl	memset
.LVL86:
	.loc 1 700 0
	str	wzr, [x20,1572]
	.loc 1 703 0
	mov	w1, 1
	.loc 1 704 0
	mov	x0, 0
	.loc 1 703 0
	strb	w1, [x20,821]
	adrp	x4, .LANCHOR1
	.loc 1 704 0
	mov	w1, 1
	.loc 1 700 0
	strh	wzr, [x20,1576]
	strb	wzr, [x20,1578]
	.loc 1 704 0
	str	w1, [x20,2184]
.L56:
	.loc 1 707 0
	add	x2, x4, :lo12:.LANCHOR1
	add	x1, x19, x0
	ldr	x3, [x0,x2]
	add	x0, x0, 8
	str	x3, [x1,20104]
	cmp	x0, 256
	bne	.L56
	mov	x0, 0
.L57:
	.loc 1 711 0
	add	x1, x2, 256
	add	x3, x19, x0
	ldr	x1, [x0,x1]
	add	x0, x0, 8
	str	x1, [x3,20360]
	cmp	x0, 256
	bne	.L57
	.loc 1 713 0
	ldp	x19, x20, [sp,16]
	.cfi_restore 20
	.cfi_restore 19
.LVL87:
	ldp	x29, x30, [sp], 32
	.cfi_restore 30
	.cfi_restore 29
	.cfi_def_cfa 31, 0
	ret
	.cfi_endproc
.LFE2320:
	.size	Mp4_Syntax_Init, .-Mp4_Syntax_Init
	.align	2
	.global	Global_Data_Init
	.type	Global_Data_Init, %function
Global_Data_Init:
.LFB2321:
	.loc 1 732 0
	.cfi_startproc
.LVL88:
	stp	x29, x30, [sp, -32]!
	.cfi_def_cfa_offset 32
	.cfi_offset 29, -32
	.cfi_offset 30, -24
	add	x29, sp, 0
	.cfi_def_cfa_register 29
	stp	x19, x20, [sp,16]
	.cfi_offset 19, -16
	.cfi_offset 20, -8
	.loc 1 736 0
	add	x19, x0, 20480
	.loc 1 732 0
	mov	x20, x0
	.loc 1 736 0
	add	x2, x19, 1616
	.loc 1 737 0
	add	x1, x19, 1584
	.loc 1 736 0
	stp	xzr, xzr, [x2]
	stp	xzr, xzr, [x2,16]
	.loc 1 737 0
	stp	xzr, xzr, [x1]
	str	xzr, [x0,22080]
	.loc 1 740 0
	bl	Mp4_Syntax_Init
.LVL89:
	.loc 1 744 0
	str	xzr, [x20,22624]
	str	xzr, [x20,22632]
	.loc 1 760 0
	mov	w0, 0
	.loc 1 744 0
	str	xzr, [x20,22640]
	str	xzr, [x20,22648]
	.loc 1 747 0
	str	wzr, [x19,2112]
	.loc 1 748 0
	str	wzr, [x19,1652]
	.loc 1 749 0
	str	wzr, [x19,2096]
	.loc 1 750 0
	str	wzr, [x19,2100]
	.loc 1 751 0
	str	wzr, [x19,2104]
	.loc 1 752 0
	str	xzr, [x20,22656]
	.loc 1 753 0
	str	wzr, [x19,2116]
	.loc 1 754 0
	str	wzr, [x19,2120]
	.loc 1 755 0
	str	wzr, [x19,2124]
	.loc 1 756 0
	str	wzr, [x19,2128]
	.loc 1 757 0
	str	wzr, [x19,2132]
	.loc 1 760 0
	ldp	x19, x20, [sp,16]
	.cfi_restore 20
	.cfi_restore 19
.LVL90:
	ldp	x29, x30, [sp], 32
	.cfi_restore 30
	.cfi_restore 29
	.cfi_def_cfa 31, 0
	ret
	.cfi_endproc
.LFE2321:
	.size	Global_Data_Init, .-Global_Data_Init
	.align	2
	.global	Bs_Get_Matrix
	.type	Bs_Get_Matrix, %function
Bs_Get_Matrix:
.LFB2322:
	.loc 1 779 0
	.cfi_startproc
.LVL91:
	stp	x29, x30, [sp, -64]!
	.cfi_def_cfa_offset 64
	.cfi_offset 29, -64
	.cfi_offset 30, -56
	add	x29, sp, 0
	.cfi_def_cfa_register 29
	stp	x19, x20, [sp,16]
	stp	x21, x22, [sp,32]
	str	x23, [sp,48]
	.cfi_offset 19, -48
	.cfi_offset 20, -40
	.cfi_offset 21, -32
	.cfi_offset 22, -24
	.cfi_offset 23, -16
	.loc 1 779 0
	mov	x22, x0
	mov	x19, x1
	.loc 1 781 0
	mov	w21, 0
	.loc 1 780 0
	mov	w23, 0
	adrp	x20, .LANCHOR2
	b	.L62
.LVL92:
.L66:
	mov	w21, w0
	mov	w23, w1
.L62:
	.loc 1 786 0
	mov	w1, 8
	mov	x0, x22
	bl	BsGet
.LVL93:
	add	w1, w23, 1
	.loc 1 787 0
	add	x2, x20, :lo12:.LANCHOR2
	sxth	w1, w1
	.loc 1 789 0 discriminator 1
	cmp	w1, 63
	.loc 1 787 0
	ldr	w2, [x2,w23,sxtw 2]
	.loc 1 789 0 discriminator 1
	cset	w4, le
	cmp	w0, wzr
	cset	w3, ne
	.loc 1 787 0
	str	w0, [x19,w2,sxtw 2]
	.loc 1 789 0 discriminator 1
	tst	w4, w3
	bne	.L66
	.loc 1 791 0
	cbnz	w0, .L61
	.loc 1 797 0
	cmp	w23, 63
	bgt	.L61
	uxth	w23, w23
	mov	w4, 63
	sub	w4, w4, w23
	add	w0, w23, 1
	mov	w1, 0
	uxth	w4, w4
	sxth	w23, w0
	b	.L65
.L67:
	ldr	w2, [x0,w3,sxtw 2]
.L65:
	cmp	w1, w4
	.loc 1 799 0
	str	w21, [x19,w2,sxtw 2]
	add	w3, w1, w23
	add	x0, x20, :lo12:.LANCHOR2
	add	w1, w1, 1
	.loc 1 797 0
	bne	.L67
.L61:
	.loc 1 803 0
	ldp	x19, x20, [sp,16]
	.cfi_restore 20
	.cfi_restore 19
.LVL94:
	ldp	x21, x22, [sp,32]
	.cfi_restore 22
	.cfi_restore 21
.LVL95:
	ldr	x23, [sp,48]
	.cfi_restore 23
	ldp	x29, x30, [sp], 64
	.cfi_restore 30
	.cfi_restore 29
	.cfi_def_cfa 31, 0
	ret
	.cfi_endproc
.LFE2322:
	.size	Bs_Get_Matrix, .-Bs_Get_Matrix
	.align	2
	.global	NextStartCode
	.type	NextStartCode, %function
NextStartCode:
.LFB2323:
	.loc 1 822 0
	.cfi_startproc
.LVL96:
	stp	x29, x30, [sp, -96]!
	.cfi_def_cfa_offset 96
	.cfi_offset 29, -96
	.cfi_offset 30, -88
	add	x29, sp, 0
	.cfi_def_cfa_register 29
	stp	x21, x22, [sp,32]
	.cfi_offset 21, -64
	.cfi_offset 22, -56
	adrp	x21, __stack_chk_guard
	mov	x22, x3
	stp	x19, x20, [sp,16]
	.cfi_offset 19, -80
	.cfi_offset 20, -72
	.loc 1 822 0
	mov	x20, x0
	.loc 1 829 0
	add	x0, x29, 48
.LVL97:
	.loc 1 822 0
	ldr	x3, [x21,#:lo12:__stack_chk_guard]
.LVL98:
	lsl	w19, w2, 3
	str	x3, [x29,88]
	.loc 1 829 0
	bl	BsInit
.LVL99:
	.loc 1 826 0
	mov	w0, 0
	.loc 1 830 0
	b	.L69
.L73:
	.loc 1 870 0
	and	w0, w1, -256
	cmp	w0, 256
	beq	.L83
.L77:
	.loc 1 880 0
	mov	w1, 8
	add	x0, x29, 48
	bl	BsSkip
.LVL100:
	.loc 1 881 0
	add	x0, x29, 48
	bl	BsPos
.LVL101:
.L69:
	.loc 1 830 0
	sub	w0, w19, w0
	cmp	w0, 31
	.loc 1 832 0
	add	x0, x29, 48
	.loc 1 830 0
	ble	.L84
	.loc 1 832 0
	mov	w1, 32
	bl	BsShow
.LVL102:
	.loc 1 833 0
	cmp	w0, 438
	.loc 1 832 0
	mov	w1, w0
	.loc 1 833 0
	beq	.L70
	.loc 1 834 0
	and	w0, w0, -16
	cmp	w0, 288
	beq	.L70
	.loc 1 844 0
	and	w0, w1, -1024
	cmp	w0, 32768
	bne	.L73
	.loc 1 846 0
	ldrb	w0, [x20,9]
	cmp	w0, 2
	bne	.L85
	.loc 1 857 0
	ldr	w0, [x20,744]
	add	w0, w0, 1
	str	w0, [x20,744]
	.loc 1 858 0
	cmp	w0, 18
	bls	.L77
	.loc 1 861 0
	mov	w0, 196
	str	w0, [x22]
	.loc 1 862 0
	mov	w1, 1
	.loc 1 863 0
	add	x0, x29, 48
	.loc 1 862 0
	strb	w1, [x20,9]
	.loc 1 863 0
	bl	BsPos
.LVL103:
	.loc 1 864 0
	b	.L72
.L70:
	.loc 1 837 0
	mov	w0, 2
	.loc 1 839 0
	str	wzr, [x20,744]
	.loc 1 837 0
	strb	w0, [x20,9]
	.loc 1 841 0
	add	x0, x29, 48
	.loc 1 840 0
	str	w1, [x22]
	.loc 1 841 0
	bl	BsPos
.LVL104:
.L72:
	.loc 1 891 0
	ldr	x2, [x29,88]
	ldr	x1, [x21,#:lo12:__stack_chk_guard]
	cmp	x2, x1
	bne	.L86
	ldp	x19, x20, [sp,16]
	.cfi_remember_state
	.cfi_restore 20
	.cfi_restore 19
.LVL105:
	ldp	x21, x22, [sp,32]
	.cfi_restore 22
	.cfi_restore 21
.LVL106:
	ldp	x29, x30, [sp], 96
	.cfi_restore 30
	.cfi_restore 29
	.cfi_def_cfa 31, 0
	ret
.LVL107:
.L84:
	.cfi_restore_state
	.loc 1 887 0
	mov	w1, 197
	str	w1, [x22]
	.loc 1 888 0
	bl	BsPos
.LVL108:
	.loc 1 890 0
	b	.L72
.L83:
	.loc 1 873 0
	str	w1, [x22]
	.loc 1 874 0
	add	x0, x29, 48
	bl	BsPos
.LVL109:
	.loc 1 875 0
	b	.L72
.L85:
	.loc 1 849 0
	mov	w0, 1
	strb	w0, [x20,9]
	.loc 1 850 0
	mov	w1, 196
	.loc 1 851 0
	add	x0, x29, 48
	.loc 1 850 0
	str	w1, [x22]
	.loc 1 851 0
	bl	BsPos
.LVL110:
	.loc 1 852 0
	b	.L72
.L86:
	.loc 1 891 0
	bl	__stack_chk_fail
.LVL111:
	.cfi_endproc
.LFE2323:
	.size	NextStartCode, .-NextStartCode
	.align	2
	.global	Mp4SearchStartCode
	.type	Mp4SearchStartCode, %function
Mp4SearchStartCode:
.LFB2324:
	.loc 1 895 0
	.cfi_startproc
.LVL112:
	.loc 1 899 0
	cmp	w1, 4
	.loc 1 902 0
	mov	w2, 0
	.loc 1 899 0
	ble	.L88
	.loc 1 905 0
	add	x2, x0, 2
.LVL113:
	.loc 1 904 0
	add	x4, x0, x1, sxtw
.LVL114:
.L104:
	.loc 1 905 0 discriminator 1
	cmp	x4, x2
	bls	.L89
.L109:
	.loc 1 907 0
	ldrb	w3, [x2]
.LVL115:
	.loc 1 908 0
	cmp	w3, 1
	bls	.L90
	.loc 1 908 0 is_stmt 0 discriminator 1
	and	w3, w3, 252
.LVL116:
	cmp	w3, 128
	beq	.L91
.L97:
	.loc 1 953 0 is_stmt 1
	add	x2, x2, 3
	.loc 1 905 0 discriminator 1
	cmp	x4, x2
	bhi	.L109
.L89:
	.loc 1 959 0
	sub	w2, w1, #2
.LVL117:
.L88:
	.loc 1 960 0
	mov	w0, w2
.LVL118:
	ret
.LVL119:
.L91:
	.loc 1 946 0
	ldrb	w3, [x2,-2]
.LVL120:
	cbnz	w3, .L97
	.loc 1 946 0 is_stmt 0 discriminator 1
	ldrb	w3, [x2,-1]
	cbnz	w3, .L97
	.loc 1 948 0 is_stmt 1
	sub	x2, x2, x0
.LVL121:
	sub	w2, w2, #2
	.loc 1 960 0
	mov	w0, w2
.LVL122:
	ret
.LVL123:
.L90:
	.loc 1 913 0
	cbnz	w3, .L91
	.loc 1 915 0
	ldrb	w3, [x2,-1]
.LVL124:
	cbnz	w3, .L94
	.loc 1 917 0
	add	x2, x2, 1
	.loc 1 918 0
	b	.L104
.L94:
	.loc 1 920 0
	ldrb	w5, [x2,1]
	.loc 1 922 0
	add	x3, x2, 2
	add	x2, x2, 4
.LVL125:
	cmp	w5, wzr
	csel	x2, x2, x3, ne
.LVL126:
	b	.L104
	.cfi_endproc
.LFE2324:
	.size	Mp4SearchStartCode, .-Mp4SearchStartCode
	.align	2
	.global	Mp4_Syntax_Gop
	.type	Mp4_Syntax_Gop, %function
Mp4_Syntax_Gop:
.LFB2325:
	.loc 1 979 0
	.cfi_startproc
.LVL127:
	stp	x29, x30, [sp, -96]!
	.cfi_def_cfa_offset 96
	.cfi_offset 29, -96
	.cfi_offset 30, -88
	add	x29, sp, 0
	.cfi_def_cfa_register 29
	stp	x19, x20, [sp,16]
	.cfi_offset 19, -80
	.cfi_offset 20, -72
	adrp	x20, __stack_chk_guard
	mov	x19, x0
	.loc 1 984 0
	add	x0, x29, 48
.LVL128:
	.loc 1 979 0
	str	x21, [sp,32]
	.cfi_offset 21, -64
	.loc 1 979 0
	ldr	x3, [x20,#:lo12:__stack_chk_guard]
	str	x3, [x29,88]
	.loc 1 984 0
	bl	BsInit
.LVL129:
	.loc 1 986 0
	mov	w1, 32
	add	x0, x29, 48
	bl	BsSkip
.LVL130:
	.loc 1 990 0
	mov	w1, 5
	add	x0, x29, 48
	bl	BsGet
.LVL131:
	.loc 1 992 0
	mov	w1, 6
	add	x0, x29, 48
	bl	BsGet
.LVL132:
	.loc 1 993 0
	add	x0, x29, 48
	mov	w1, 1
	bl	BsGet
.LVL133:
	cbnz	w0, .L111
	.loc 1 993 0 is_stmt 0 discriminator 2
	adrp	x1, .LC0
	mov	w0, 1
	add	x1, x1, :lo12:.LC0
	.loc 1 993 0 discriminator 1
	add	x19, x19, 20480
.LVL134:
	.loc 1 993 0 discriminator 2
	bl	dprint_linux_kernel
.LVL135:
	.loc 1 993 0 discriminator 3
	add	x0, x29, 48
	.loc 1 993 0 discriminator 1
	strb	wzr, [x19,1574]
	.loc 1 993 0 discriminator 3
	bl	BsPos
.LVL136:
	mov	w21, w0
	.loc 1 993 0 discriminator 1
	adrp	x0, g_event_report
	ldr	x4, [x0,#:lo12:g_event_report]
	cbz	x4, .L114
	.loc 1 993 0 discriminator 6
	ldr	w0, [x19,2808]
	mov	w1, 103
	mov	x2, 0
	mov	w3, 0
	blr	x4
.LVL137:
	.loc 1 993 0 discriminator 7
	mov	w0, w21
	b	.L112
.LVL138:
.L111:
	.loc 1 995 0 is_stmt 1
	mov	w1, 6
	add	x0, x29, 48
	.loc 1 998 0
	add	x19, x19, 20480
.LVL139:
	.loc 1 995 0
	bl	BsGet
.LVL140:
	.loc 1 998 0
	mov	w1, 1
	add	x0, x29, 48
	bl	BsGet
.LVL141:
	strb	w0, [x19,806]
	.loc 1 999 0
	mov	w1, 1
	add	x0, x29, 48
	bl	BsGet
.LVL142:
	strb	w0, [x19,807]
	.loc 1 1002 0
	mov	w1, 1
	.loc 1 1003 0
	add	x0, x29, 48
	.loc 1 1002 0
	strb	w1, [x19,1574]
	.loc 1 1003 0
	bl	BsPos
.LVL143:
.L112:
	.loc 1 1006 0
	ldr	x2, [x29,88]
	ldr	x1, [x20,#:lo12:__stack_chk_guard]
	cmp	x2, x1
	bne	.L115
	ldp	x19, x20, [sp,16]
	.cfi_remember_state
	.cfi_restore 20
	.cfi_restore 19
	ldr	x21, [sp,32]
	.cfi_restore 21
	ldp	x29, x30, [sp], 96
	.cfi_restore 30
	.cfi_restore 29
	.cfi_def_cfa 31, 0
	ret
.L114:
	.cfi_restore_state
	.loc 1 993 0 discriminator 7
	mov	w0, w21
	b	.L112
.L115:
	.loc 1 1006 0
	bl	__stack_chk_fail
.LVL144:
	.cfi_endproc
.LFE2325:
	.size	Mp4_Syntax_Gop, .-Mp4_Syntax_Gop
	.align	2
	.global	Mp4_Syntax_UserData
	.type	Mp4_Syntax_UserData, %function
Mp4_Syntax_UserData:
.LFB2327:
	.loc 1 1198 0
	.cfi_startproc
.LVL145:
	stp	x29, x30, [sp, -112]!
	.cfi_def_cfa_offset 112
	.cfi_offset 29, -112
	.cfi_offset 30, -104
	.loc 1 1210 0
	cmp	w2, 6
	.loc 1 1198 0
	add	x29, sp, 0
	.cfi_def_cfa_register 29
	stp	x21, x22, [sp,32]
	.cfi_offset 21, -80
	.cfi_offset 22, -72
	adrp	x22, __stack_chk_guard
	mov	x21, x0
	stp	x19, x20, [sp,16]
	stp	x23, x24, [sp,48]
	ldr	x0, [x22,#:lo12:__stack_chk_guard]
.LVL146:
	str	x25, [sp,64]
	.cfi_offset 19, -96
	.cfi_offset 20, -88
	.cfi_offset 23, -64
	.cfi_offset 24, -56
	.cfi_offset 25, -48
	.loc 1 1204 0
	str	wzr, [x29,88]
.LVL147:
	str	wzr, [x29,92]
.LVL148:
	.loc 1 1198 0
	str	x0, [x29,104]
	.loc 1 1204 0
	str	wzr, [x29,96]
.LVL149:
	str	wzr, [x29,100]
.LVL150:
	.loc 1 1207 0
	strb	wzr, [x29,87]
.LVL151:
	.loc 1 1210 0
	ble	.L174
	add	x24, x21, 3
	add	x1, x1, 4
.LVL152:
	mov	x4, x24
	sub	w20, w2, #4
	mov	w0, -256
.LVL153:
	mov	w5, 4
	mov	w19, 0
.L123:
	.loc 1 1224 0
	ldrb	w3, [x1]
	orr	w0, w0, w3
.LVL154:
	lsl	w0, w0, 8
.LVL155:
	.loc 1 1226 0
	cmp	w0, 256
	beq	.L175
	.loc 1 1236 0
	add	w19, w19, 1
	.loc 1 1235 0
	strb	w3, [x4]
	.loc 1 1238 0
	cmp	w19, 1027
	beq	.L176
	.loc 1 1221 0 discriminator 1
	cmp	w19, w20
	.loc 1 1221 0 is_stmt 0 discriminator 2
	add	w5, w5, 1
	add	x1, x1, 1
	add	x4, x4, 1
	.loc 1 1221 0 discriminator 1
	bne	.L123
	.loc 1 1249 0 is_stmt 1
	cmp	w5, w2
	ble	.L151
.L121:
	.loc 1 1370 0
	add	w2, w2, 1
.LVL156:
	lsl	w0, w2, 3
.LVL157:
.L118:
	.loc 1 1374 0
	ldr	x2, [x29,104]
.LVL158:
	ldr	x1, [x22,#:lo12:__stack_chk_guard]
.LVL159:
	cmp	x2, x1
	bne	.L177
	ldp	x19, x20, [sp,16]
	.cfi_remember_state
	.cfi_restore 20
	.cfi_restore 19
	ldp	x21, x22, [sp,32]
	.cfi_restore 22
	.cfi_restore 21
.LVL160:
	ldp	x23, x24, [sp,48]
	.cfi_restore 24
	.cfi_restore 23
	ldr	x25, [sp,64]
	.cfi_restore 25
	ldp	x29, x30, [sp], 112
	.cfi_restore 30
	.cfi_restore 29
	.cfi_def_cfa 31, 0
	ret
.LVL161:
.L175:
	.cfi_restore_state
	.loc 1 1229 0
	sub	w5, w5, #2
	.loc 1 1249 0
	cmp	w2, w5
	blt	.L121
	.loc 1 1252 0
	add	x23, x21, 20480
	mov	w1, 1
	.loc 1 1255 0
	cmp	w19, 2
	.loc 1 1253 0
	lsl	w20, w5, 3
	mov	w0, w20
.LVL162:
	.loc 1 1252 0
	strb	w1, [x23,1578]
	.loc 1 1255 0
	bls	.L118
.L150:
	.loc 1 1258 0
	ldr	w0, [x23,2808]
	add	x1, x23, 2144
	ldr	w2, [x23,2132]
.LVL163:
	.loc 1 1260 0
	mov	w25, w19
	.loc 1 1258 0
	bl	Mp4_GetUserDataBuf
.LVL164:
	str	x0, [x21,22656]
	.loc 1 1260 0
	cbz	x0, .L126
	.loc 1 1265 0 discriminator 1
	cmp	w19, 1024
	.loc 1 1262 0
	sub	w25, w19, #2
	.loc 1 1265 0 discriminator 1
	mov	w2, 1024
	.loc 1 1262 0
	str	w25, [x0,1052]
	.loc 1 1265 0 discriminator 1
	csel	w2, w19, w2, le
	.loc 1 1265 0 is_stmt 0 discriminator 4
	mov	x1, x24
	ldr	x0, [x21,22656]
	sxtw	x2, w2
	bl	memcpy
.LVL165:
	.loc 1 1266 0 is_stmt 1
	ldr	x1, [x21,22088]
	.loc 1 1267 0
	adrp	x2, g_event_report
	.loc 1 1266 0
	ldr	x0, [x21,22656]
	ldr	x1, [x1,48]
	.loc 1 1267 0
	ldr	x4, [x2,#:lo12:g_event_report]
	.loc 1 1266 0
	str	x1, [x0,1056]
	.loc 1 1267 0
	cbz	x4, .L126
	.loc 1 1267 0 is_stmt 0 discriminator 1
	ldr	w0, [x23,2808]
	mov	w1, 6
	ldr	x2, [x21,22656]
	mov	w3, 1064
	blr	x4
.LVL166:
.L126:
	.loc 1 1270 0 is_stmt 1 discriminator 1
	add	w1, w25, 2
	mov	w0, 1024
	cmp	w1, 1024
	.loc 1 1277 0
	add	x2, x29, 88
	.loc 1 1270 0 discriminator 1
	csel	w1, w1, w0, le
	.loc 1 1271 0
	add	x3, x21, x1, sxtw
	.loc 1 1277 0
	adrp	x1, .LC1
	.loc 1 1271 0
	strb	wzr, [x3,3]
	.loc 1 1277 0
	mov	x0, x24
	add	x1, x1, :lo12:.LC1
	add	x3, x29, 92
	add	x4, x29, 87
	bl	sscanf
.LVL167:
	.loc 1 1278 0
	cmp	w0, 1
	ble	.L178
.L127:
	.loc 1 1284 0
	ldr	w1, [x29,88]
	.loc 1 1286 0
	cmp	w0, 3
.LVL168:
	.loc 1 1284 0
	str	w1, [x23,1552]
	mov	w0, 0
	.loc 1 1285 0
	ldr	w1, [x29,92]
.LVL169:
	str	w1, [x23,1556]
	.loc 1 1286 0
	beq	.L179
.L129:
	.loc 1 1286 0 is_stmt 0 discriminator 6
	str	w0, [x23,1560]
.L128:
	.loc 1 1289 0 is_stmt 1
	adrp	x1, .LC3
	mov	x0, x24
	add	x1, x1, :lo12:.LC3
	add	x2, x29, 92
	bl	sscanf
.LVL170:
	.loc 1 1290 0
	cmp	w0, 1
	beq	.L135
	.loc 1 1292 0
	adrp	x1, .LC4
	mov	x0, x24
	add	x1, x1, :lo12:.LC4
	add	x2, x29, 88
	add	x3, x29, 96
	add	x4, x29, 100
	add	x5, x29, 92
	bl	sscanf
.LVL171:
	.loc 1 1294 0
	cmp	w0, 4
	beq	.L135
	.loc 1 1296 0
	adrp	x1, .LC5
	mov	x0, x24
	add	x1, x1, :lo12:.LC5
	add	x2, x29, 88
	add	x3, x29, 96
	add	x4, x29, 100
	bl	sscanf
.LVL172:
	add	w0, w0, 1
	.loc 1 1297 0
	cmp	w0, 1
	ble	.L134
	.loc 1 1302 0
	cmp	w0, 4
	.loc 1 1299 0
	ldr	w1, [x29,96]
	ldr	w0, [x29,88]
.LVL173:
	lsl	w1, w1, 8
.LVL174:
	add	w1, w1, w0, lsl 16
	ldr	w0, [x29,100]
.LVL175:
	add	w0, w1, w0
.LVL176:
	str	w0, [x29,92]
.LVL177:
	.loc 1 1302 0
	beq	.L135
.L134:
	.loc 1 1304 0
	adrp	x1, .LC6
	mov	x0, x24
	add	x1, x1, :lo12:.LC6
	mov	x2, 7
	bl	strncmp
.LVL178:
	cbnz	w0, .L143
	.loc 1 1306 0
	mov	w0, 4600
	str	w0, [x23,1568]
.L143:
	.loc 1 1315 0
	adrp	x1, .LC7
	mov	x0, x24
	add	x1, x1, :lo12:.LC7
	add	x2, x29, 92
	bl	sscanf
.LVL179:
	.loc 1 1316 0
	cmp	w0, 1
	beq	.L136
	ldr	w0, [x23,1564]
.L137:
	.loc 1 1322 0
	strb	wzr, [x23,817]
	.loc 1 1323 0
	strb	wzr, [x23,818]
	.loc 1 1324 0
	strb	wzr, [x23,815]
	.loc 1 1325 0
	strb	wzr, [x23,814]
	.loc 1 1326 0
	strb	wzr, [x23,816]
	.loc 1 1327 0 discriminator 1
	ldr	w1, [x23,1552]
	.loc 1 1327 0 is_stmt 0
	cbz	w0, .L138
	.loc 1 1327 0 discriminator 1
	cbz	w1, .L139
	.loc 1 1329 0 is_stmt 1
	str	wzr, [x23,1552]
	.loc 1 1330 0
	str	wzr, [x23,1556]
.L139:
	.loc 1 1336 0
	cmp	w0, 1
	mov	w1, -1
	bne	.L146
	.loc 1 1338 0
	strb	w0, [x23,817]
	mov	w1, -1
.L147:
	.loc 1 1346 0
	mov	w0, 1
	strb	w0, [x23,815]
.L140:
	.loc 1 1348 0
	ldr	w0, [x23,1568]
	mov	w2, 4668
	sub	w0, w0, #1
	cmp	w0, w2
	bhi	.L141
	.loc 1 1350 0
	mov	w0, 1
	strb	w0, [x23,815]
.L141:
	.loc 1 1352 0
	cmp	w1, 498
	bhi	.L142
	.loc 1 1354 0
	mov	w0, 1
	strb	w0, [x23,815]
.L142:
	.loc 1 1356 0
	mov	x1, 500
	ldr	x2, [x21,22032]
	movk	x1, 0x19d, lsl 32
	mov	w0, w20
	cmp	x2, x1
	bne	.L118
	.loc 1 1358 0
	mov	w1, 1
	strb	w1, [x23,816]
	b	.L118
.LVL180:
.L174:
	.loc 1 1212 0
	add	x21, x21, 20480
.LVL181:
	.loc 1 1214 0
	add	w2, w2, 1
.LVL182:
	lsl	w0, w2, 3
	.loc 1 1212 0
	strb	wzr, [x21,1578]
	.loc 1 1215 0
	b	.L118
.LVL183:
.L176:
	.loc 1 1242 0
	add	x21, x21, 20480
.LVL184:
	.loc 1 1241 0
	sub	w1, w5, #2
	.loc 1 1243 0
	lsl	w0, w1, 3
.LVL185:
	.loc 1 1242 0
	strb	wzr, [x21,1578]
	.loc 1 1243 0
	b	.L118
.LVL186:
.L151:
	.loc 1 1252 0
	add	x23, x21, 20480
	mov	w0, 1
.LVL187:
	.loc 1 1253 0
	lsl	w20, w5, 3
	.loc 1 1252 0
	strb	w0, [x23,1578]
	b	.L150
.LVL188:
.L135:
	.loc 1 1311 0
	ldr	w0, [x29,92]
.LVL189:
	str	w0, [x23,1568]
	b	.L143
.LVL190:
.L179:
	.loc 1 1286 0 discriminator 1
	ldrsb	w0, [x29,87]
.LVL191:
	cmp	w0, 112
	cset	w0, eq
.LVL192:
	b	.L129
.LVL193:
.L138:
	.loc 1 1332 0
	cmp	w1, 499
	bls	.L180
	.loc 1 1334 0
	mov	w2, 1
	.loc 1 1340 0
	cmp	w1, 502
	.loc 1 1334 0
	strb	w2, [x23,817]
	sub	w1, w1, #1
	.loc 1 1340 0
	bls	.L146
	.loc 1 1342 0
	strb	w2, [x23,818]
.L146:
	.loc 1 1344 0
	sub	w0, w0, #1
	cmp	w0, 11
	bhi	.L140
	b	.L147
.L136:
	.loc 1 1318 0
	ldr	w0, [x29,92]
	str	w0, [x23,1564]
	b	.L137
.L180:
	sub	w1, w1, #1
	b	.L140
.L178:
	.loc 1 1280 0
	adrp	x1, .LC2
	mov	x0, x24
	add	x1, x1, :lo12:.LC2
	add	x2, x29, 88
	add	x3, x29, 92
	add	x4, x29, 87
	bl	sscanf
.LVL194:
	.loc 1 1282 0
	cmp	w0, 1
	ble	.L128
	b	.L127
.L177:
	.loc 1 1374 0
	bl	__stack_chk_fail
.LVL195:
	.cfi_endproc
.LFE2327:
	.size	Mp4_Syntax_UserData, .-Mp4_Syntax_UserData
	.align	2
	.global	Mp4_Syntax_Vo
	.type	Mp4_Syntax_Vo, %function
Mp4_Syntax_Vo:
.LFB2328:
	.loc 1 1392 0
	.cfi_startproc
.LVL196:
	stp	x29, x30, [sp, -112]!
	.cfi_def_cfa_offset 112
	.cfi_offset 29, -112
	.cfi_offset 30, -104
	add	x29, sp, 0
	.cfi_def_cfa_register 29
	stp	x21, x22, [sp,32]
	.cfi_offset 21, -80
	.cfi_offset 22, -72
	adrp	x22, __stack_chk_guard
	str	x23, [sp,48]
	stp	x19, x20, [sp,16]
	.cfi_offset 23, -64
	.cfi_offset 19, -96
	.cfi_offset 20, -88
	.loc 1 1399 0
	add	x19, x0, 20480
	.loc 1 1392 0
	mov	x20, x0
	ldr	x3, [x22,#:lo12:__stack_chk_guard]
	.loc 1 1396 0
	add	x0, x29, 64
.LVL197:
	.loc 1 1392 0
	mov	w23, w2
	str	x3, [x29,104]
	.loc 1 1400 0
	mov	w21, 1
	.loc 1 1413 0
	add	x20, x20, 16384
.LVL198:
	.loc 1 1396 0
	bl	BsInit
.LVL199:
	.loc 1 1399 0
	strb	wzr, [x19,820]
	.loc 1 1412 0
	mov	w1, 32
	.loc 1 1400 0
	strb	w21, [x19,821]
	.loc 1 1412 0
	add	x0, x29, 64
	.loc 1 1401 0
	strb	wzr, [x19,822]
	.loc 1 1402 0
	strb	wzr, [x19,823]
	.loc 1 1403 0
	strb	wzr, [x19,824]
	.loc 1 1404 0
	strb	wzr, [x19,825]
	.loc 1 1405 0
	strb	wzr, [x19,826]
	.loc 1 1406 0
	strb	wzr, [x19,827]
	.loc 1 1407 0
	str	wzr, [x19,832]
	.loc 1 1408 0
	str	wzr, [x19,836]
	.loc 1 1409 0
	str	wzr, [x19,840]
	.loc 1 1412 0
	bl	BsSkip
.LVL200:
	.loc 1 1413 0
	add	x0, x29, 64
	mov	w1, 1
	bl	BsGet
.LVL201:
	uxtb	w0, w0
	strb	w0, [x20,3608]
	.loc 1 1415 0
	cbnz	w0, .L197
	.loc 1 1422 0
	strb	w21, [x20,3609]
	.loc 1 1425 0
	add	x0, x29, 64
	mov	w1, 4
	bl	BsGet
.LVL202:
	uxtb	w21, w0
	.loc 1 1427 0
	cmp	w21, 1
	.loc 1 1425 0
	strb	w21, [x20,3611]
	.loc 1 1427 0
	beq	.L198
.L184:
	.loc 1 1448 0
	strb	wzr, [x19,1573]
	.loc 1 1449 0
	add	x0, x29, 64
	bl	BsPos
.LVL203:
	mov	w20, w0
	.loc 1 1450 0
	adrp	x0, g_event_report
	ldr	x4, [x0,#:lo12:g_event_report]
	cbz	x4, .L190
	.loc 1 1450 0 is_stmt 0 discriminator 1
	ldr	w0, [x19,2808]
	mov	w1, 102
	mov	x2, 0
	mov	w3, 0
	blr	x4
.LVL204:
	.loc 1 1451 0 is_stmt 1
	mov	w0, w20
.L187:
	.loc 1 1475 0
	ldr	x2, [x29,104]
	ldr	x1, [x22,#:lo12:__stack_chk_guard]
	cmp	x2, x1
	bne	.L199
	ldp	x19, x20, [sp,16]
	.cfi_remember_state
	.cfi_restore 20
	.cfi_restore 19
	ldp	x21, x22, [sp,32]
	.cfi_restore 22
	.cfi_restore 21
	ldr	x23, [sp,48]
	.cfi_restore 23
.LVL205:
	ldp	x29, x30, [sp], 112
	.cfi_restore 30
	.cfi_restore 29
	.cfi_def_cfa 31, 0
	ret
.LVL206:
.L197:
	.cfi_restore_state
	.loc 1 1417 0
	mov	w1, 4
	add	x0, x29, 64
	bl	BsGet
.LVL207:
	strb	w0, [x20,3609]
	.loc 1 1418 0
	mov	w1, 3
	add	x0, x29, 64
	bl	BsGet
.LVL208:
	strb	w0, [x20,3610]
	.loc 1 1425 0
	mov	w1, 4
	add	x0, x29, 64
	bl	BsGet
.LVL209:
	uxtb	w21, w0
	.loc 1 1427 0
	cmp	w21, 1
	.loc 1 1425 0
	strb	w21, [x20,3611]
	.loc 1 1427 0
	bne	.L184
.L198:
	.loc 1 1430 0
	add	x0, x29, 64
	mov	w1, w21
	bl	BsGet
.LVL210:
	uxtb	w0, w0
	strb	w0, [x20,3612]
	.loc 1 1431 0
	cbnz	w0, .L200
.L186:
	.loc 1 1455 0
	mov	w1, 1
	.loc 1 1458 0
	add	x0, x29, 64
	.loc 1 1455 0
	strb	w1, [x19,1573]
	.loc 1 1458 0
	bl	BsPos
.LVL211:
	cmp	w0, w23, lsl 3
	bgt	.L188
	.loc 1 1460 0
	ldrb	w0, [x20,3608]
	strb	w0, [x19,820]
	.loc 1 1461 0
	ldrb	w0, [x20,3609]
	strb	w0, [x19,821]
	.loc 1 1462 0
	ldrb	w0, [x20,3610]
	strb	w0, [x19,822]
	.loc 1 1463 0
	ldrb	w0, [x20,3611]
	strb	w0, [x19,823]
	.loc 1 1464 0
	ldrb	w0, [x20,3612]
	strb	w0, [x19,824]
	.loc 1 1465 0
	ldrb	w0, [x20,3613]
	strb	w0, [x19,825]
	.loc 1 1466 0
	ldrb	w0, [x20,3614]
	strb	w0, [x19,826]
	.loc 1 1467 0
	ldrb	w0, [x20,3615]
	strb	w0, [x19,827]
	.loc 1 1468 0
	ldr	w0, [x20,3620]
	str	w0, [x19,832]
	.loc 1 1469 0
	ldr	w0, [x20,3624]
	str	w0, [x19,836]
	.loc 1 1470 0
	ldr	w0, [x20,3628]
	str	w0, [x19,840]
.L188:
	.loc 1 1472 0
	add	x0, x29, 64
	bl	BsPos
.LVL212:
	.loc 1 1474 0
	b	.L187
.L200:
	.loc 1 1433 0
	mov	w1, 3
	add	x0, x29, 64
	bl	BsGet
.LVL213:
	strb	w0, [x20,3613]
	.loc 1 1434 0
	mov	w1, w21
	add	x0, x29, 64
	bl	BsGet
.LVL214:
	strb	w0, [x20,3614]
	.loc 1 1435 0
	mov	w1, w21
	add	x0, x29, 64
	bl	BsGet
.LVL215:
	uxtb	w0, w0
	strb	w0, [x20,3615]
	.loc 1 1437 0
	cbz	w0, .L186
	.loc 1 1439 0
	mov	w1, 8
	add	x0, x29, 64
	bl	BsGet
.LVL216:
	str	w0, [x20,3620]
	.loc 1 1440 0
	mov	w1, 8
	add	x0, x29, 64
	bl	BsGet
.LVL217:
	str	w0, [x20,3624]
	.loc 1 1441 0
	mov	w1, 8
	add	x0, x29, 64
	bl	BsGet
.LVL218:
	str	w0, [x20,3628]
	b	.L186
.L190:
	.loc 1 1451 0
	mov	w0, w20
	b	.L187
.L199:
	.loc 1 1475 0
	bl	__stack_chk_fail
.LVL219:
	.cfi_endproc
.LFE2328:
	.size	Mp4_Syntax_Vo, .-Mp4_Syntax_Vo
	.align	2
	.global	Mp4_Syntax_Vol
	.type	Mp4_Syntax_Vol, %function
Mp4_Syntax_Vol:
.LFB2330:
	.loc 1 1775 0
	.cfi_startproc
.LVL220:
	sub	sp, sp, #144
	.cfi_def_cfa_offset 144
	stp	x29, x30, [sp,16]
	.cfi_offset 29, -128
	.cfi_offset 30, -120
	add	x29, sp, 16
	.cfi_def_cfa 29, 128
	stp	x21, x22, [sp,48]
	.cfi_offset 21, -96
	.cfi_offset 22, -88
	adrp	x22, __stack_chk_guard
	mov	x21, x0
	stp	x19, x20, [sp,32]
	.cfi_offset 19, -112
	.cfi_offset 20, -104
	.loc 1 1782 0
	add	x20, x0, 20480
	.loc 1 1775 0
	stp	x23, x24, [sp,64]
	stp	x25, x26, [sp,80]
	.cfi_offset 23, -80
	.cfi_offset 24, -72
	.cfi_offset 25, -64
	.cfi_offset 26, -56
	.loc 1 1775 0
	ldr	x0, [x22,#:lo12:__stack_chk_guard]
.LVL221:
	str	x0, [x29,120]
	.loc 1 1782 0
	adrp	x0, s_pstVfmwChan
	ldrsw	x3, [x20,2808]
	add	x0, x0, :lo12:s_pstVfmwChan
	ldr	x0, [x0,x3,lsl 3]
	cbz	x0, .L263
	.loc 1 1784 0
	ldr	w23, [x0,1044]
	.loc 1 1785 0
	ldr	w24, [x0,1048]
.LVL222:
.L202:
	.loc 1 1793 0
	add	x0, x29, 80
	.loc 1 1796 0
	add	x19, x21, 16384
	add	x25, x19, 3632
	.loc 1 1793 0
	bl	BsInit
.LVL223:
	.loc 1 1794 0
	strb	wzr, [x20,805]
	.loc 1 1796 0
	mov	x2, 604
	mov	w1, 0
	mov	x0, x25
	bl	memset
.LVL224:
	.loc 1 1797 0
	mov	w1, 32
	add	x0, x29, 80
	bl	BsSkip
.LVL225:
	.loc 1 1799 0
	mov	w1, 1
	add	x0, x29, 80
	bl	BsGet
.LVL226:
	strb	w0, [x19,3636]
	.loc 1 1800 0
	mov	w1, 8
	add	x0, x29, 80
	bl	BsGet
.LVL227:
	str	w0, [x19,3660]
	.loc 1 1802 0
	mov	w1, 1
	add	x0, x29, 80
	bl	BsGet
.LVL228:
	uxtb	w0, w0
	strb	w0, [x19,3632]
	.loc 1 1803 0
	cbnz	w0, .L359
	.loc 1 1810 0
	ldrb	w0, [x20,821]
	.loc 1 1813 0
	mov	w1, 4
	.loc 1 1810 0
	strb	w0, [x19,3633]
	.loc 1 1813 0
	add	x0, x29, 80
	bl	BsGet
.LVL229:
	uxtb	w0, w0
	.loc 1 1814 0
	cmp	w0, 15
	.loc 1 1813 0
	strb	w0, [x19,3635]
	.loc 1 1814 0
	beq	.L360
.L205:
	.loc 1 1820 0
	add	x0, x29, 80
	mov	w1, 1
	bl	BsGet
.LVL230:
	uxtb	w0, w0
	strb	w0, [x19,3637]
	.loc 1 1821 0
	cbnz	w0, .L361
	.loc 1 1854 0
	mov	w0, 1
	strb	w0, [x19,3638]
.L210:
	.loc 1 1857 0
	add	x0, x29, 80
	mov	w1, 2
	bl	BsGet
.LVL231:
	uxtb	w0, w0
	strb	w0, [x19,3640]
	.loc 1 1858 0
	cbz	w0, .L216
	.loc 1 1861 0
	strb	wzr, [x20,1575]
	.loc 1 1862 0
	add	x0, x29, 80
	bl	BsPos
.LVL232:
	mov	w21, w0
.LVL233:
	.loc 1 1863 0
	adrp	x0, g_event_report
	ldr	x4, [x0,#:lo12:g_event_report]
	cbz	x4, .L217
	.loc 1 1863 0 is_stmt 0 discriminator 1
	ldr	w0, [x20,2808]
	mov	w1, 102
	mov	x2, 0
	mov	w3, 0
	blr	x4
.LVL234:
.L217:
	.loc 1 1864 0 is_stmt 1
	adrp	x1, .LC10
	ldrb	w3, [x19,3640]
	mov	w0, 1
	add	x1, x1, :lo12:.LC10
.L326:
	adrp	x2, .LANCHOR1
	add	x2, x2, :lo12:.LANCHOR1
	add	x2, x2, 512
	bl	dprint_linux_kernel
.LVL235:
	.loc 1 1865 0
	mov	w0, w21
.LVL236:
.L208:
	.loc 1 2086 0
	ldr	x2, [x29,120]
	ldr	x1, [x22,#:lo12:__stack_chk_guard]
	cmp	x2, x1
	bne	.L362
	sub	sp, x29, #16
	.cfi_remember_state
	.cfi_def_cfa 31, 144
	ldp	x19, x20, [sp,32]
	.cfi_restore 20
	.cfi_restore 19
	ldp	x21, x22, [sp,48]
	.cfi_restore 22
	.cfi_restore 21
.LVL237:
	ldp	x23, x24, [sp,64]
	.cfi_restore 24
	.cfi_restore 23
.LVL238:
	ldp	x25, x26, [sp,80]
	.cfi_restore 26
	.cfi_restore 25
	ldp	x29, x30, [sp,16]
	.cfi_restore 30
	.cfi_restore 29
	add	sp, sp, 144
	.cfi_def_cfa_offset 0
	ret
.LVL239:
.L216:
	.cfi_restore_state
	.loc 1 1867 0
	add	x0, x29, 80
	mov	w1, 1
	bl	BsGet
.LVL240:
	cbz	w0, .L337
	.loc 1 1869 0
	add	x0, x29, 80
	mov	w1, 16
	bl	BsGet
.LVL241:
	str	w0, [x19,3704]
	.loc 1 1870 0
	cbz	w0, .L219
.LBB25:
.LBB26:
	.loc 1 220 0
	subs	w0, w0, #1
	beq	.L270
	mov	w2, w0
	mov	w1, 0
.LVL242:
.L221:
	add	w1, w1, 1
.LVL243:
	.loc 1 222 0
	lsr	w2, w2, 1
	sxth	w1, w1
.LVL244:
	.loc 1 220 0
	cbnz	w2, .L221
.LBE26:
.LBE25:
	.loc 1 1872 0
	cmp	w1, wzr
	mov	w1, 0
.LVL245:
	ble	.L270
.L307:
	add	w1, w1, 1
.LVL246:
.LBB27:
.LBB28:
	.loc 1 222 0
	lsr	w0, w0, 1
	sxth	w1, w1
.LVL247:
	.loc 1 220 0
	cbnz	w0, .L307
.L220:
.LBE28:
.LBE27:
	.loc 1 1872 0 discriminator 5
	str	w1, [x19,3700]
.LVL248:
.L224:
	.loc 1 1879 0
	add	x0, x29, 80
	mov	w1, 1
	bl	BsGet
.LVL249:
	cbz	w0, .L337
	.loc 1 1880 0
	add	x0, x29, 80
	mov	w1, 1
	bl	BsGet
.LVL250:
	uxtb	w0, w0
	strb	w0, [x19,3641]
	.loc 1 1881 0
	cbnz	w0, .L363
.L226:
	.loc 1 1886 0
	add	x0, x29, 80
	mov	w1, 1
	bl	BsGet
.LVL251:
	cbz	w0, .L337
	.loc 1 1887 0
	mov	w1, 13
	add	x0, x29, 80
	bl	BsGet
.LVL252:
	str	w0, [x19,3712]
	.loc 1 1888 0
	mov	w1, 1
	add	x0, x29, 80
	bl	BsGet
.LVL253:
	cbz	w0, .L337
	.loc 1 1889 0
	mov	w1, 13
	add	x0, x29, 80
	bl	BsGet
.LVL254:
	str	w0, [x19,3716]
	.loc 1 1890 0
	mov	w1, 1
	add	x0, x29, 80
	bl	BsGet
.LVL255:
	cbz	w0, .L337
	.loc 1 1893 0
	ldr	w1, [x19,3712]
	cmp	w1, 31
	bls	.L230
	.loc 1 1894 0
	ldr	w0, [x19,3716]
	cmp	w0, 31
	bls	.L230
	.loc 1 1895 0
	mul	w0, w0, w1
	mul	w1, w23, w24
	cmp	w0, w1
	bls	.L231
.L230:
	.loc 1 1897 0
	strb	wzr, [x20,1575]
	.loc 1 1898 0
	add	x0, x29, 80
	bl	BsPos
.LVL256:
	mov	w21, w0
.LVL257:
	.loc 1 1899 0
	adrp	x0, g_event_report
	ldr	x4, [x0,#:lo12:g_event_report]
	cbz	x4, .L232
	.loc 1 1899 0 is_stmt 0 discriminator 1
	ldr	w0, [x20,2808]
	mov	w1, 103
	mov	x2, 0
	mov	w3, 0
	blr	x4
.LVL258:
.L232:
	.loc 1 1900 0 is_stmt 1
	adrp	x2, .LANCHOR1
	ldr	w3, [x19,3712]
	ldr	w4, [x19,3716]
	mov	w5, 32
	adrp	x1, .LC11
	add	x2, x2, :lo12:.LANCHOR1
	str	w24, [sp]
	mov	w0, 1
	add	x1, x1, :lo12:.LC11
	add	x2, x2, 512
	mov	w6, w5
	mov	w7, w23
	bl	dprint_linux_kernel
.LVL259:
	.loc 1 1901 0
	mov	w0, w21
	b	.L208
.LVL260:
.L337:
	.loc 1 1890 0 discriminator 2
	mov	w0, 1
.L340:
	adrp	x1, .LC9
	add	x1, x1, :lo12:.LC9
	bl	dprint_linux_kernel
.LVL261:
	.loc 1 1890 0 is_stmt 0 discriminator 1
	strb	wzr, [x20,1575]
	.loc 1 1890 0 discriminator 3
	add	x0, x29, 80
	bl	BsPos
.LVL262:
	mov	w21, w0
.LVL263:
	.loc 1 1890 0 discriminator 1
	adrp	x0, g_event_report
	ldr	x4, [x0,#:lo12:g_event_report]
	cbz	x4, .L282
	.loc 1 1890 0 discriminator 6
	ldr	w0, [x20,2808]
	mov	w1, 103
	mov	x2, 0
	mov	w3, 0
	blr	x4
.LVL264:
	.loc 1 1890 0 discriminator 7
	mov	w0, w21
	b	.L208
.LVL265:
.L361:
	.loc 1 1823 0 is_stmt 1
	add	x0, x29, 80
	mov	w1, 2
	bl	BsGet
.LVL266:
	uxtb	w26, w0
	.loc 1 1824 0
	cmp	w26, 1
	.loc 1 1823 0
	strb	w26, [x19,3638]
	.loc 1 1824 0
	beq	.L207
	.loc 1 1827 0
	strb	wzr, [x20,1575]
	.loc 1 1828 0
	add	x0, x29, 80
	bl	BsPos
.LVL267:
	mov	w21, w0
.LVL268:
	.loc 1 1829 0
	adrp	x1, .LC8
	ldrb	w3, [x19,3638]
	mov	w0, 1
	add	x1, x1, :lo12:.LC8
	b	.L326
.LVL269:
.L359:
	.loc 1 1805 0
	mov	w1, 4
	add	x0, x29, 80
	bl	BsGet
.LVL270:
	strb	w0, [x19,3633]
	.loc 1 1806 0
	mov	w1, 3
	add	x0, x29, 80
	bl	BsGet
.LVL271:
	strb	w0, [x19,3634]
	.loc 1 1813 0
	mov	w1, 4
	add	x0, x29, 80
	bl	BsGet
.LVL272:
	uxtb	w0, w0
	.loc 1 1814 0
	cmp	w0, 15
	.loc 1 1813 0
	strb	w0, [x19,3635]
	.loc 1 1814 0
	bne	.L205
.L360:
	.loc 1 1816 0
	mov	w1, 8
	add	x0, x29, 80
	bl	BsGet
.LVL273:
	str	w0, [x19,3664]
	.loc 1 1817 0
	mov	w1, 8
	add	x0, x29, 80
	bl	BsGet
.LVL274:
	str	w0, [x19,3668]
	b	.L205
.L207:
	.loc 1 1832 0
	mov	w1, w26
	add	x0, x29, 80
	bl	BsGet
.LVL275:
	strb	w0, [x19,3639]
	.loc 1 1834 0
	mov	w1, w26
	add	x0, x29, 80
	bl	BsGet
.LVL276:
	str	w0, [x19,3672]
	.loc 1 1835 0
	cbz	w0, .L210
	.loc 1 1837 0
	mov	w1, 15
	add	x0, x29, 80
	bl	BsGet
.LVL277:
	str	w0, [x19,3676]
	.loc 1 1838 0
	mov	w1, w26
	add	x0, x29, 80
	bl	BsGet
.LVL278:
	cbz	w0, .L354
	.loc 1 1839 0
	mov	w1, 15
	add	x0, x29, 80
	bl	BsGet
.LVL279:
	str	w0, [x19,3680]
	.loc 1 1840 0
	mov	w1, w26
	add	x0, x29, 80
	bl	BsGet
.LVL280:
	cbz	w0, .L354
	.loc 1 1841 0
	mov	w1, 15
	add	x0, x29, 80
	bl	BsGet
.LVL281:
	str	w0, [x19,3684]
	.loc 1 1842 0
	mov	w1, w26
	add	x0, x29, 80
	bl	BsGet
.LVL282:
	cbz	w0, .L354
	.loc 1 1843 0
	mov	w1, 3
	add	x0, x29, 80
	bl	BsGet
.LVL283:
	str	w0, [x19,3688]
	.loc 1 1845 0
	mov	w1, 11
	add	x0, x29, 80
	bl	BsGet
.LVL284:
	str	w0, [x19,3692]
	.loc 1 1846 0
	mov	w1, w26
	add	x0, x29, 80
	bl	BsGet
.LVL285:
	cbz	w0, .L354
	.loc 1 1847 0
	mov	w1, 15
	add	x0, x29, 80
	bl	BsGet
.LVL286:
	str	w0, [x19,3696]
	.loc 1 1848 0
	mov	w1, w26
	add	x0, x29, 80
	bl	BsGet
.LVL287:
	cbnz	w0, .L210
.L354:
	.loc 1 1848 0 is_stmt 0 discriminator 2
	mov	w0, w26
	b	.L340
.LVL288:
.L263:
	.loc 1 1790 0 is_stmt 1
	mov	w24, 8192
.LVL289:
	.loc 1 1789 0
	mov	w23, w24
.LVL290:
	b	.L202
.LVL291:
.L219:
	.loc 1 1876 0
	mov	w0, 1
	str	w0, [x19,3700]
	b	.L224
.LVL292:
.L282:
	.loc 1 2072 0
	mov	w0, w21
	b	.L208
.LVL293:
.L363:
	.loc 1 1883 0
	ldr	w1, [x19,3700]
	add	x0, x29, 80
	bl	BsGet
.LVL294:
	str	w0, [x19,3708]
	b	.L226
.LVL295:
.L270:
	.loc 1 1872 0 discriminator 2
	mov	w1, 1
.LVL296:
	b	.L220
.L231:
	.loc 1 1904 0
	mov	w1, 1
	add	x0, x29, 80
	bl	BsGet
.LVL297:
	strb	w0, [x19,3642]
	.loc 1 1905 0
	mov	w1, 1
	add	x0, x29, 80
	bl	BsGet
.LVL298:
	uxtb	w0, w0
	strb	w0, [x19,3643]
	.loc 1 1906 0
	cbnz	w0, .L234
	.loc 1 1910 0
	adrp	x0, g_event_report
	.loc 1 1908 0
	strb	wzr, [x20,1575]
	.loc 1 1910 0
	ldr	x4, [x0,#:lo12:g_event_report]
	cbz	x4, .L234
	.loc 1 1910 0 is_stmt 0 discriminator 1
	ldr	w0, [x20,2808]
	mov	w1, 102
	mov	x2, 0
	mov	w3, 0
	blr	x4
.LVL299:
.L234:
	.loc 1 1914 0 is_stmt 1
	ldrb	w1, [x19,3633]
	.loc 1 1914 0 is_stmt 0 discriminator 4
	add	x0, x29, 80
	.loc 1 1914 0 discriminator 2
	cmp	w1, 1
	.loc 1 1914 0 discriminator 4
	mov	w1, 2
	csinc	w1, w1, wzr, ne
	bl	BsGet
.LVL300:
	uxtb	w23, w0
.LVL301:
	strb	w23, [x19,3644]
	.loc 1 1916 0 is_stmt 1
	cbz	w23, .L237
	.loc 1 1916 0 is_stmt 0 discriminator 1
	adrp	x0, g_VdmCharacter
	ldr	w0, [x0,#:lo12:g_VdmCharacter]
	tbz	x0, 3, .L364
	.loc 1 1928 0 is_stmt 1
	sub	w0, w23, #1
	uxtb	w0, w0
	cmp	w0, 1
	bls	.L365
	.loc 1 1955 0
	strb	wzr, [x20,1575]
	.loc 1 1956 0
	add	x0, x29, 80
	bl	BsPos
.LVL302:
	mov	w21, w0
.LVL303:
	.loc 1 1957 0
	adrp	x0, g_event_report
	ldr	x4, [x0,#:lo12:g_event_report]
	cbz	x4, .L244
	.loc 1 1957 0 is_stmt 0 discriminator 1
	ldr	w0, [x20,2808]
	mov	w1, 102
	mov	x2, 0
	mov	w3, 0
	blr	x4
.LVL304:
.L244:
	.loc 1 1958 0 is_stmt 1
	adrp	x1, .LC14
	mov	w0, 1
	add	x1, x1, :lo12:.LC14
	bl	dprint_linux_kernel
.LVL305:
	.loc 1 1960 0
	mov	w0, w21
	b	.L208
.LVL306:
.L366:
	.loc 1 1939 0
	mov	w1, 6
	add	x0, x29, 80
	bl	BsGet
.LVL307:
	strb	w0, [x19,3656]
	.loc 1 1940 0
	mov	w1, w23
	add	x0, x29, 80
	bl	BsGet
.LVL308:
	strb	w0, [x19,3657]
	.loc 1 1941 0
	mov	w1, 1
	add	x0, x29, 80
	bl	BsGet
.LVL309:
	strb	w0, [x19,3658]
	.loc 1 1943 0
	ldrb	w1, [x19,3644]
	cmp	w1, 2
	bne	.L356
.L237:
	.loc 1 1965 0
	add	x0, x29, 80
	mov	w1, 1
	bl	BsGet
.LVL310:
	uxtb	w0, w0
	strb	w0, [x19,3645]
	.loc 1 1966 0
	cbz	w0, .L245
	.loc 1 1968 0
	strb	wzr, [x20,1575]
	.loc 1 1969 0
	add	x0, x29, 80
	bl	BsPos
.LVL311:
	mov	w21, w0
.LVL312:
	.loc 1 1970 0
	adrp	x0, g_event_report
	ldr	x4, [x0,#:lo12:g_event_report]
	cbz	x4, .L246
	.loc 1 1970 0 is_stmt 0 discriminator 1
	ldr	w0, [x20,2808]
	mov	w1, 102
	mov	x2, 0
	mov	w3, 0
	blr	x4
.LVL313:
.L246:
	.loc 1 1971 0 is_stmt 1
	adrp	x1, .LC15
	mov	w0, 1
	add	x1, x1, :lo12:.LC15
	bl	dprint_linux_kernel
.LVL314:
	.loc 1 1973 0
	mov	w0, w21
	b	.L208
.LVL315:
.L365:
	.loc 1 1930 0
	cmp	w23, 2
	beq	.L366
.L356:
	.loc 1 1945 0
	strb	wzr, [x20,1575]
	.loc 1 1946 0
	add	x0, x29, 80
	bl	BsPos
.LVL316:
	mov	w21, w0
.LVL317:
	.loc 1 1947 0
	adrp	x0, g_event_report
	ldr	x4, [x0,#:lo12:g_event_report]
	cbz	x4, .L243
	.loc 1 1947 0 is_stmt 0 discriminator 1
	ldr	w0, [x20,2808]
	mov	w1, 102
	mov	x2, 0
	mov	w3, 0
	blr	x4
.LVL318:
.L243:
	.loc 1 1948 0 is_stmt 1
	adrp	x1, .LC13
	mov	w0, 1
	add	x1, x1, :lo12:.LC13
	bl	dprint_linux_kernel
.LVL319:
	.loc 1 1950 0
	mov	w0, w21
	b	.L208
.LVL320:
.L362:
	.loc 1 2086 0
	bl	__stack_chk_fail
.LVL321:
.L245:
	.loc 1 1977 0
	add	x0, x29, 80
	mov	w1, 1
	bl	BsGet
.LVL322:
	uxtb	w0, w0
	strb	w0, [x19,3646]
	.loc 1 1978 0
	cbnz	w0, .L367
.L248:
	.loc 1 2007 0
	ldrb	w0, [x19,3633]
	cmp	w0, 1
	beq	.L253
	.loc 1 2009 0
	add	x0, x29, 80
	mov	w1, 1
	bl	BsGet
.LVL323:
	strb	w0, [x19,3649]
.L254:
	.loc 1 2016 0
	add	x0, x29, 80
	mov	w1, 1
	bl	BsGet
.LVL324:
	uxtb	w0, w0
	strb	w0, [x19,3650]
	.loc 1 2017 0
	cbnz	w0, .L255
	.loc 1 2019 0
	adrp	x1, .LC16
	mov	w0, 1
	add	x1, x1, :lo12:.LC16
.L349:
	.loc 1 2068 0
	bl	dprint_linux_kernel
.LVL325:
	.loc 1 2069 0
	strb	wzr, [x20,1575]
	.loc 1 2070 0
	add	x0, x29, 80
	bl	BsPos
.LVL326:
	mov	w21, w0
.LVL327:
	.loc 1 2071 0
	adrp	x0, g_event_report
	ldr	x4, [x0,#:lo12:g_event_report]
	cbz	x4, .L282
	.loc 1 2071 0 is_stmt 0 discriminator 1
	ldr	w0, [x20,2808]
	mov	w1, 102
	mov	x2, 0
	mov	w3, 0
	blr	x4
.LVL328:
	.loc 1 2072 0 is_stmt 1
	mov	w0, w21
	b	.L208
.LVL329:
.L364:
	.loc 1 1918 0
	strb	wzr, [x20,1575]
	.loc 1 1919 0
	add	x0, x29, 80
	bl	BsPos
.LVL330:
	mov	w21, w0
.LVL331:
	.loc 1 1920 0
	adrp	x0, g_event_report
	ldr	x4, [x0,#:lo12:g_event_report]
	cbz	x4, .L239
	.loc 1 1920 0 is_stmt 0 discriminator 1
	ldr	w0, [x20,2808]
	mov	w1, 102
	mov	x2, 0
	mov	w3, 0
	blr	x4
.LVL332:
.L239:
	.loc 1 1921 0 is_stmt 1
	adrp	x1, .LC12
	mov	w0, 1
	add	x1, x1, :lo12:.LC12
	bl	dprint_linux_kernel
.LVL333:
	.loc 1 1923 0
	mov	w0, w21
	b	.L208
.LVL334:
.L255:
	.loc 1 2026 0
	mov	w1, 1
	add	x0, x29, 80
	bl	BsGet
.LVL335:
	strb	w0, [x19,3651]
	.loc 1 2027 0
	mov	w1, 1
	add	x0, x29, 80
	bl	BsGet
.LVL336:
	uxtb	w0, w0
	strb	w0, [x19,3652]
	.loc 1 2028 0
	cbnz	w0, .L368
	.loc 1 2037 0
	ldrb	w0, [x19,3633]
	cmp	w0, 1
	beq	.L257
	.loc 1 2039 0
	add	x0, x29, 80
	mov	w1, 1
	bl	BsGet
.LVL337:
	uxtb	w0, w0
	strb	w0, [x19,3653]
	.loc 1 2040 0
	cbz	w0, .L258
	.loc 1 2042 0
	adrp	x1, .LC18
	mov	w0, 1
	add	x1, x1, :lo12:.LC18
	b	.L349
.L253:
	.loc 1 2013 0
	strb	wzr, [x19,3649]
	b	.L254
.L367:
	.loc 1 1980 0
	add	x0, x29, 80
	mov	w1, 1
	bl	BsGet
.LVL338:
	uxtb	w0, w0
	strb	w0, [x19,3647]
	.loc 1 1981 0
	cbnz	w0, .L369
	mov	x1, 0
	adrp	x0, .LANCHOR1
.L249:
	.loc 1 1989 0
	add	x2, x0, :lo12:.LANCHOR1
	add	x3, x21, x1
	ldr	x2, [x1,x2]
	add	x1, x1, 8
	str	x2, [x3,20104]
	cmp	x1, 256
	bne	.L249
.L250:
	.loc 1 1993 0
	add	x0, x29, 80
	mov	w1, 1
	bl	BsGet
.LVL339:
	uxtb	w0, w0
	strb	w0, [x19,3648]
	.loc 1 1994 0
	cbnz	w0, .L370
	adrp	x0, .LANCHOR1
	mov	x1, 0
	.loc 1 2002 0
	add	x0, x0, :lo12:.LANCHOR1
.L251:
	add	x2, x0, 256
	add	x3, x21, x1
	ldr	x2, [x1,x2]
	add	x1, x1, 8
	str	x2, [x3,20360]
	cmp	x1, 256
	bne	.L251
	b	.L248
.L369:
	.loc 1 1983 0
	add	x0, x29, 80
	add	x1, x19, 3720
	bl	Bs_Get_Matrix
.LVL340:
	b	.L250
.L257:
	.loc 1 2061 0
	strb	wzr, [x19,3653]
	.loc 1 2062 0
	strb	wzr, [x19,3654]
.L259:
	.loc 1 2065 0
	add	x0, x29, 80
	mov	w1, 1
	bl	BsGet
.LVL341:
	uxtb	w0, w0
	strb	w0, [x19,3655]
	.loc 1 2066 0
	cbz	w0, .L260
	.loc 1 2068 0
	adrp	x1, .LC20
	mov	w0, 1
	add	x1, x1, :lo12:.LC20
	b	.L349
.L368:
	.loc 1 2030 0
	adrp	x1, .LC17
	mov	w0, 1
	add	x1, x1, :lo12:.LC17
	b	.L349
.L260:
	.loc 1 2076 0
	mov	w3, 1
	.loc 1 2081 0
	mov	x1, x25
	mov	x2, 604
	.loc 1 2076 0
	strb	w3, [x20,1575]
	.loc 1 2077 0
	strb	w3, [x20,805]
	.loc 1 2081 0
	add	x0, x20, 140
	.loc 1 2080 0
	strb	w3, [x20,1576]
	.loc 1 2081 0
	bl	memcpy
.LVL342:
	.loc 1 2083 0
	add	x0, x29, 80
	bl	BsPos
.LVL343:
	.loc 1 2085 0
	b	.L208
.L258:
	.loc 1 2049 0
	add	x0, x29, 80
	mov	w1, 1
	bl	BsGet
.LVL344:
	uxtb	w0, w0
	strb	w0, [x19,3654]
	.loc 1 2050 0
	cbz	w0, .L259
	.loc 1 2052 0
	adrp	x1, .LC19
	mov	w0, 1
	add	x1, x1, :lo12:.LC19
	b	.L349
.L370:
	.loc 1 1996 0
	add	x0, x29, 80
	add	x1, x19, 3976
	bl	Bs_Get_Matrix
.LVL345:
	b	.L248
	.cfi_endproc
.LFE2330:
	.size	Mp4_Syntax_Vol, .-Mp4_Syntax_Vol
	.align	2
	.global	Mp4_Syntax_Vos
	.type	Mp4_Syntax_Vos, %function
Mp4_Syntax_Vos:
.LFB2331:
	.loc 1 2105 0
	.cfi_startproc
.LVL346:
	stp	x29, x30, [sp, -96]!
	.cfi_def_cfa_offset 96
	.cfi_offset 29, -96
	.cfi_offset 30, -88
	mov	x3, x0
	add	x29, sp, 0
	.cfi_def_cfa_register 29
	str	x21, [sp,32]
	.cfi_offset 21, -64
	adrp	x21, __stack_chk_guard
	stp	x19, x20, [sp,16]
	.cfi_offset 19, -80
	.cfi_offset 20, -72
	.loc 1 2113 0
	add	x19, x3, 16384
	.loc 1 2110 0
	add	x20, x0, 20480
	.loc 1 2105 0
	ldr	x3, [x21,#:lo12:__stack_chk_guard]
	.loc 1 2109 0
	add	x0, x29, 48
.LVL347:
	.loc 1 2105 0
	str	x3, [x29,88]
	.loc 1 2109 0
	bl	BsInit
.LVL348:
	.loc 1 2110 0
	str	wzr, [x20,828]
	.loc 1 2112 0
	mov	w1, 32
	add	x0, x29, 48
	bl	BsSkip
.LVL349:
	.loc 1 2113 0
	mov	w1, 8
	add	x0, x29, 48
	bl	BsGet
.LVL350:
	.loc 1 2117 0
	sub	w2, w0, #1
	.loc 1 2118 0
	sub	w1, w0, #240
	.loc 1 2117 0
	cmp	w2, 2
	cset	w2, ls
	.loc 1 2118 0
	cmp	w1, 5
	cset	w1, ls
	.loc 1 2113 0
	str	w0, [x19,3616]
	.loc 1 2123 0
	orr	w1, w2, w1
	cbnz	w1, .L377
	cmp	w0, 8
	beq	.L377
	.loc 1 2129 0
	cbz	w0, .L381
	.loc 1 2139 0
	adrp	x0, g_event_report
	.loc 1 2138 0
	strb	wzr, [x20,1572]
	.loc 1 2139 0
	ldr	x4, [x0,#:lo12:g_event_report]
	cbz	x4, .L374
	.loc 1 2139 0 is_stmt 0 discriminator 1
	ldr	w0, [x20,2808]
	mov	w1, 102
	mov	x2, 0
	mov	w3, 0
	blr	x4
.LVL351:
	b	.L374
.L377:
	.loc 1 2127 0 is_stmt 1
	str	w0, [x20,828]
	.loc 1 2126 0
	mov	w0, 1
	strb	w0, [x20,1572]
.L374:
	.loc 1 2141 0
	add	x0, x29, 48
	bl	BsPos
.LVL352:
	.loc 1 2144 0
	ldr	x2, [x29,88]
	ldr	x1, [x21,#:lo12:__stack_chk_guard]
	cmp	x2, x1
	bne	.L382
	ldp	x19, x20, [sp,16]
	.cfi_remember_state
	.cfi_restore 20
	.cfi_restore 19
	ldr	x21, [sp,32]
	.cfi_restore 21
	ldp	x29, x30, [sp], 96
	.cfi_restore 30
	.cfi_restore 29
	.cfi_def_cfa 31, 0
	ret
.L381:
	.cfi_restore_state
	.loc 1 2131 0
	adrp	x1, .LC21
	mov	w0, 1
	add	x1, x1, :lo12:.LC21
	mov	w2, 0
	bl	dprint_linux_kernel
.LVL353:
	.loc 1 2133 0
	mov	w0, 1
	strb	w0, [x20,1572]
	.loc 1 2134 0
	ldr	w0, [x19,3616]
	str	w0, [x20,828]
	b	.L374
.L382:
	.loc 1 2144 0
	bl	__stack_chk_fail
.LVL354:
	.cfi_endproc
.LFE2331:
	.size	Mp4_Syntax_Vos, .-Mp4_Syntax_Vos
	.align	2
	.global	Frame_Init
	.type	Frame_Init, %function
Frame_Init:
.LFB2333:
	.loc 1 2545 0
	.cfi_startproc
.LVL355:
	stp	x29, x30, [sp, -144]!
	.cfi_def_cfa_offset 144
	.cfi_offset 29, -144
	.cfi_offset 30, -136
	add	x29, sp, 0
	.cfi_def_cfa_register 29
	stp	x19, x20, [sp,16]
	stp	x21, x22, [sp,32]
	stp	x23, x24, [sp,48]
	str	x27, [sp,80]
	.cfi_offset 19, -128
	.cfi_offset 20, -120
	.cfi_offset 21, -112
	.cfi_offset 22, -104
	.cfi_offset 23, -96
	.cfi_offset 24, -88
	.cfi_offset 27, -64
	adrp	x24, __stack_chk_guard
	stp	x25, x26, [sp,64]
	.cfi_offset 25, -80
	.cfi_offset 26, -72
	.loc 1 2545 0
	mov	w22, w1
	mov	x19, x0
	.loc 1 2550 0
	ldr	x1, [x0,22088]
.LVL356:
	.loc 1 2545 0
	mov	w27, w2
	ldr	x0, [x24,#:lo12:__stack_chk_guard]
.LVL357:
	str	x0, [x29,136]
	.loc 1 2550 0
	ldr	w21, [x1,772]
	.loc 1 2550 0 is_stmt 0 discriminator 1
	ldr	w0, [x1,28]
	cmp	w0, 25
	.loc 1 2550 0
	cbnz	w21, .L384
	.loc 1 2550 0 discriminator 1
	beq	.L417
.L408:
	.loc 1 2586 0 is_stmt 1
	mov	w23, 2
.LVL358:
	.loc 1 2587 0
	mov	w26, 5
.LVL359:
	.loc 1 2585 0
	mov	w25, 3
.LVL360:
	add	x20, x19, 20480
.LVL361:
.L385:
	.loc 1 2612 0
	ldr	w0, [x1,792]
	cmp	w0, 1
	beq	.L396
	.loc 1 2614 0
	adrp	x3, g_vdm_hal_fun_ptr+80
	adrp	x21, .LANCHOR3
	add	x21, x21, :lo12:.LANCHOR3
	ldr	w0, [x1,20]
	ldr	w6, [x20,2808]
	mov	w2, w22
	ldr	x8, [x3,#:lo12:g_vdm_hal_fun_ptr+80]
	mov	w4, 2
	ldr	w1, [x1,24]
	mov	w3, w27
	mov	w5, 40
	mov	x7, x21
	blr	x8
.LVL362:
	cbnz	w0, .L418
	.loc 1 2620 0
	ldr	w2, [x21,268]
	ldr	w3, [x21,140]
	cmp	w2, 1
	ble	.L399
	.loc 1 2620 0 is_stmt 0 discriminator 1
	cmp	w3, 2
	ble	.L399
	.loc 1 2627 0 is_stmt 1
	ldr	w0, [x21,8]
	str	w0, [x20,1640]
	.loc 1 2628 0
	bl	MEM_Phy2Vir
.LVL363:
	str	x0, [x19,22104]
	ldr	x1, [x19,22088]
.L396:
	.loc 1 2637 0
	ldr	w0, [x1,28]
	.loc 1 2632 0
	stp	xzr, xzr, [x29,112]
	.loc 1 2633 0
	str	w22, [x29,116]
	.loc 1 2637 0
	cmp	w0, 24
	.loc 1 2634 0
	str	w27, [x29,120]
	.loc 1 2635 0
	str	w22, [x29,124]
	.loc 1 2636 0
	str	w27, [x29,128]
	.loc 1 2637 0
	beq	.L401
	.loc 1 2637 0 is_stmt 0 discriminator 1
	strb	w25, [x29,113]
	.loc 1 2639 0 is_stmt 1 discriminator 1
	sxtb	w23, w23
.LVL364:
	.loc 1 2638 0
	strb	w26, [x29,114]
.L404:
	.loc 1 2642 0
	ldr	w0, [x20,2808]
	add	x1, x29, 112
	.loc 1 2639 0 discriminator 4
	strb	w23, [x29,115]
	.loc 1 2642 0
	bl	FSP_ConfigInstance
.LVL365:
	mov	w21, w0
	cbnz	w0, .L402
.LBB29:
	.loc 1 2645 0
	ldr	x2, [x19,22088]
	add	x3, x29, 108
	ldr	w0, [x20,2808]
	ldr	w1, [x2,20]
	ldr	w2, [x2,24]
	bl	FSP_PartitionFsMemory
.LVL366:
	.loc 1 2647 0
	cbnz	w0, .L419
.LBE29:
	.loc 1 2660 0
	mov	w0, 1
	str	w0, [x20,2812]
.LVL367:
.L389:
	.loc 1 2663 0
	ldr	x2, [x29,136]
	mov	w0, w21
	ldr	x1, [x24,#:lo12:__stack_chk_guard]
	cmp	x2, x1
	bne	.L420
	ldp	x19, x20, [sp,16]
	.cfi_remember_state
	.cfi_restore 20
	.cfi_restore 19
.LVL368:
	ldp	x21, x22, [sp,32]
	.cfi_restore 22
	.cfi_restore 21
.LVL369:
	ldp	x23, x24, [sp,48]
	.cfi_restore 24
	.cfi_restore 23
.LVL370:
	ldp	x25, x26, [sp,64]
	.cfi_restore 26
	.cfi_restore 25
.LVL371:
	ldr	x27, [sp,80]
	.cfi_restore 27
.LVL372:
	ldp	x29, x30, [sp], 144
	.cfi_restore 30
	.cfi_restore 29
	.cfi_def_cfa 31, 0
	ret
.LVL373:
.L384:
	.cfi_restore_state
	.loc 1 2583 0
	bne	.L408
	.loc 1 2591 0
	ldr	w4, [x1,732]
	ldr	w5, [x1,736]
	cmp	w22, w4
	bhi	.L392
	.loc 1 2591 0 is_stmt 0 discriminator 1
	cmp	w2, w5
	bhi	.L392
	.loc 1 2601 0 is_stmt 1
	ldr	w21, [x1,760]
	.loc 1 2603 0
	mov	w23, 1
.LVL374:
	.loc 1 2600 0
	ldr	w25, [x1,756]
	add	w25, w25, w23
.LVL375:
	.loc 1 2601 0
	cbnz	w21, .L421
	.loc 1 2610 0
	ldr	w26, [x1,780]
	add	x20, x19, 20480
	b	.L385
.LVL376:
.L401:
	.loc 1 2638 0
	strb	w26, [x29,114]
	.loc 1 2639 0 discriminator 2
	mov	w23, 1
.LVL377:
	b	.L404
.LVL378:
.L417:
	.loc 1 2552 0
	ldr	w4, [x1,732]
	cmp	w4, w22
	bcc	.L422
	.loc 1 2552 0 is_stmt 0 discriminator 1
	ldr	w0, [x1,736]
	cmp	w0, w2
	mov	w5, w0
	bcc	.L392
	.loc 1 2565 0 is_stmt 1
	add	x20, x19, 20480
	ldr	w2, [x20,2812]
	cmp	w2, 1
	beq	.L389
	.loc 1 2572 0
	ldr	w21, [x1,760]
	.loc 1 2574 0
	mov	w23, 1
.LVL379:
	.loc 1 2571 0
	ldr	w25, [x1,756]
	add	w25, w25, w23
.LVL380:
	.loc 1 2572 0
	cbz	w21, .L390
	.loc 1 2579 0
	cmp	w25, 17
	mov	w23, 17
	csel	w23, w25, w23, le
.LVL381:
.L390:
	.loc 1 2581 0
	ldr	w26, [x1,780]
	mov	w27, w0
	mov	w22, w4
	b	.L385
.LVL382:
.L421:
	.loc 1 2608 0
	cmp	w25, 17
	mov	w23, 17
	csel	w23, w25, w23, le
.LVL383:
	.loc 1 2610 0
	ldr	w26, [x1,780]
	add	x20, x19, 20480
	b	.L385
.LVL384:
.L399:
	.loc 1 2622 0
	adrp	x1, .LC24
	mov	w0, 0
	add	x1, x1, :lo12:.LC24
	.loc 1 2623 0
	mov	w21, -1
	.loc 1 2622 0
	bl	dprint_linux_kernel
.LVL385:
	.loc 1 2623 0
	b	.L389
.LVL386:
.L402:
	.loc 1 2656 0
	adrp	x1, .LC25
	mov	w0, 0
	add	x1, x1, :lo12:.LC25
	.loc 1 2657 0
	mov	w21, -1
	.loc 1 2656 0
	bl	dprint_linux_kernel
.LVL387:
	.loc 1 2657 0
	b	.L389
.L419:
.LBB30:
	.loc 1 2649 0
	str	wzr, [x20,2812]
	.loc 1 2651 0
	mov	w21, -1
	b	.L389
.LVL388:
.L422:
	ldr	w5, [x1,736]
.LVL389:
.L392:
.LBE30:
	.loc 1 2593 0
	adrp	x1, .LC22
	mov	w2, w22
.LVL390:
	add	x1, x1, :lo12:.LC22
	mov	w3, w27
	mov	w0, 0
	.loc 1 2597 0
	mov	w21, -1
	.loc 1 2593 0
	bl	dprint_linux_kernel
.LVL391:
	.loc 1 2597 0
	b	.L389
.LVL392:
.L418:
	.loc 1 2617 0
	adrp	x1, .LC23
	mov	w0, 0
	add	x1, x1, :lo12:.LC23
	.loc 1 2618 0
	mov	w21, -1
	.loc 1 2617 0
	bl	dprint_linux_kernel
.LVL393:
	.loc 1 2618 0
	b	.L389
.L420:
	.loc 1 2663 0
	bl	__stack_chk_fail
.LVL394:
	.cfi_endproc
.LFE2333:
	.size	Frame_Init, .-Frame_Init
	.align	2
	.global	Mp4_RecordFrameAtr
	.type	Mp4_RecordFrameAtr, %function
Mp4_RecordFrameAtr:
.LFB2337:
	.loc 1 2806 0
	.cfi_startproc
.LVL395:
	stp	x29, x30, [sp, -48]!
	.cfi_def_cfa_offset 48
	.cfi_offset 29, -48
	.cfi_offset 30, -40
	add	x29, sp, 0
	.cfi_def_cfa_register 29
	stp	x19, x20, [sp,16]
	.cfi_offset 19, -32
	.cfi_offset 20, -24
	.loc 1 2815 0
	add	x20, x0, 20480
	.loc 1 2806 0
	stp	x21, x22, [sp,32]
	.cfi_offset 21, -16
	.cfi_offset 22, -8
	.loc 1 2806 0
	mov	x21, x0
	.loc 1 2815 0
	ldrb	w0, [x20,847]
.LVL396:
	cmp	w0, 15
	beq	.L440
	.loc 1 2839 0
	sub	w2, w0, #2
	uxtb	w2, w2
	cmp	w2, 1
	bls	.L433
	.loc 1 2843 0
	sub	w2, w0, #4
	uxtb	w2, w2
	cmp	w2, 1
	bls	.L434
	.loc 1 2853 0
	cmp	w0, 1
	mov	w22, 5
	csel	w22, w22, wzr, eq
.LVL397:
.L425:
	.loc 1 2856 0
	ldr	w0, [x20,2808]
.LVL398:
	bl	FSP_GetFsImagePtr
.LVL399:
	mov	x19, x0
.LVL400:
	.loc 1 2857 0
	cbz	x0, .L423
	.loc 1 2862 0
	ldr	w2, [x20,1512]
	.loc 1 2865 0
	mov	w1, w22
	.loc 1 2862 0
	str	w2, [x0,48]
	.loc 1 2863 0
	ldr	w2, [x20,1508]
	str	w2, [x0,52]
	.loc 1 2865 0
	bl	SetAspectRatio
.LVL401:
	.loc 1 2868 0
	ldr	x0, [x21,22088]
	ldr	w0, [x0,28]
	cmp	w0, 25
	beq	.L441
.L429:
	.loc 1 2883 0
	ldr	w0, [x20,1512]
	.loc 1 2916 0
	adrp	x1, .LC26
	.loc 1 2883 0
	str	w0, [x19,56]
	.loc 1 2916 0
	add	x1, x1, :lo12:.LC26
	mov	w0, 29
	.loc 1 2884 0
	ldr	w2, [x20,1508]
	str	w2, [x19,60]
	.loc 1 2885 0
	ldr	w2, [x20,1512]
	lsr	w2, w2, 1
	str	w2, [x19,64]
	.loc 1 2886 0
	ldr	w2, [x20,1508]
	lsr	w2, w2, 1
	str	w2, [x19,68]
	.loc 1 2888 0
	ldr	w2, [x20,2100]
	str	w2, [x19,92]
	.loc 1 2889 0
	ldr	w2, [x20,2096]
	str	w2, [x19,88]
	.loc 1 2890 0
	ldrb	w2, [x20,1448]
	.loc 1 2894 0
	ldrb	w5, [x20,1453]
	.loc 1 2891 0
	ldrb	w4, [x20,825]
	.loc 1 2890 0
	and	w2, w2, 3
	.loc 1 2892 0
	ldrb	w3, [x20,854]
	orr	w2, w2, w5, lsl 12
	.loc 1 2891 0
	ubfiz	w4, w4, 5, 3
	orr	w2, w2, 3072
	.loc 1 2892 0
	ubfiz	w3, w3, 8, 1
	orr	w2, w2, w4
	.loc 1 2894 0
	orr	w2, w2, w3
	.loc 1 2915 0
	mov	x3, -1
	.loc 1 2895 0
	orr	w2, w2, w22, lsl 14
	.loc 1 2890 0
	str	w2, [x19,44]
	.loc 1 2897 0
	ldrb	w2, [x20,1448]
	and	w2, w2, 3
	str	w2, [x19,36]
	.loc 1 2898 0
	ldrb	w2, [x20,1448]
	.loc 1 2900 0
	str	wzr, [x19,32]
	.loc 1 2898 0
	and	w2, w2, 3
	str	w2, [x19,40]
	.loc 1 2904 0
	ldr	x2, [x21,22624]
	str	x2, [x19,248]
	ldr	x2, [x21,22632]
	str	x2, [x19,256]
	ldr	x2, [x21,22640]
	str	x2, [x19,264]
	ldr	x2, [x21,22648]
	str	x2, [x19,272]
	.loc 1 2907 0
	ldr	x2, [x21,22088]
	ldr	x2, [x2,48]
	str	x2, [x19,224]
	.loc 1 2908 0
	ldr	x2, [x21,22088]
	ldr	x2, [x2,64]
	str	x2, [x19,232]
	.loc 1 2909 0
	ldr	x2, [x21,22088]
	ldr	x2, [x2,80]
	str	x2, [x19,240]
	.loc 1 2910 0
	ldr	x2, [x21,22088]
	ldr	w2, [x2,96]
	str	w2, [x19,8]
	.loc 1 2911 0
	ldr	x2, [x21,22088]
	ldr	w2, [x2,100]
	str	w2, [x19,12]
	.loc 1 2912 0
	ldr	x2, [x21,22088]
	ldr	w2, [x2,104]
	str	w2, [x19,16]
	.loc 1 2913 0
	ldr	x2, [x21,22088]
	ldr	w2, [x2,120]
	str	w2, [x19,20]
	.loc 1 2915 0
	ldr	x2, [x21,22088]
	str	x3, [x2,48]
	.loc 1 2916 0
	ldr	x2, [x19,224]
	ldr	x3, [x19,232]
	bl	dprint_linux_kernel
.LVL402:
.L423:
	.loc 1 2917 0
	ldp	x19, x20, [sp,16]
	.cfi_remember_state
	.cfi_restore 20
	.cfi_restore 19
.LVL403:
	ldp	x21, x22, [sp,32]
	.cfi_restore 22
	.cfi_restore 21
.LVL404:
	ldp	x29, x30, [sp], 48
	.cfi_restore 30
	.cfi_restore 29
	.cfi_def_cfa 31, 0
	ret
.LVL405:
.L441:
	.cfi_restore_state
.LBB31:
	.loc 1 2871 0
	ldr	w0, [x19,52]
	.loc 1 2870 0
	ldr	w2, [x19,76]
	.loc 1 2873 0
	ldr	w3, [x19,168]
	.loc 1 2871 0
	add	w0, w0, 15
	lsl	w1, w2, 4
	lsr	w0, w0, 4
	.loc 1 2876 0
	add	w4, w3, w2
	.loc 1 2874 0
	str	w3, [x19,136]
	.loc 1 2873 0
	madd	w0, w1, w0, w3
	str	w0, [x19,172]
	.loc 1 2877 0
	add	w2, w0, w2
	.loc 1 2875 0
	str	w0, [x19,140]
	.loc 1 2876 0
	str	w4, [x19,144]
	.loc 1 2877 0
	str	w2, [x19,148]
	.loc 1 2878 0
	str	w3, [x19,176]
	.loc 1 2879 0
	str	w0, [x19,180]
	b	.L429
.LVL406:
.L434:
.LBE31:
	.loc 1 2845 0
	mov	w22, 2
.LVL407:
	b	.L425
.LVL408:
.L433:
	.loc 1 2835 0 discriminator 9
	mov	w22, 1
.LVL409:
	b	.L425
.LVL410:
.L440:
	.loc 1 2820 0
	ldr	w0, [x20,880]
	.loc 1 2819 0
	ldr	w2, [x20,876]
	.loc 1 2822 0
	cbz	w0, .L430
.LVL411:
	cbz	w2, .L430
	.loc 1 2828 0
	ldr	w3, [x20,928]
	.loc 1 2824 0
	mov	w22, 0
.LVL412:
	.loc 1 2828 0
	mul	w0, w0, w3
	cbz	w0, .L425
	.loc 1 2834 0
	ldr	w3, [x20,924]
	lsl	w2, w2, 10
.LVL413:
	mul	w2, w2, w3
	udiv	w0, w2, w0
.LVL414:
	.loc 1 2835 0
	subs	w3, w0, #1365
	bmi	.L442
.L426:
	.loc 1 2835 0 is_stmt 0 discriminator 4
	subs	w2, w0, #1820
	bmi	.L443
.L427:
	.loc 1 2835 0 discriminator 10
	cmp	w3, w2
	mov	w22, 2
.LVL415:
	csinc	w22, w22, wzr, ge
.LVL416:
	b	.L425
.LVL417:
.L430:
	.loc 1 2824 0 is_stmt 1
	mov	w22, 0
.LVL418:
	b	.L425
.LVL419:
.L442:
	.loc 1 2835 0 discriminator 1
	mov	w3, 1365
	sub	w3, w3, w0
	b	.L426
.L443:
	.loc 1 2835 0 is_stmt 0 discriminator 5
	mov	w2, 1820
	sub	w2, w2, w0
	b	.L427
	.cfi_endproc
.LFE2337:
	.size	Mp4_RecordFrameAtr, .-Mp4_RecordFrameAtr
	.align	2
	.global	Mp4_Frame_Atr
	.type	Mp4_Frame_Atr, %function
Mp4_Frame_Atr:
.LFB2338:
	.loc 1 2936 0 is_stmt 1
	.cfi_startproc
.LVL420:
	stp	x29, x30, [sp, -48]!
	.cfi_def_cfa_offset 48
	.cfi_offset 29, -48
	.cfi_offset 30, -40
	add	x29, sp, 0
	.cfi_def_cfa_register 29
	stp	x19, x20, [sp,16]
	.cfi_offset 19, -32
	.cfi_offset 20, -24
	.loc 1 2937 0
	add	x19, x0, 20480
	.loc 1 2936 0
	str	x21, [sp,32]
	.cfi_offset 21, -16
	.loc 1 2936 0
	mov	x20, x0
	.loc 1 2937 0
	ldrb	w0, [x19,1448]
.LVL421:
	strb	w0, [x20,2]
	.loc 1 2938 0
	cmp	w0, 4
	.loc 1 2940 0
	ldr	w0, [x19,2808]
	.loc 1 2938 0
	beq	.L454
.L446:
	.loc 1 2943 0
	add	x21, x20, 40960
	mov	w1, 1
	bl	FSP_NewLogicFs
.LVL422:
	mov	w1, w0
	str	w0, [x21,2344]
	.loc 1 2944 0
	tbnz	w1, #31, .L447
	.loc 1 2944 0 is_stmt 0 discriminator 1
	ldr	w0, [x19,2812]
	cbz	w0, .L447
	.loc 1 2955 0 is_stmt 1
	mov	x0, x20
	bl	Mp4_RecordFrameAtr
.LVL423:
	.loc 1 2957 0
	str	wzr, [x19,2104]
	.loc 1 2959 0
	mov	w0, 0
.LVL424:
.L450:
	.loc 1 2960 0
	ldp	x19, x20, [sp,16]
	.cfi_remember_state
	.cfi_restore 20
	.cfi_restore 19
.LVL425:
	ldr	x21, [sp,32]
	.cfi_restore 21
	ldp	x29, x30, [sp], 48
	.cfi_restore 30
	.cfi_restore 29
	.cfi_def_cfa 31, 0
	ret
.LVL426:
.L454:
	.cfi_restore_state
	.loc 1 2940 0
	sxtw	x1, w0
	lsl	x2, x1, 4
	add	x2, x2, x1, lsl 2
	adrp	x1, g_VfmwChanStat
	add	x1, x1, :lo12:g_VfmwChanStat
	add	x1, x1, x2, lsl 4
	sub	x1, x1, x2
	ldr	w2, [x1,12]
	add	w2, w2, 1
	str	w2, [x1,12]
	b	.L446
.L447:
.LBB35:
.LBB36:
	.loc 1 2947 0
	adrp	x1, .LC27
	mov	w0, 0
	add	x1, x1, :lo12:.LC27
	bl	dprint_linux_kernel
.LVL427:
.LBB37:
	.loc 1 2948 0
	ldr	w0, [x19,2808]
	ldr	w1, [x21,2336]
	bl	FSP_GetFsImagePtr
.LVL428:
	mov	x20, x0
.LVL429:
	cbz	x0, .L449
	.loc 1 2948 0 is_stmt 0 discriminator 2
	ldr	w0, [x19,2808]
	ldr	x1, [x20,248]
	bl	FreeUsdByDec
.LVL430:
	.loc 1 2948 0 discriminator 3
	ldr	w0, [x19,2808]
	ldr	x1, [x20,256]
	bl	FreeUsdByDec
.LVL431:
	.loc 1 2948 0 discriminator 4
	ldr	w0, [x19,2808]
	ldr	x1, [x20,264]
	bl	FreeUsdByDec
.LVL432:
	.loc 1 2948 0 discriminator 5
	ldr	w0, [x19,2808]
	ldr	x1, [x20,272]
	bl	FreeUsdByDec
.LVL433:
	.loc 1 2948 0 discriminator 1
	str	xzr, [x20,248]
	str	xzr, [x20,256]
	.loc 1 2948 0 discriminator 6
	mov	w2, 1
	.loc 1 2948 0 discriminator 1
	str	xzr, [x20,264]
	str	xzr, [x20,272]
	.loc 1 2948 0 discriminator 6
	ldr	w0, [x19,2808]
	ldr	w1, [x21,2336]
	bl	FSP_ClearLogicFs
.LVL434:
	.loc 1 2948 0 discriminator 7
	ldr	w0, [x19,2808]
	mov	w2, 1
	ldr	w1, [x21,2328]
	bl	FSP_ClearLogicFs
.LVL435:
	.loc 1 2948 0 discriminator 1
	str	wzr, [x21,2328]
	str	wzr, [x21,2336]
	.loc 1 2948 0 discriminator 8
	ldr	w0, [x19,2808]
	bl	FSP_GetNullLogicFs
.LVL436:
	.loc 1 2948 0 discriminator 1
	str	w0, [x21,2336]
	str	w0, [x21,2328]
.L449:
.LBE37:
	.loc 1 2950 0 is_stmt 1
	ldr	w0, [x19,2808]
	add	x1, x19, 2192
	.loc 1 2949 0
	str	wzr, [x19,2816]
	.loc 1 2950 0
	bl	FSP_ClearNotInVoQueue
.LVL437:
	mov	w0, -1
	b	.L450
.LBE36:
.LBE35:
	.cfi_endproc
.LFE2338:
	.size	Mp4_Frame_Atr, .-Mp4_Frame_Atr
	.align	2
	.global	Mp4_Set_DecPar
	.type	Mp4_Set_DecPar, %function
Mp4_Set_DecPar:
.LFB2339:
	.loc 1 2979 0
	.cfi_startproc
.LVL438:
	stp	x29, x30, [sp, -144]!
	.cfi_def_cfa_offset 144
	.cfi_offset 29, -144
	.cfi_offset 30, -136
	add	x29, sp, 0
	.cfi_def_cfa_register 29
	stp	x21, x22, [sp,32]
	stp	x23, x24, [sp,48]
	stp	x19, x20, [sp,16]
	str	x25, [sp,64]
	.cfi_offset 21, -112
	.cfi_offset 22, -104
	.cfi_offset 23, -96
	.cfi_offset 24, -88
	.cfi_offset 19, -128
	.cfi_offset 20, -120
	.cfi_offset 25, -80
	.loc 1 2979 0
	adrp	x24, __stack_chk_guard
	.loc 1 2987 0
	add	x1, x29, 88
.LVL439:
	.loc 1 2979 0
	mov	x22, x0
	.loc 1 2994 0
	ldrb	w0, [x2,1]
.LVL440:
	.loc 1 2979 0
	ldr	x3, [x24,#:lo12:__stack_chk_guard]
	.loc 1 2987 0
	stp	xzr, xzr, [x1]
	stp	xzr, xzr, [x1,16]
	stp	xzr, xzr, [x1,32]
	.loc 1 2979 0
	str	x3, [x29,136]
	.loc 1 2994 0
	cmp	w0, 1
	beq	.L489
	.loc 1 3019 0
	add	x19, x22, 1048
	ldr	w0, [x2,84]
	.loc 1 3020 0
	add	x21, x22, 20480
	.loc 1 3019 0
	and	w0, w0, -4
	str	w0, [x19,180]
	.loc 1 3020 0
	ldr	w0, [x21,1592]
	str	w0, [x19,192]
	.loc 1 3022 0
	ubfiz	w0, w0, 3, 2
	.loc 1 3021 0
	ldr	x4, [x22,22064]
	str	x4, [x19,16]
	.loc 1 3022 0
	ldr	w4, [x21,1600]
	add	w0, w0, w4
	str	w0, [x19,200]
	.loc 1 3023 0
	ldr	w0, [x21,1596]
	lsl	w0, w0, 3
	sub	w0, w0, w4
	str	w0, [x19,208]
	.loc 1 3025 0
	ldr	w0, [x2,84]
	str	w0, [x19,196]
	.loc 1 3026 0
	ldr	x0, [x2,144]
	str	x0, [x19,24]
	.loc 1 3027 0
	ldr	w0, [x2,84]
	ubfiz	w0, w0, 3, 2
	str	w0, [x19,204]
	.loc 1 3037 0
	ldr	w0, [x2,88]
	.loc 1 3039 0
	str	wzr, [x19,188]
	.loc 1 3037 0
	lsl	w0, w0, 3
	str	w0, [x19,212]
.L457:
	.loc 1 3043 0
	add	x20, x21, 804
	ldr	w3, [x20,708]
	add	w0, w3, 15
	lsr	w0, w0, 4
	strh	w0, [x19,176]
	.loc 1 3044 0
	ldr	w2, [x20,704]
.LVL441:
	add	w0, w2, 15
	lsr	w0, w0, 4
	strh	w0, [x19,178]
	.loc 1 3045 0
	ldrb	w4, [x20,644]
	strb	w4, [x22,1048]
	.loc 1 3046 0
	ldrb	w0, [x20,54]
	strb	w0, [x19,1]
	.loc 1 3047 0
	ldrb	w0, [x20,9]
	strb	w0, [x19,2]
	.loc 1 3048 0
	ldrb	w0, [x20,651]
	strb	w0, [x19,3]
	.loc 1 3049 0
	ldrb	w0, [x20,656]
	strb	w0, [x19,4]
	.loc 1 3050 0
	ldrb	w0, [x20,655]
	strb	w0, [x19,5]
	.loc 1 3051 0
	ldr	w0, [x20,108]
	strb	w0, [x19,6]
	.loc 1 3052 0
	ldrb	w0, [x20,652]
	strb	w0, [x19,7]
	.loc 1 3053 0
	ldrb	w0, [x20,653]
	strb	w0, [x19,8]
	.loc 1 3054 0
	ldrb	w0, [x20,648]
	strb	w0, [x19,9]
	.loc 1 3055 0
	ldrb	w0, [x20,59]
	strb	w0, [x19,10]
	.loc 1 3056 0
	ldrb	w0, [x20,57]
	strb	w0, [x19,11]
	.loc 1 3057 0
	ldrb	w0, [x20,646]
	strb	w0, [x19,12]
	.loc 1 3058 0
	ldrb	w0, [x20,650]
	strb	w0, [x19,13]
	.loc 1 3059 0
	ldrb	w0, [x20,649]
	strb	w0, [x19,14]
	.loc 1 3060 0
	ldrb	w0, [x20,50]
	strb	w0, [x19,15]
	.loc 1 3061 0
	ldr	w0, [x20,740]
	str	w0, [x19,216]
	.loc 1 3062 0
	ldr	w0, [x20,736]
	str	w0, [x19,220]
	.loc 1 3064 0
	ldrb	w0, [x20,12]
	strb	w0, [x19,162]
	.loc 1 3065 0
	ldrb	w0, [x20,11]
	strb	w0, [x19,161]
	.loc 1 3066 0
	ldrb	w0, [x20,10]
	strb	w0, [x19,160]
	.loc 1 3067 0
	ldrb	w0, [x20,13]
	strb	w0, [x19,163]
	.loc 1 3068 0
	ldrb	w0, [x20,14]
	strb	w0, [x19,164]
	.loc 1 3069 0
	ldrb	w0, [x20,15]
	strb	w0, [x19,165]
	.loc 1 3071 0
	str	w3, [x19,14616]
	.loc 1 3072 0
	str	w2, [x19,14612]
	.loc 1 3073 0
	ldrb	w0, [x20,52]
	str	w0, [x19,14620]
	.loc 1 3074 0 discriminator 1
	cmp	w0, 2
	bne	.L458
	cmp	w4, 3
	beq	.L490
.L458:
	.loc 1 3091 0
	ldrb	w0, [x21,869]
	str	w0, [x19,14628]
	.loc 1 3092 0
	str	wzr, [x19,14624]
	.loc 1 3093 0
	str	wzr, [x19,14632]
	.loc 1 3094 0
	str	wzr, [x19,14636]
	.loc 1 3095 0
	str	wzr, [x19,14640]
	.loc 1 3096 0
	str	wzr, [x19,14644]
	.loc 1 3098 0
	str	wzr, [x19,14648]
	.loc 1 3099 0
	str	wzr, [x19,14652]
	.loc 1 3100 0
	str	wzr, [x19,14656]
	.loc 1 3101 0
	str	wzr, [x19,14660]
.L459:
	.loc 1 3104 0
	add	x23, x22, 40960
	ldr	w0, [x21,2808]
	ldr	w1, [x23,2344]
	bl	FSP_GetLogicFs
.LVL442:
	mov	x20, x0
.LVL443:
	.loc 1 3105 0
	ldr	w1, [x23,2328]
	ldr	w0, [x21,2808]
	bl	FSP_GetLogicFs
.LVL444:
	mov	x25, x0
.LVL445:
	.loc 1 3106 0
	ldr	w1, [x23,2336]
	ldr	w0, [x21,2808]
	bl	FSP_GetLogicFs
.LVL446:
	.loc 1 3108 0
	cmp	x25, xzr
	cset	w2, eq
	cmp	x20, xzr
	cset	w1, eq
	.loc 1 3108 0 is_stmt 0 discriminator 1
	orr	w1, w2, w1
	cbnz	w1, .L477
.LVL447:
	cbz	x0, .L477
	.loc 1 3113 0 is_stmt 1
	ldr	x5, [x20,296]
	ldr	x6, [x20,312]
	ldr	x7, [x20,304]
	cbz	x5, .L464
	.loc 1 3113 0 is_stmt 0 discriminator 1
	cbz	x6, .L464
	.loc 1 3113 0 discriminator 2
	cbz	x7, .L464
	.loc 1 3121 0 is_stmt 1
	ldr	w1, [x20,320]
	str	w1, [x19,236]
	.loc 1 3122 0
	ldr	w1, [x0,320]
	str	w1, [x19,240]
	.loc 1 3124 0
	ldr	x1, [x0,296]
	cbz	x1, .L491
.L485:
	.loc 1 3124 0 is_stmt 0 discriminator 2
	ldr	w1, [x1,12]
	.loc 1 3124 0 discriminator 4
	str	w1, [x19,232]
	.loc 1 3125 0 is_stmt 1
	ldr	x1, [x25,296]
	cbz	x1, .L492
.L486:
	.loc 1 3125 0 is_stmt 0 discriminator 2
	ldr	w1, [x1,12]
	.loc 1 3125 0 discriminator 4
	str	w1, [x19,228]
	.loc 1 3126 0 is_stmt 1
	ldr	x1, [x20,296]
	ldr	w1, [x1,12]
	str	w1, [x19,224]
	.loc 1 3128 0
	ldr	x0, [x0,312]
.LVL448:
	cbz	x0, .L493
.L487:
	.loc 1 3128 0 is_stmt 0 discriminator 2
	ldr	w0, [x0,12]
	.loc 1 3128 0 discriminator 4
	str	w0, [x19,14584]
	.loc 1 3129 0 is_stmt 1
	ldr	x0, [x25,312]
	cbz	x0, .L494
.L488:
	.loc 1 3129 0 is_stmt 0 discriminator 2
	ldr	w0, [x0,12]
	add	x1, x22, 1080
	.loc 1 3129 0 discriminator 4
	str	w0, [x19,14588]
	add	x3, x21, 1444
	add	x0, x21, 1188
	.loc 1 3130 0 is_stmt 1
	ldr	x2, [x20,312]
	ldr	w2, [x2,12]
	str	w2, [x19,14592]
	.loc 1 3131 0
	ldr	x2, [x20,304]
	ldr	w2, [x2,12]
	str	w2, [x19,14596]
	.loc 1 3135 0
	ldr	x2, [x20,304]
	ldr	w2, [x2,20]
	str	w2, [x19,14608]
.L475:
	add	x1, x1, 1
	.loc 1 3139 0
	ldr	w2, [x0,-256]
	strb	w2, [x1,-1]
	.loc 1 3140 0
	ldr	w2, [x0],4
	strb	w2, [x1,63]
	.loc 1 3137 0 discriminator 1
	cmp	x0, x3
	bne	.L475
	.loc 1 3143 0
	ldrh	w0, [x19,176]
	ldrh	w1, [x19,178]
	mul	w0, w0, w1
	str	w0, [x21,1480]
	.loc 1 3144 0
	ldr	x0, [x22,22088]
	ldr	w0, [x0,676]
	str	w0, [x19,14664]
.L455:
	.loc 1 3147 0
	ldr	x1, [x29,136]
	ldr	x0, [x24,#:lo12:__stack_chk_guard]
	cmp	x1, x0
	bne	.L495
	ldp	x19, x20, [sp,16]
	.cfi_remember_state
	.cfi_restore 20
	.cfi_restore 19
.LVL449:
	ldp	x21, x22, [sp,32]
	.cfi_restore 22
	.cfi_restore 21
.LVL450:
	ldp	x23, x24, [sp,48]
	.cfi_restore 24
	.cfi_restore 23
	ldr	x25, [sp,64]
	.cfi_restore 25
.LVL451:
	ldp	x29, x30, [sp], 144
	.cfi_restore 30
	.cfi_restore 29
	.cfi_def_cfa 31, 0
	ret
.LVL452:
.L477:
	.cfi_restore_state
	.loc 1 3110 0
	adrp	x2, .LANCHOR1
	adrp	x1, .LC28
	add	x2, x2, :lo12:.LANCHOR1
	add	x1, x1, :lo12:.LC28
	add	x2, x2, 528
	mov	w3, 3110
	mov	w0, 0
.LVL453:
	bl	dprint_linux_kernel
.LVL454:
	.loc 1 3111 0
	b	.L455
.LVL455:
.L489:
	.loc 1 2996 0
	add	x21, x22, 20480
	add	x19, x22, 1048
	ldr	w2, [x21,1592]
.LVL456:
	str	w2, [x19,180]
	.loc 1 2997 0
	and	w4, w2, -4
	str	w4, [x19,192]
	.loc 1 2999 0
	ubfiz	w2, w2, 3, 2
	.loc 1 2998 0
	ldr	x4, [x22,22064]
	str	x4, [x19,16]
	.loc 1 2999 0
	ldr	w4, [x21,1600]
	add	w2, w2, w4
	str	w2, [x19,200]
	.loc 1 3009 0
	ldr	w2, [x21,1596]
	.loc 1 3010 0
	str	w0, [x19,188]
	.loc 1 3009 0
	lsl	w0, w2, 3
	.loc 1 3012 0
	str	wzr, [x19,196]
	.loc 1 3009 0
	sub	w0, w0, w4
	.loc 1 3013 0
	str	wzr, [x19,204]
	.loc 1 3009 0
	str	w0, [x19,208]
	.loc 1 3014 0
	str	wzr, [x19,212]
	b	.L457
.LVL457:
.L491:
	.loc 1 3124 0 discriminator 2
	ldr	x1, [x20,296]
	b	.L485
.L492:
	.loc 1 3125 0 discriminator 2
	ldr	x1, [x20,296]
	b	.L486
.LVL458:
.L493:
	.loc 1 3128 0 discriminator 2
	ldr	x0, [x20,312]
	b	.L487
.L494:
	.loc 1 3129 0 discriminator 2
	ldr	x0, [x20,312]
	b	.L488
.LVL459:
.L464:
	.loc 1 3115 0
	ldr	w2, [x23,2328]
	adrp	x1, .LC29
	ldr	w3, [x23,2344]
	add	x1, x1, :lo12:.LC29
	ldr	w4, [x23,2336]
	mov	w0, 0
.LVL460:
	bl	dprint_linux_kernel
.LVL461:
	.loc 1 3117 0
	b	.L455
.LVL462:
.L490:
	.loc 1 3076 0
	mov	x0, x20
	bl	MP4_GetGMCparam
.LVL463:
	.loc 1 3077 0
	ldrb	w0, [x20,65]
	str	w0, [x19,14628]
	.loc 1 3078 0
	ldr	w0, [x29,88]
	str	w0, [x19,14624]
	.loc 1 3079 0
	ldr	w0, [x29,104]
	str	w0, [x19,14632]
	.loc 1 3080 0
	ldr	w0, [x29,108]
	str	w0, [x19,14636]
	.loc 1 3081 0
	ldr	w0, [x29,112]
	str	w0, [x19,14640]
	.loc 1 3082 0
	ldr	w0, [x29,116]
	str	w0, [x19,14644]
	.loc 1 3084 0
	ldr	w0, [x29,120]
	str	w0, [x19,14648]
	.loc 1 3085 0
	ldr	w0, [x29,124]
	str	w0, [x19,14652]
	.loc 1 3086 0
	ldr	w0, [x29,128]
	str	w0, [x19,14656]
	.loc 1 3087 0
	ldr	w0, [x29,132]
	str	w0, [x19,14660]
	b	.L459
.LVL464:
.L495:
	.loc 1 3147 0
	bl	__stack_chk_fail
.LVL465:
	.cfi_endproc
.LFE2339:
	.size	Mp4_Set_DecPar, .-Mp4_Set_DecPar
	.align	2
	.global	Mp4_Get_DecMode
	.type	Mp4_Get_DecMode, %function
Mp4_Get_DecMode:
.LFB2340:
	.loc 1 3165 0
	.cfi_startproc
.LVL466:
	.loc 1 3166 0
	add	x1, x0, 20480
	.loc 1 3166 0 is_stmt 0 discriminator 1
	ldr	x0, [x0,22088]
.LVL467:
	.loc 1 3166 0
	ldr	w2, [x1,1652]
	cmp	w2, 2
	beq	.L508
	.loc 1 3173 0 is_stmt 1
	ldr	w0, [x0,12]
	cmp	w0, 2
	beq	.L501
.L509:
	.loc 1 3177 0
	cmp	w0, 1
	beq	.L507
	.loc 1 3183 0
	cmp	w0, 4
	csel	w0, w0, wzr, eq
.L507:
	str	w0, [x1,1652]
	.loc 1 3191 0
	ret
.L508:
	.loc 1 3166 0 discriminator 1
	ldr	w2, [x0,12]
	cmp	w2, 2
	beq	.L501
	.loc 1 3169 0
	mov	w2, 1
	str	w2, [x1,2184]
	.loc 1 3173 0
	ldr	w0, [x0,12]
	cmp	w0, 2
	bne	.L509
.L501:
	.loc 1 3175 0
	mov	w0, 2
	str	w0, [x1,1652]
	.loc 1 3191 0
	ret
	.cfi_endproc
.LFE2340:
	.size	Mp4_Get_DecMode, .-Mp4_Get_DecMode
	.align	2
	.global	GetTrailingOneLen
	.type	GetTrailingOneLen, %function
GetTrailingOneLen:
.LFB2341:
	.loc 1 3195 0
	.cfi_startproc
.LVL468:
.LBB38:
	.loc 1 3205 0
	add	x0, x0, x1, sxtw
.LVL469:
	ldrb	w1, [x0,-1]
.LVL470:
	.loc 1 3210 0
	mov	w0, 1
.LVL471:
	.loc 1 3208 0
	tbz	x1, 0, .L511
	mov	w0, 0
.L512:
	.loc 1 3217 0
	lsr	w1, w1, 1
	.loc 1 3216 0
	add	w0, w0, 1
	.loc 1 3214 0
	tbnz	x1, 0, .L512
	.loc 1 3219 0 discriminator 1
	cmp	w0, wzr
	csinc	w0, w0, w0, eq
.L511:
.LVL472:
.LBE38:
	.loc 1 3226 0
	ret
	.cfi_endproc
.LFE2341:
	.size	GetTrailingOneLen, .-GetTrailingOneLen
	.align	2
	.global	MPEG4DEC_Init
	.type	MPEG4DEC_Init, %function
MPEG4DEC_Init:
.LFB2342:
	.loc 1 3244 0
	.cfi_startproc
.LVL473:
	sub	sp, sp, #1424
	.cfi_def_cfa_offset 1424
	stp	x29, x30, [sp, -96]!
	.cfi_def_cfa_offset 1520
	.cfi_offset 29, -1520
	.cfi_offset 30, -1512
	add	x29, sp, 0
	.cfi_def_cfa_register 29
	stp	x19, x20, [sp,16]
	.cfi_offset 19, -1504
	.cfi_offset 20, -1496
	adrp	x20, __stack_chk_guard
	stp	x23, x24, [sp,48]
	.cfi_offset 23, -1472
	.cfi_offset 24, -1464
	mov	x23, x0
	ldr	x0, [x20,#:lo12:__stack_chk_guard]
.LVL474:
	stp	x21, x22, [sp,32]
	stp	x25, x26, [sp,64]
	stp	x27, x28, [sp,80]
	.cfi_offset 21, -1488
	.cfi_offset 22, -1480
	.cfi_offset 25, -1456
	.cfi_offset 26, -1448
	.cfi_offset 27, -1440
	.cfi_offset 28, -1432
	.loc 1 3244 0
	str	x0, [x29,1512]
	mov	x22, x1
	.loc 1 3251 0
	cbz	x23, .L523
	cbz	x1, .L523
	.loc 1 3256 0
	ldr	w0, [x1,688]
	add	x19, x23, 20480
	cmp	w0, 1
	beq	.L526
.LVL475:
.L520:
	.loc 1 3266 0
	mov	w1, 0
	mov	x2, 43328
	mov	x0, x23
.LVL476:
	.loc 1 3265 0
	ldr	w21, [x19,2800]
	.loc 1 3266 0
	bl	memset
.LVL477:
	.loc 1 3267 0
	str	w21, [x19,2800]
	.loc 1 3268 0
	add	x0, x19, 2192
	bl	ResetVoQueue
.LVL478:
	.loc 1 3271 0
	str	x22, [x23,22088]
	.loc 1 3272 0
	str	wzr, [x22,888]
	.loc 1 3273 0
	mov	x0, x23
	bl	VCTRL_GetChanIDByCtx
.LVL479:
	.loc 1 3274 0
	cmn	w0, #1
	.loc 1 3273 0
	str	w0, [x19,2808]
	.loc 1 3274 0
	beq	.L527
.LBB41:
.LBB42:
	.loc 1 736 0
	add	x0, x19, 1616
	.loc 1 737 0
	add	x1, x19, 1584
.LBE42:
.LBE41:
	.loc 1 3299 0
	mov	w21, 0
.LBB45:
.LBB43:
	.loc 1 736 0
	stp	xzr, xzr, [x0]
	stp	xzr, xzr, [x0,16]
	.loc 1 737 0
	stp	xzr, xzr, [x1]
	.loc 1 740 0
	mov	x0, x23
	.loc 1 737 0
	str	xzr, [x19,1600]
	.loc 1 740 0
	bl	Mp4_Syntax_Init
.LVL480:
	.loc 1 744 0
	str	xzr, [x23,22624]
	str	xzr, [x23,22632]
.LBE43:
.LBE45:
	.loc 1 3287 0
	mov	w0, 1
.LBB46:
.LBB44:
	.loc 1 744 0
	str	xzr, [x23,22640]
	str	xzr, [x23,22648]
	.loc 1 747 0
	str	wzr, [x19,2112]
	.loc 1 748 0
	str	wzr, [x19,1652]
	.loc 1 749 0
	str	wzr, [x19,2096]
	.loc 1 750 0
	str	wzr, [x19,2100]
	.loc 1 751 0
	str	wzr, [x19,2104]
	.loc 1 752 0
	str	xzr, [x23,22656]
	.loc 1 753 0
	str	wzr, [x19,2116]
	.loc 1 754 0
	str	wzr, [x19,2120]
	.loc 1 755 0
	str	wzr, [x19,2124]
	.loc 1 756 0
	str	wzr, [x19,2128]
	.loc 1 757 0
	str	wzr, [x19,2132]
.LBE44:
.LBE46:
	.loc 1 3287 0
	str	w0, [x19,2108]
	.loc 1 3288 0
	str	wzr, [x19,2136]
	.loc 1 3290 0
	ldr	w22, [x22,688]
.LVL481:
	cmp	w22, w0
	beq	.L528
.LVL482:
.L519:
	.loc 1 3300 0
	ldr	x2, [x29,1512]
	mov	w0, w21
	ldr	x1, [x20,#:lo12:__stack_chk_guard]
	cmp	x2, x1
	bne	.L529
	ldp	x19, x20, [sp,16]
	.cfi_remember_state
	.cfi_restore 20
	.cfi_restore 19
	ldp	x21, x22, [sp,32]
	.cfi_restore 22
	.cfi_restore 21
.LVL483:
	ldp	x23, x24, [sp,48]
	.cfi_restore 24
	.cfi_restore 23
.LVL484:
	ldp	x25, x26, [sp,64]
	.cfi_restore 26
	.cfi_restore 25
.LVL485:
	ldp	x27, x28, [sp,80]
	.cfi_restore 28
	.cfi_restore 27
.LVL486:
	ldp	x29, x30, [sp], 96
	.cfi_restore 30
	.cfi_restore 29
	.cfi_def_cfa 31, 1424
	add	sp, sp, 1424
	.cfi_def_cfa_offset 1328
	ret
.LVL487:
.L528:
	.cfi_restore_state
	.loc 1 3292 0
	add	x1, x29, 744
	mov	x2, 768
	add	x0, x19, 804
	bl	memcpy
.LVL488:
	.loc 1 3293 0
	add	x0, x23, 16384
	.loc 1 3294 0
	add	x1, x29, 136
	.loc 1 3293 0
	add	x5, x0, 3608
	.loc 1 3294 0
	mov	x2, 604
	.loc 1 3293 0
	ldp	x6, x7, [x29,112]
	.loc 1 3294 0
	add	x0, x0, 3632
	.loc 1 3293 0
	stp	x6, x7, [x5]
	ldr	x6, [x29,128]
	str	x6, [x5,16]
	.loc 1 3294 0
	bl	memcpy
.LVL489:
	.loc 1 3295 0
	strb	w28, [x19,1572]
	ldrb	w0, [x29,108]
	.loc 1 3296 0
	add	x3, x23, 40960
	.loc 1 3295 0
	strb	w0, [x19,1577]
	ldrb	w0, [x29,104]
	strb	w27, [x19,1573]
	strb	w26, [x19,1574]
	strb	w25, [x19,1575]
	strb	w24, [x19,1576]
	strb	w0, [x19,1578]
	.loc 1 3296 0
	strb	w22, [x3,2353]
	b	.L519
.LVL490:
.L526:
	.loc 1 3258 0
	add	x1, x19, 804
.LVL491:
	mov	x2, 768
	add	x0, x29, 744
	bl	memcpy
.LVL492:
	.loc 1 3259 0
	add	x1, x23, 16384
	.loc 1 3260 0
	add	x0, x29, 136
	.loc 1 3259 0
	add	x5, x1, 3608
	.loc 1 3260 0
	mov	x2, 604
	add	x1, x1, 3632
	.loc 1 3259 0
	ldp	x6, x7, [x5]
	ldr	x5, [x5,16]
	stp	x6, x7, [x29,112]
	str	x5, [x29,128]
	.loc 1 3260 0
	bl	memcpy
.LVL493:
	.loc 1 3261 0
	ldrb	w28, [x19,1572]
.LVL494:
	ldrb	w0, [x19,1577]
.LVL495:
	str	w0, [x29,108]
	ldrb	w0, [x19,1578]
.LVL496:
	ldrb	w27, [x19,1573]
.LVL497:
	ldrb	w26, [x19,1574]
.LVL498:
	ldrb	w25, [x19,1575]
.LVL499:
	ldrb	w24, [x19,1576]
.LVL500:
	str	w0, [x29,104]
	b	.L520
.LVL501:
.L523:
	.loc 1 3253 0
	mov	w21, -1
	b	.L519
.LVL502:
.L527:
	.loc 1 3276 0
	adrp	x1, .LC30
	mov	w0, 0
	add	x1, x1, :lo12:.LC30
	.loc 1 3277 0
	mov	w21, -20
	.loc 1 3276 0
	bl	dprint_linux_kernel
.LVL503:
	.loc 1 3277 0
	b	.L519
.L529:
	.loc 1 3300 0
	bl	__stack_chk_fail
.LVL504:
	.cfi_endproc
.LFE2342:
	.size	MPEG4DEC_Init, .-MPEG4DEC_Init
	.align	2
	.global	MPEG4DEC_Destroy
	.type	MPEG4DEC_Destroy, %function
MPEG4DEC_Destroy:
.LFB2343:
	.loc 1 3319 0
	.cfi_startproc
.LVL505:
	stp	x29, x30, [sp, -32]!
	.cfi_def_cfa_offset 32
	.cfi_offset 29, -32
	.cfi_offset 30, -24
	.loc 1 3320 0
	adrp	x1, .LC31
	.loc 1 3319 0
	add	x29, sp, 0
	.cfi_def_cfa_register 29
	str	x19, [sp,16]
	.cfi_offset 19, -16
	.loc 1 3319 0
	mov	x19, x0
	.loc 1 3322 0
	add	x19, x19, 20480
	.loc 1 3320 0
	add	x1, x1, :lo12:.LC31
	mov	w0, 2
.LVL506:
	bl	dprint_linux_kernel
.LVL507:
	.loc 1 3322 0
	str	wzr, [x19,2108]
	.loc 1 3324 0
	ldr	x19, [sp,16]
	.cfi_restore 19
	ldp	x29, x30, [sp], 32
	.cfi_restore 30
	.cfi_restore 29
	.cfi_def_cfa 31, 0
	ret
	.cfi_endproc
.LFE2343:
	.size	MPEG4DEC_Destroy, .-MPEG4DEC_Destroy
	.align	2
	.global	MPEG4DEC_RecycleImage
	.type	MPEG4DEC_RecycleImage, %function
MPEG4DEC_RecycleImage:
.LFB2345:
	.loc 1 3726 0
	.cfi_startproc
.LVL508:
	stp	x29, x30, [sp, -32]!
	.cfi_def_cfa_offset 32
	.cfi_offset 29, -32
	.cfi_offset 30, -24
	add	x29, sp, 0
	.cfi_def_cfa_register 29
	stp	x19, x20, [sp,16]
	.cfi_offset 19, -16
	.cfi_offset 20, -8
	.loc 1 3729 0
	cbz	x0, .L533
	.loc 1 3734 0
	add	x19, x0, 20480
	mov	w2, 0
	mov	w20, w1
	ldr	w0, [x19,2808]
.LVL509:
	bl	FSP_SetDisplay
.LVL510:
	.loc 1 3735 0
	ldr	w0, [x19,2808]
	mov	w1, w20
	bl	FSP_GetFsImagePtr
.LVL511:
	mov	x20, x0
.LVL512:
	.loc 1 3737 0
	cbz	x0, .L534
	.loc 1 3739 0
	ldr	w0, [x19,2808]
	ldr	x1, [x20,248]
	bl	FreeUsdByDec
.LVL513:
	.loc 1 3740 0
	str	xzr, [x20,248]
	.loc 1 3741 0
	ldr	x1, [x20,256]
	ldr	w0, [x19,2808]
	bl	FreeUsdByDec
.LVL514:
	.loc 1 3742 0
	str	xzr, [x20,256]
	.loc 1 3745 0
	mov	w0, 1
.LVL515:
.L532:
	.loc 1 3746 0
	ldp	x19, x20, [sp,16]
	.cfi_remember_state
	.cfi_restore 20
	.cfi_restore 19
.LVL516:
	ldp	x29, x30, [sp], 32
	.cfi_restore 30
	.cfi_restore 29
	.cfi_def_cfa 31, 0
	ret
.LVL517:
.L534:
	.cfi_restore_state
	.loc 1 3745 0
	mov	w0, 1
.LVL518:
	.loc 1 3746 0
	ldp	x19, x20, [sp,16]
	.cfi_remember_state
	.cfi_restore 19
	.cfi_restore 20
.LVL519:
	ldp	x29, x30, [sp], 32
	.cfi_restore 29
	.cfi_restore 30
	.cfi_def_cfa 31, 0
	ret
.LVL520:
.L533:
	.cfi_restore_state
	.loc 1 3731 0
	mov	w0, -2
.LVL521:
	b	.L532
	.cfi_endproc
.LFE2345:
	.size	MPEG4DEC_RecycleImage, .-MPEG4DEC_RecycleImage
	.align	2
	.global	MP4_SetImgFormat
	.type	MP4_SetImgFormat, %function
MP4_SetImgFormat:
.LFB2346:
	.loc 1 3749 0
	.cfi_startproc
.LVL522:
	stp	x29, x30, [sp, -32]!
	.cfi_def_cfa_offset 32
	.cfi_offset 29, -32
	.cfi_offset 30, -24
	.loc 1 3754 0
	add	x1, x0, 40960
	.loc 1 3749 0
	add	x29, sp, 0
	.cfi_def_cfa_register 29
	str	x19, [sp,16]
	.cfi_offset 19, -16
	.loc 1 3754 0
	add	x19, x0, 20480
	ldr	w1, [x1,2344]
	ldr	w0, [x19,2808]
.LVL523:
	bl	FSP_GetFsImagePtr
.LVL524:
	.loc 1 3755 0
	cbz	x0, .L535
	.loc 1 3760 0
	ldr	w1, [x19,1512]
	add	x19, x19, 804
	cbnz	w1, .L547
.L537:
	.loc 1 3769 0
	ldr	w2, [x0,48]
	.loc 1 3770 0
	ldr	w1, [x0,52]
	.loc 1 3769 0
	str	w2, [x0,56]
	.loc 1 3770 0
	str	w1, [x0,60]
.L535:
	.loc 1 3795 0
	ldr	x19, [sp,16]
	.cfi_remember_state
	.cfi_restore 19
	ldp	x29, x30, [sp], 32
	.cfi_restore 30
	.cfi_restore 29
	.cfi_def_cfa 31, 0
	ret
.L547:
	.cfi_restore_state
	.loc 1 3760 0 discriminator 1
	ldr	w2, [x19,704]
	cbz	w2, .L537
	.loc 1 3762 0
	ldr	w3, [x0,48]
	.loc 1 3764 0
	ldr	w2, [x0,52]
	.loc 1 3762 0
	cmp	w3, w1
	csel	w1, w3, w1, ls
	str	w1, [x0,56]
	.loc 1 3764 0
	ldr	w1, [x19,704]
	cmp	w2, w1
	csel	w2, w2, w1, ls
	str	w2, [x0,60]
	.loc 1 3795 0
	ldr	x19, [sp,16]
	.cfi_restore 19
	ldp	x29, x30, [sp], 32
	.cfi_restore 29
	.cfi_restore 30
	.cfi_def_cfa 31, 0
	ret
	.cfi_endproc
.LFE2346:
	.size	MP4_SetImgFormat, .-MP4_SetImgFormat
	.align	2
	.global	MPEG4DEC_GetRemainImg
	.type	MPEG4DEC_GetRemainImg, %function
MPEG4DEC_GetRemainImg:
.LFB2347:
	.loc 1 3798 0
	.cfi_startproc
.LVL525:
	stp	x29, x30, [sp, -64]!
	.cfi_def_cfa_offset 64
	.cfi_offset 29, -64
	.cfi_offset 30, -56
	add	x29, sp, 0
	.cfi_def_cfa_register 29
	stp	x19, x20, [sp,16]
	stp	x21, x22, [sp,32]
	str	x23, [sp,48]
	.cfi_offset 19, -48
	.cfi_offset 20, -40
	.cfi_offset 21, -32
	.cfi_offset 22, -24
	.cfi_offset 23, -16
	.loc 1 3798 0
	mov	x19, x0
	add	x20, x19, 20480
	.loc 1 3803 0
	ldr	x0, [x0,22088]
.LVL526:
	ldr	w0, [x0,16]
	cmp	w0, 1
	beq	.L549
	.loc 1 3809 0
	add	x21, x19, 40960
	ldr	w0, [x20,2808]
	ldr	w1, [x21,2336]
	bl	FSP_GetFsImagePtr
.LVL527:
	mov	x22, x0
.LVL528:
	.loc 1 3810 0
	cbz	x0, .L549
	.loc 1 3812 0
	ldr	w0, [x20,2808]
	ldr	w1, [x21,2336]
	bl	FSP_GetDisplay
.LVL529:
	.loc 1 3813 0
	cmp	w0, 2
	.loc 1 3812 0
	mov	w23, w0
.LVL530:
	.loc 1 3813 0
	beq	.L560
.L549:
	add	x21, x20, 2192
.L551:
	.loc 1 3846 0
	mov	x0, x21
	bl	GetVoLastImageID
.LVL531:
.L559:
	.loc 1 3850 0
	ldp	x19, x20, [sp,16]
	.cfi_remember_state
	.cfi_restore 20
	.cfi_restore 19
.LVL532:
.LVL533:
	ldp	x21, x22, [sp,32]
	.cfi_restore 22
	.cfi_restore 21
.LVL534:
	ldr	x23, [sp,48]
	.cfi_restore 23
.LVL535:
	ldp	x29, x30, [sp], 64
	.cfi_restore 30
	.cfi_restore 29
	.cfi_def_cfa 31, 0
	ret
.LVL536:
.L560:
	.cfi_restore_state
	.loc 1 3815 0
	mov	x0, x19
	.loc 1 3819 0
	add	x21, x20, 2192
	.loc 1 3815 0
	bl	MP4_SetImgFormat
.LVL537:
	.loc 1 3816 0
	mov	w2, 1
	str	w2, [x22,108]
	.loc 1 3818 0
	ldr	w1, [x22,80]
	ldr	w0, [x20,2808]
	bl	FSP_SetDisplay
.LVL538:
	.loc 1 3819 0
	ldr	w0, [x20,2808]
	mov	w1, w23
	mov	x2, x19
	mov	x3, x21
	mov	x4, x22
	bl	InsertImgToVoQueue
.LVL539:
	cmp	w0, 1
	beq	.L550
	.loc 1 3821 0
	ldr	w1, [x22,80]
	mov	x0, x19
	bl	MPEG4DEC_RecycleImage
.LVL540:
	.loc 1 3822 0
	ldr	w0, [x20,2808]
	ldr	x1, [x22,248]
	bl	FreeUsdByDec
.LVL541:
	.loc 1 3823 0
	str	xzr, [x22,248]
	.loc 1 3824 0
	ldr	x1, [x22,256]
	ldr	w0, [x20,2808]
	bl	FreeUsdByDec
.LVL542:
	.loc 1 3825 0
	str	xzr, [x22,256]
	b	.L551
.L550:
	.loc 1 3828 0
	ldr	w0, [x22,84]
	cmp	w0, 100
	bhi	.L549
	.loc 1 3828 0 is_stmt 0 discriminator 1
	ldr	w0, [x22,48]
	cmp	w0, 31
	bls	.L549
	.loc 1 3828 0 discriminator 2
	ldr	w0, [x22,52]
	cmp	w0, 31
	bls	.L549
	mov	w0, 0
.LVL543:
	b	.L559
	.cfi_endproc
.LFE2347:
	.size	MPEG4DEC_GetRemainImg, .-MPEG4DEC_GetRemainImg
	.align	2
	.global	MPEG4DEC_GetImageBuffer
	.type	MPEG4DEC_GetImageBuffer, %function
MPEG4DEC_GetImageBuffer:
.LFB2349:
	.loc 1 4021 0 is_stmt 1
	.cfi_startproc
.LVL544:
	stp	x29, x30, [sp, -32]!
	.cfi_def_cfa_offset 32
	.cfi_offset 29, -32
	.cfi_offset 30, -24
	add	x29, sp, 0
	.cfi_def_cfa_register 29
	stp	x19, x20, [sp,16]
	.cfi_offset 19, -16
	.cfi_offset 20, -8
	.loc 1 4022 0
	add	x20, x0, 20480
	ldr	w0, [x20,2808]
.LVL545:
	bl	FSP_IsNewFsAvalible
.LVL546:
	cmp	w0, 1
	mov	w19, w0
	beq	.L562
	.loc 1 4026 0
	ldr	w0, [x20,2808]
	.loc 1 4030 0
	mov	w19, 0
	.loc 1 4026 0
	bl	FSP_IsNewFsAvalible
.LVL547:
	cmn	w0, #1
	beq	.L567
.L562:
	.loc 1 4031 0
	mov	w0, w19
	ldp	x19, x20, [sp,16]
	.cfi_remember_state
	.cfi_restore 20
	.cfi_restore 19
	ldp	x29, x30, [sp], 32
	.cfi_restore 30
	.cfi_restore 29
	.cfi_def_cfa 31, 0
	ret
.L567:
	.cfi_restore_state
	.loc 1 4028 0
	ldr	w0, [x20,2808]
	add	x1, x20, 2192
	bl	FSP_ClearNotInVoQueue
.LVL548:
	.loc 1 4031 0
	mov	w0, w19
	ldp	x19, x20, [sp,16]
	.cfi_restore 19
	.cfi_restore 20
	ldp	x29, x30, [sp], 32
	.cfi_restore 29
	.cfi_restore 30
	.cfi_def_cfa 31, 0
	ret
	.cfi_endproc
.LFE2349:
	.size	MPEG4DEC_GetImageBuffer, .-MPEG4DEC_GetImageBuffer
	.align	2
	.global	MP4_GetPacketState
	.type	MP4_GetPacketState, %function
MP4_GetPacketState:
.LFB2350:
	.loc 1 4034 0
	.cfi_startproc
.LVL549:
	.loc 1 4036 0
	add	x0, x0, 16384
.LVL550:
	ldr	w0, [x0,3604]
	.loc 1 4038 0
	cmp	w0, 1
	.loc 1 4042 0
	mov	w0, 3
	csinv	w0, w0, wzr, eq
	ret
	.cfi_endproc
.LFE2350:
	.size	MP4_GetPacketState, .-MP4_GetPacketState
	.align	2
	.global	MP4_ClearCurPacket
	.type	MP4_ClearCurPacket, %function
MP4_ClearCurPacket:
.LFB2351:
	.loc 1 4045 0
	.cfi_startproc
.LVL551:
	stp	x29, x30, [sp, -32]!
	.cfi_def_cfa_offset 32
	.cfi_offset 29, -32
	.cfi_offset 30, -24
	add	x29, sp, 0
	.cfi_def_cfa_register 29
	stp	x19, x20, [sp,16]
	.cfi_offset 19, -16
	.cfi_offset 20, -8
	.loc 1 4045 0
	mov	x19, x1
	mov	w20, w0
	.loc 1 4046 0
	ldr	w1, [x1,12]
.LVL552:
	bl	SM_ReleaseStreamSeg
.LVL553:
	.loc 1 4047 0
	ldrb	w0, [x19,1]
	cbnz	w0, .L572
	.loc 1 4047 0 is_stmt 0 discriminator 1
	ldrb	w0, [x19,81]
	cmp	w0, 1
	beq	.L573
.L572:
	.loc 1 4052 0 is_stmt 1
	stp	xzr, xzr, [x19]
	stp	xzr, xzr, [x19,16]
	stp	xzr, xzr, [x19,32]
	stp	xzr, xzr, [x19,48]
	stp	xzr, xzr, [x19,64]
	stp	xzr, xzr, [x19,80]
	stp	xzr, xzr, [x19,96]
	stp	xzr, xzr, [x19,112]
	stp	xzr, xzr, [x19,128]
	stp	xzr, xzr, [x19,144]
	.loc 1 4055 0
	ldp	x19, x20, [sp,16]
	.cfi_remember_state
	.cfi_restore 20
	.cfi_restore 19
.LVL554:
	ldp	x29, x30, [sp], 32
	.cfi_restore 30
	.cfi_restore 29
	.cfi_def_cfa 31, 0
	ret
.LVL555:
.L573:
	.cfi_restore_state
	.loc 1 4049 0
	ldr	w1, [x19,92]
	mov	w0, w20
	bl	SM_ReleaseStreamSeg
.LVL556:
	b	.L572
	.cfi_endproc
.LFE2351:
	.size	MP4_ClearCurPacket, .-MP4_ClearCurPacket
	.align	2
	.global	MP4_ClearCurPic
	.type	MP4_ClearCurPic, %function
MP4_ClearCurPic:
.LFB2352:
	.loc 1 4058 0
	.cfi_startproc
.LVL557:
	stp	x29, x30, [sp, -48]!
	.cfi_def_cfa_offset 48
	.cfi_offset 29, -48
	.cfi_offset 30, -40
	.loc 1 4060 0
	add	x1, x0, 20480
	.loc 1 4058 0
	add	x29, sp, 0
	.cfi_def_cfa_register 29
	stp	x21, x22, [sp,32]
	.cfi_offset 21, -16
	.cfi_offset 22, -8
	.loc 1 4061 0
	add	x22, x0, 16384
	.loc 1 4058 0
	stp	x19, x20, [sp,16]
	.cfi_offset 19, -32
	.cfi_offset 20, -24
	.loc 1 4061 0
	ldr	w19, [x22,3596]
	.loc 1 4060 0
	ldr	w21, [x1,2808]
	.loc 1 4063 0 discriminator 1
	cmp	w19, wzr
	ble	.L577
	sub	w1, w19, #1
	add	x19, x0, 12288
	add	x1, x1, 3972
	add	x19, x19, 3596
	add	x20, x0, x1, lsl 2
.LVL558:
.L576:
	.loc 1 4065 0
	ldr	w1, [x19],4
	mov	w0, w21
.LVL559:
	bl	SM_ReleaseStreamSeg
.LVL560:
	.loc 1 4063 0 discriminator 1
	cmp	x19, x20
	bne	.L576
.LVL561:
.L577:
	.loc 1 4068 0
	str	wzr, [x22,3596]
	.loc 1 4071 0
	ldp	x19, x20, [sp,16]
	.cfi_restore 20
	.cfi_restore 19
	ldp	x21, x22, [sp,32]
	.cfi_restore 22
	.cfi_restore 21
.LVL562:
	ldp	x29, x30, [sp], 48
	.cfi_restore 30
	.cfi_restore 29
	.cfi_def_cfa 31, 0
	ret
	.cfi_endproc
.LFE2352:
	.size	MP4_ClearCurPic, .-MP4_ClearCurPic
	.align	2
	.global	Vdm_Mem_Move
	.type	Vdm_Mem_Move, %function
Vdm_Mem_Move:
.LFB2336:
	.loc 1 2739 0
	.cfi_startproc
.LVL563:
	stp	x29, x30, [sp, -80]!
	.cfi_def_cfa_offset 80
	.cfi_offset 29, -80
	.cfi_offset 30, -72
	add	x29, sp, 0
	.cfi_def_cfa_register 29
	stp	x19, x20, [sp,16]
	.cfi_offset 19, -64
	.cfi_offset 20, -56
	.loc 1 2739 0
	mov	x20, x1
	.loc 1 2740 0
	adrp	x1, .LC32
.LVL564:
	.loc 1 2739 0
	mov	x19, x0
	.loc 1 2740 0
	add	x1, x1, :lo12:.LC32
	mov	w0, 2
.LVL565:
	.loc 1 2739 0
	str	x2, [x29,40]
	str	x3, [x29,48]
	str	x4, [x29,56]
	str	x5, [x29,64]
	str	x6, [x29,72]
	.loc 1 2740 0
	bl	dprint_linux_kernel
.LVL566:
	.loc 1 2743 0
	ldr	x2, [x29,40]
.LVL567:
	.loc 1 2744 0
	ldr	x3, [x29,48]
.LVL568:
	.loc 1 2743 0
	str	w2, [x19,1272]
	.loc 1 2756 0
	add	x2, x19, 1048
.LVL569:
	.loc 1 2744 0
	str	w3, [x19,15644]
	.loc 1 2747 0
	ldr	x5, [x29,64]
.LVL570:
	.loc 1 2748 0
	ldr	x6, [x29,72]
.LVL571:
	.loc 1 2745 0
	ldr	w0, [x20,320]
	.loc 1 2747 0
	add	w5, w5, 15
.LVL572:
	.loc 1 2748 0
	add	w6, w6, 15
.LVL573:
	.loc 1 2746 0
	ldr	x4, [x29,56]
.LVL574:
	.loc 1 2745 0
	str	w0, [x19,1284]
	.loc 1 2747 0
	lsr	w5, w5, 4
	.loc 1 2746 0
	str	w4, [x19,1276]
	.loc 1 2748 0
	lsr	w6, w6, 4
	.loc 1 2747 0
	strh	w5, [x19,1224]
	.loc 1 2748 0
	strh	w6, [x19,1226]
	.loc 1 2750 0
	ldr	x0, [x19,22088]
	.loc 1 2749 0
	ldr	x1, [x20,304]
	ldr	w1, [x1,20]
	str	w1, [x19,15656]
	.loc 1 2750 0
	ldr	w1, [x0,676]
	str	w1, [x19,15712]
	.loc 1 2756 0
	str	x2, [x19,1040]
	.loc 1 2758 0
	ldr	w1, [x0,880]
	cmp	w1, 1
	beq	.L593
	.loc 1 2768 0
	cmp	w1, 2
	beq	.L594
.L582:
	.loc 1 2780 0
	mov	w0, 1
	strb	w0, [x19,1214]
.L580:
	.loc 1 2783 0
	ldp	x19, x20, [sp,16]
	.cfi_remember_state
	.cfi_restore 20
	.cfi_restore 19
.LVL575:
	ldp	x29, x30, [sp], 80
	.cfi_restore 30
	.cfi_restore 29
	.cfi_def_cfa 31, 0
	ret
.LVL576:
.L593:
	.cfi_restore_state
	.loc 1 2760 0
	cbz	x2, .L582
	.loc 1 2763 0
	add	x0, x19, 20480
	add	x1, x19, 40960
	.loc 1 2762 0
	str	xzr, [x19,1040]
	.loc 1 2763 0
	mov	w2, 0
	ldr	w1, [x1,2344]
	ldr	w0, [x0,2808]
	bl	FSP_SetDisplay
.LVL577:
	.loc 1 2764 0
	mov	x0, x19
	bl	MP4_ClearCurPic
.LVL578:
	.loc 1 2783 0
	ldp	x19, x20, [sp,16]
	.cfi_remember_state
	.cfi_restore 19
	.cfi_restore 20
.LVL579:
	ldp	x29, x30, [sp], 80
	.cfi_restore 29
	.cfi_restore 30
	.cfi_def_cfa 31, 0
	ret
.LVL580:
.L594:
	.cfi_restore_state
	.loc 1 2770 0
	ldr	w0, [x0,884]
	.loc 1 2770 0 is_stmt 0 discriminator 1
	cmp	w0, wzr
	ble	.L582
	cbz	x2, .L582
	.loc 1 2773 0 is_stmt 1
	add	x0, x19, 20480
	add	x1, x19, 40960
	.loc 1 2772 0
	str	xzr, [x19,1040]
	.loc 1 2773 0
	mov	w2, 0
	ldr	w0, [x0,2808]
	ldr	w1, [x1,2344]
	bl	FSP_SetDisplay
.LVL581:
	.loc 1 2774 0
	ldr	x2, [x19,22088]
	.loc 1 2775 0
	mov	x0, x19
	.loc 1 2774 0
	ldr	w1, [x2,884]
	sub	w1, w1, #1
	str	w1, [x2,884]
	.loc 1 2775 0
	bl	MP4_ClearCurPic
.LVL582:
	.loc 1 2776 0
	b	.L580
	.cfi_endproc
.LFE2336:
	.size	Vdm_Mem_Move, .-Vdm_Mem_Move
	.align	2
	.global	MP4_GetScdUpMsg
	.type	MP4_GetScdUpMsg, %function
MP4_GetScdUpMsg:
.LFB2353:
	.loc 1 4074 0
	.cfi_startproc
.LVL583:
	.loc 1 4078 0
	ldr	x2, [x0,22088]
	.loc 1 4076 0
	add	x3, x0, 40960
	.loc 1 4078 0
	ldr	w4, [x2,792]
	cmp	w4, 1
	beq	.L598
.L596:
	.loc 1 4086 0
	ldr	w2, [x1,72]
	str	w2, [x0,15880]
	.loc 1 4088 0
	ldr	w0, [x1,72]
.LVL584:
	str	w0, [x3,2360]
	.loc 1 4091 0
	ret
.LVL585:
.L598:
	.loc 1 4078 0 discriminator 1
	ldr	w2, [x2,888]
	cmp	w2, 1
	bne	.L596
	.loc 1 4081 0
	ldr	w1, [x3,2360]
.LVL586:
	str	w1, [x0,15880]
	.loc 1 4091 0
	ret
	.cfi_endproc
.LFE2353:
	.size	MP4_GetScdUpMsg, .-MP4_GetScdUpMsg
	.align	2
	.global	Mp4_Check_Slice_NotSH
	.type	Mp4_Check_Slice_NotSH, %function
Mp4_Check_Slice_NotSH:
.LFB2354:
	.loc 1 4098 0
	.cfi_startproc
.LVL587:
	stp	x29, x30, [sp, -32]!
	.cfi_def_cfa_offset 32
	.cfi_offset 29, -32
	.cfi_offset 30, -24
	.loc 1 4105 0
	add	x2, x0, 16384
	.loc 1 4101 0
	add	x1, x0, 20480
	.loc 1 4098 0
	add	x29, sp, 0
	.cfi_def_cfa_register 29
	str	x19, [sp,16]
	.cfi_offset 19, -16
	.loc 1 4099 0
	mov	w19, -1
	.loc 1 4105 0
	ldrb	w3, [x2,3651]
	.loc 1 4101 0
	ldrb	w2, [x1,744]
	.loc 1 4105 0
	cbnz	w3, .L600
	.loc 1 4105 0 is_stmt 0 discriminator 1
	add	x0, x0, 12288
.LVL588:
	ldrb	w3, [x0,3592]
	tst	w3, 120
	bne	.L600
	.loc 1 4107 0 is_stmt 1
	ldrh	w0, [x0,3592]
	.loc 1 4109 0
	cmp	w2, 3
	.loc 1 4107 0
	ubfx	x0, x0, 7, 4
	add	w0, w0, 17
.LVL589:
	.loc 1 4109 0
	bls	.L609
	.loc 1 4125 0
	adrp	x1, .LC33
	mov	w0, 1
.LVL590:
	add	x1, x1, :lo12:.LC33
	bl	dprint_linux_kernel
.LVL591:
.L600:
	.loc 1 4137 0
	mov	w0, w19
.LVL592:
	ldr	x19, [sp,16]
	.cfi_remember_state
	.cfi_restore 19
	ldp	x29, x30, [sp], 32
	.cfi_restore 30
	.cfi_restore 29
	.cfi_def_cfa 31, 0
	ret
.LVL593:
.L609:
	.cfi_restore_state
	.loc 1 4109 0
	adrp	x3, .L603
	add	x3, x3, :lo12:.L603
	ldrb	w2, [x3,w2,uxtw]
	adr	x3, .Lrtx603
	add	x2, x3, w2, sxtb #2
	br	x2
.Lrtx603:
	.section	.rodata
	.align	0
	.align	2
.L603:
	.byte	(.L608 - .Lrtx603) / 4
	.byte	(.L604 - .Lrtx603) / 4
	.byte	(.L605 - .Lrtx603) / 4
	.byte	(.L604 - .Lrtx603) / 4
	.text
.L608:
	.loc 1 4112 0
	mov	w1, 17
.LVL594:
.L602:
	.loc 1 4130 0
	cmp	w1, w0
	csetm	w19, ne
	.loc 1 4137 0
	mov	w0, w19
.LVL595:
	ldr	x19, [sp,16]
	.cfi_remember_state
	.cfi_restore 19
	ldp	x29, x30, [sp], 32
	.cfi_restore 29
	.cfi_restore 30
	.cfi_def_cfa 31, 0
	ret
.LVL596:
.L604:
	.cfi_restore_state
	.loc 1 4116 0
	ldrb	w1, [x1,752]
	.loc 1 4117 0
	add	w1, w1, 16
.LVL597:
	.loc 1 4118 0
	b	.L602
.LVL598:
.L605:
	.loc 1 4120 0
	ldrb	w2, [x1,752]
	ldrb	w1, [x1,753]
	cmp	w1, w2, uxtb
	csel	w1, w1, w2, cs
	.loc 1 4121 0
	mov	w2, 18
	.loc 1 4120 0
	uxtb	w1, w1
	.loc 1 4121 0
	add	w1, w1, 16
.LVL599:
	cmp	w1, 18
	csel	w1, w1, w2, ge
	.loc 1 4122 0
	b	.L602
	.cfi_endproc
.LFE2354:
	.size	Mp4_Check_Slice_NotSH, .-Mp4_Check_Slice_NotSH
	.align	2
	.global	Mp4_Combine_SliceData
	.type	Mp4_Combine_SliceData, %function
Mp4_Combine_SliceData:
.LFB2355:
	.loc 1 4142 0
	.cfi_startproc
.LVL600:
	mov	x4, x0
	.loc 1 4151 0
	add	x0, x0, 16384
.LVL601:
	.loc 1 4142 0
	stp	x29, x30, [sp, -16]!
	.cfi_def_cfa_offset 16
	.cfi_offset 29, -16
	.cfi_offset 30, -8
	.loc 1 4147 0
	add	x2, x4, 1292
.LVL602:
	.loc 1 4142 0
	add	x29, sp, 0
	.cfi_def_cfa_register 29
	.loc 1 4151 0
	ldr	w0, [x0,3600]
	.loc 1 4146 0
	ldr	w3, [x4,15628]
	.loc 1 4151 0
	tbz	x0, 1, .L611
	.loc 1 4153 0
	add	x5, x4, 12288
	ldrb	w0, [x5,3433]
	cmp	w0, 1
	beq	.L625
	.loc 1 4191 0
	cbnz	w0, .L619
	.loc 1 4191 0 is_stmt 0 discriminator 1
	ldrb	w0, [x5,3513]
	cmp	w0, 1
	bne	.L619
.LVL603:
	.loc 1 4195 0 is_stmt 1
	sub	w3, w3, #1
.LVL604:
	lsl	x0, x3, 5
	sub	x3, x0, x3, lsl 2
	add	x2, x2, x3
.LVL605:
	ldr	w0, [x2,12]
	cbnz	w0, .L621
	.loc 1 4195 0 is_stmt 0 discriminator 1
	ldr	w0, [x2,20]
	cbnz	w0, .L621
	.loc 1 4201 0 is_stmt 1
	ldr	w3, [x2,8]
	add	w1, w3, w1, lsl 3
.LVL606:
	str	w1, [x2,8]
	.loc 1 4202 0
	ldr	w1, [x4,15804]
	str	w1, [x2,20]
	.loc 1 4203 0
	ldr	w1, [x4,15808]
	lsl	w1, w1, 3
	str	w1, [x2,12]
.LVL607:
.L614:
	.loc 1 4218 0
	ldp	x29, x30, [sp], 16
	.cfi_remember_state
	.cfi_restore 30
	.cfi_restore 29
	.cfi_def_cfa 31, 0
	ret
.LVL608:
.L625:
	.cfi_restore_state
	.loc 1 4156 0
	sub	w5, w3, #1
	cmp	w5, 510
	bhi	.L626
	.loc 1 4164 0
	lsl	x3, x5, 5
.LVL609:
	sub	x5, x3, x5, lsl 2
	add	x2, x2, x5
.LVL610:
	ldr	w3, [x2,12]
	cbz	w3, .L615
	.loc 1 4164 0 is_stmt 0 discriminator 1
	ldr	w5, [x2,20]
	cbz	w5, .L615
	.loc 1 4180 0 is_stmt 1
	ldr	w4, [x4,15724]
.LVL611:
	cmp	w5, w4
	bhi	.L627
	.loc 1 4187 0
	add	w1, w3, w1, lsl 3
.LVL612:
	.loc 1 4217 0
	mov	w0, 0
	.loc 1 4187 0
	str	w1, [x2,12]
	b	.L614
.LVL613:
.L615:
	.loc 1 4167 0
	ldr	w3, [x4,15724]
	ldr	w0, [x2,16]
	cmp	w3, w0
	bls	.L617
	.loc 1 4169 0
	ldr	w3, [x2,8]
	.loc 1 4217 0
	mov	w0, 0
	.loc 1 4169 0
	add	w1, w3, w1, lsl 3
.LVL614:
	str	w1, [x2,8]
	.loc 1 4218 0
	ldp	x29, x30, [sp], 16
	.cfi_remember_state
	.cfi_restore 29
	.cfi_restore 30
	.cfi_def_cfa 31, 0
	ret
.LVL615:
.L617:
	.cfi_restore_state
	.loc 1 4173 0
	lsl	w1, w1, 3
.LVL616:
	str	w1, [x2,12]
	.loc 1 4217 0
	mov	w0, 0
	.loc 1 4174 0
	ldr	w1, [x4,15724]
	str	w1, [x2,20]
	.loc 1 4218 0
	ldp	x29, x30, [sp], 16
	.cfi_remember_state
	.cfi_restore 29
	.cfi_restore 30
	.cfi_def_cfa 31, 0
	ret
.LVL617:
.L619:
	.cfi_restore_state
	.loc 1 4207 0
	adrp	x1, .LC35
.LVL618:
	mov	w0, 1
	add	x1, x1, :lo12:.LC35
	mov	w2, 4207
.LVL619:
	bl	dprint_linux_kernel
.LVL620:
	.loc 1 4208 0
	mov	w0, -1
	b	.L614
.LVL621:
.L621:
	.loc 1 4198 0
	mov	w0, -1
	b	.L614
.LVL622:
.L611:
	.loc 1 4213 0
	adrp	x1, .LC35
.LVL623:
	mov	w0, 1
	add	x1, x1, :lo12:.LC35
	mov	w2, 4213
.LVL624:
	bl	dprint_linux_kernel
.LVL625:
	.loc 1 4214 0
	mov	w0, -1
	b	.L614
.LVL626:
.L626:
	.loc 1 4159 0
	adrp	x1, .LC34
.LVL627:
	mov	w2, w3
.LVL628:
	add	x1, x1, :lo12:.LC34
	bl	dprint_linux_kernel
.LVL629:
	.loc 1 4160 0
	mov	w0, -1
	b	.L614
.LVL630:
.L627:
	.loc 1 4184 0
	adrp	x1, .LC35
.LVL631:
	mov	w2, 4184
	add	x1, x1, :lo12:.LC35
	bl	dprint_linux_kernel
.LVL632:
	.loc 1 4185 0
	mov	w0, -1
	b	.L614
	.cfi_endproc
.LFE2355:
	.size	Mp4_Combine_SliceData, .-Mp4_Combine_SliceData
	.align	2
	.global	MP4_Check_StreamType
	.type	MP4_Check_StreamType, %function
MP4_Check_StreamType:
.LFB2358:
	.loc 1 4425 0
	.cfi_startproc
.LVL633:
	.loc 1 4429 0
	add	x2, x0, 12288
.LBB49:
.LBB50:
	.loc 1 4431 0
	add	x0, x0, 20480
.LVL634:
.LBE50:
.LBE49:
	.loc 1 4429 0
	ldrb	w3, [x2,3592]
	tbnz	x3, 0, .L629
.LBB52:
.LBB51:
	.loc 1 4431 0
	mov	w3, 2
	strb	w3, [x0,813]
	.loc 1 4435 0
	ldr	w0, [x1]
	lsr	w0, w0, 8
	sub	w0, w0, #128
	cmp	w0, 3
	bhi	.L630
	.loc 1 4437 0
	ldrb	w0, [x2,3592]
	orr	w0, w0, 2
	strb	w0, [x2,3592]
.L630:
.LBE51:
.LBE52:
	.loc 1 4447 0
	mov	w0, 0
	ret
.L629:
	.loc 1 4442 0
	mov	w2, 196
	str	w2, [x1]
	.loc 1 4443 0
	mov	w1, 1
.LVL635:
	strb	w1, [x0,813]
	.loc 1 4447 0
	mov	w0, 0
	ret
	.cfi_endproc
.LFE2358:
	.size	MP4_Check_StreamType, .-MP4_Check_StreamType
	.align	2
	.global	MP4_Clean_HeadPacket
	.type	MP4_Clean_HeadPacket, %function
MP4_Clean_HeadPacket:
.LFB2362:
	.loc 1 4569 0
	.cfi_startproc
.LVL636:
	stp	x29, x30, [sp, -48]!
	.cfi_def_cfa_offset 48
	.cfi_offset 29, -48
	.cfi_offset 30, -40
	.loc 1 4574 0
	mov	w2, 64
	.loc 1 4569 0
	add	x29, sp, 0
	.cfi_def_cfa_register 29
	stp	x21, x22, [sp,32]
	.cfi_offset 21, -16
	.cfi_offset 22, -8
	.loc 1 4571 0
	add	x22, x0, 20480
	.loc 1 4569 0
	stp	x19, x20, [sp,16]
	.cfi_offset 19, -32
	.cfi_offset 20, -24
	.loc 1 4572 0
	ldr	w1, [x22,2076]
	.loc 1 4571 0
	ldr	w21, [x22,2808]
	.loc 1 4574 0
	cmp	w1, 64
	csel	w1, w1, w2, le
	.loc 1 4576 0 discriminator 1
	cmp	w1, wzr
	ble	.L634
	sub	w1, w1, #1
	add	x19, x22, 1820
	add	x1, x1, 4096
	add	x1, x1, 1480
	add	x20, x0, x1, lsl 2
.LVL637:
.L633:
	.loc 1 4578 0
	ldr	w1, [x19],4
	mov	w0, w21
.LVL638:
	bl	SM_ReleaseStreamSeg
.LVL639:
	.loc 1 4576 0 discriminator 1
	cmp	x19, x20
	bne	.L633
.LVL640:
.L634:
	.loc 1 4582 0
	add	x0, x22, 1656
.LVL641:
	mov	w1, 0
	mov	x2, 440
	bl	memset
.LVL642:
	.loc 1 4585 0
	ldp	x19, x20, [sp,16]
	.cfi_restore 20
	.cfi_restore 19
	ldp	x21, x22, [sp,32]
	.cfi_restore 22
	.cfi_restore 21
.LVL643:
	ldp	x29, x30, [sp], 48
	.cfi_restore 30
	.cfi_restore 29
	.cfi_def_cfa 31, 0
	ret
	.cfi_endproc
.LFE2362:
	.size	MP4_Clean_HeadPacket, .-MP4_Clean_HeadPacket
	.align	2
	.global	MPEG4DEC_VDMPostProc
	.type	MPEG4DEC_VDMPostProc, %function
MPEG4DEC_VDMPostProc:
.LFB2348:
	.loc 1 3854 0
	.cfi_startproc
.LVL644:
	stp	x29, x30, [sp, -96]!
	.cfi_def_cfa_offset 96
	.cfi_offset 29, -96
	.cfi_offset 30, -88
	.loc 1 3861 0
	mov	x2, 14672
.LVL645:
	.loc 1 3854 0
	add	x29, sp, 0
	.cfi_def_cfa_register 29
	stp	x23, x24, [sp,48]
	.cfi_offset 23, -48
	.cfi_offset 24, -40
	adrp	x23, __stack_chk_guard
	stp	x19, x20, [sp,16]
	stp	x21, x22, [sp,32]
	ldr	x3, [x23,#:lo12:__stack_chk_guard]
	.cfi_offset 19, -80
	.cfi_offset 20, -72
	.cfi_offset 21, -64
	.cfi_offset 22, -56
	mov	x20, x0
	mov	w22, w1
	.loc 1 3861 0
	add	x0, x0, 1048
.LVL646:
	mov	w1, 0
.LVL647:
	.loc 1 3854 0
	str	x3, [x29,88]
	stp	x25, x26, [sp,64]
	.cfi_offset 25, -32
	.cfi_offset 26, -24
	.loc 1 3861 0
	bl	memset
.LVL648:
	.loc 1 3865 0
	add	x19, x20, 20480
	.loc 1 3862 0
	mov	x0, x20
	.loc 1 3867 0
	add	x21, x20, 40960
	.loc 1 3862 0
	bl	MP4_ClearCurPic
.LVL649:
	.loc 1 3863 0
	mov	x0, x20
	bl	MP4_Clean_HeadPacket
.LVL650:
	.loc 1 3865 0
	str	w22, [x19,2104]
	.loc 1 3867 0
	ldr	w0, [x19,2808]
	ldr	w1, [x21,2344]
	bl	FSP_GetFsImagePtr
.LVL651:
	mov	x22, x0
.LVL652:
	.loc 1 3868 0
	ldr	w1, [x21,2336]
	ldr	w0, [x19,2808]
	bl	FSP_GetFsImagePtr
.LVL653:
	mov	x24, x0
.LVL654:
	.loc 1 3870 0
	cbz	x22, .L692
	.loc 1 3877 0
	ldr	w2, [x19,2112]
	adrp	x1, .LC37
	add	x1, x1, :lo12:.LC37
	mov	w0, 11
	bl	dprint_linux_kernel
.LVL655:
	.loc 1 3878 0
	ldrb	w2, [x19,1448]
	adrp	x1, .LC38
	add	x1, x1, :lo12:.LC38
	mov	w0, 11
	bl	dprint_linux_kernel
.LVL656:
	.loc 1 3882 0
	ldr	w0, [x19,2104]
	.loc 1 3884 0
	add	x1, x19, 2144
	.loc 1 3882 0
	str	w0, [x22,84]
	.loc 1 3884 0
	ldr	w0, [x19,2808]
	bl	Mp4_ClearUsrData
.LVL657:
	.loc 1 3887 0
	ldrb	w0, [x19,1448]
	cmp	w0, 2
	beq	.L640
	.loc 1 3887 0 is_stmt 0 discriminator 1
	ldr	x0, [x20,22088]
	ldr	w2, [x19,2104]
	ldr	w3, [x0,4]
	cmp	w2, w3
	bhi	.L693
.L640:
	.loc 1 3902 0 is_stmt 1
	mov	x0, x20
	.loc 1 3897 0
	str	wzr, [x19,2184]
	.loc 1 3902 0
	bl	MP4_SetImgFormat
.LVL658:
	.loc 1 3903 0
	ldr	x0, [x20,22088]
	ldr	w0, [x0,16]
	cmp	w0, 1
	beq	.L643
	.loc 1 3905 0
	ldrb	w0, [x19,1448]
	cmp	w0, 2
	beq	.L644
	.loc 1 3907 0
	ldr	w0, [x19,2816]
	cmp	w0, 1
	ble	.L645
	.loc 1 3907 0 is_stmt 0 discriminator 1
	ldr	w1, [x21,2328]
	.loc 1 3907 0 discriminator 4
	str	w1, [x21,2348]
	.loc 1 3909 0 is_stmt 1 discriminator 1
	ldr	w26, [x21,2332]
	.loc 1 3908 0 discriminator 1
	ldrb	w25, [x20]
.LVL659:
.L646:
	.loc 1 3938 0
	cmn	w1, #1
	beq	.L648
	.loc 1 3941 0
	ldr	w0, [x19,2808]
	bl	FSP_GetFsImagePtr
.LVL660:
	mov	x22, x0
.LVL661:
	.loc 1 3943 0
	cbz	x0, .L694
.LVL662:
	.loc 1 3957 0
	cbnz	w26, .L650
	cmp	w25, 4
	beq	.L695
.L650:
	.loc 1 3968 0
	ldr	w2, [x22,84]
	cbz	w2, .L651
	.loc 1 3968 0 is_stmt 0 discriminator 1
	ldr	x0, [x20,22088]
	ldr	w3, [x0,8]
	cmp	w2, w3
	bhi	.L652
.L651:
	.loc 1 3970 0 is_stmt 1
	ldr	w0, [x19,2808]
	ldr	w1, [x21,2348]
	bl	FSP_GetLogicFs
.LVL663:
	.loc 1 3971 0
	cbz	x0, .L690
	.loc 1 3981 0
	cmp	w25, 2
	beq	.L654
	.loc 1 3981 0 is_stmt 0 discriminator 1
	ldrsb	w0, [x0,1]
.LVL664:
	cmp	w0, 2
	beq	.L654
	.loc 1 3998 0 is_stmt 1
	adrp	x1, .LC40
	ldr	w2, [x21,2348]
	add	x1, x1, :lo12:.LC40
	mov	w0, 11
	bl	dprint_linux_kernel
.LVL665:
.L648:
	.loc 1 4014 0
	ldr	w1, [x19,2112]
	.loc 1 4016 0
	mov	w0, 0
	.loc 1 4014 0
	add	w1, w1, 1
	str	w1, [x19,2112]
.LVL666:
.L639:
	.loc 1 4017 0
	ldr	x2, [x29,88]
	ldr	x1, [x23,#:lo12:__stack_chk_guard]
	cmp	x2, x1
	bne	.L696
	ldp	x19, x20, [sp,16]
	.cfi_remember_state
	.cfi_restore 20
	.cfi_restore 19
.LVL667:
	ldp	x21, x22, [sp,32]
	.cfi_restore 22
	.cfi_restore 21
.LVL668:
	ldp	x23, x24, [sp,48]
	.cfi_restore 24
	.cfi_restore 23
.LVL669:
	ldp	x25, x26, [sp,64]
	.cfi_restore 26
	.cfi_restore 25
.LVL670:
	ldp	x29, x30, [sp], 96
	.cfi_restore 30
	.cfi_restore 29
	.cfi_def_cfa 31, 0
	ret
.LVL671:
.L643:
	.cfi_restore_state
	.loc 1 3933 0
	ldr	w1, [x21,2344]
	str	w1, [x21,2348]
	.loc 1 3934 0
	ldrb	w25, [x19,1448]
.LVL672:
	.loc 1 3935 0
	ldr	w26, [x19,1540]
	b	.L646
.LVL673:
.L644:
	.loc 1 3913 0
	ldr	w1, [x21,2344]
	str	w1, [x21,2348]
	.loc 1 3915 0
	ldr	w26, [x19,1540]
	.loc 1 3919 0
	cbz	x24, .L659
	.loc 1 3921 0
	ldr	x2, [x24,224]
	.loc 1 3914 0
	mov	w25, w0
.LVL674:
	.loc 1 3921 0
	ldr	x0, [x22,224]
	cmp	x2, x0
	bge	.L646
.LBB53:
	.loc 1 3925 0
	str	x2, [x22,224]
	.loc 1 3926 0
	str	x0, [x24,224]
	ldr	w1, [x21,2348]
	b	.L646
.LVL675:
.L652:
.LBE53:
	.loc 1 4003 0
	adrp	x0, g_event_report
	ldr	x4, [x0,#:lo12:g_event_report]
	cbz	x4, .L657
.LBB54:
	.loc 1 4003 0 is_stmt 0 discriminator 1
	ldr	w0, [x19,2808]
	mov	w1, 104
	str	w2, [x29,80]
	add	x2, x29, 80
	str	w3, [x29,84]
	mov	w3, 8
	blr	x4
.LVL676:
	ldr	x0, [x20,22088]
	ldr	w2, [x22,84]
	ldr	w3, [x0,8]
.L657:
.LBE54:
	.loc 1 4004 0 is_stmt 1
	adrp	x1, .LC41
	mov	w0, 1
	add	x1, x1, :lo12:.LC41
	bl	dprint_linux_kernel
.LVL677:
	.loc 1 4005 0
	ldr	w0, [x19,2808]
	ldr	x1, [x22,248]
	bl	FreeUsdByDec
.LVL678:
	.loc 1 4006 0
	str	xzr, [x22,248]
	.loc 1 4007 0
	ldr	x1, [x22,256]
	ldr	w0, [x19,2808]
	bl	FreeUsdByDec
.LVL679:
	.loc 1 4008 0
	str	xzr, [x22,256]
	.loc 1 4009 0
	mov	w2, 0
	ldr	w0, [x19,2808]
	ldr	w1, [x21,2348]
	bl	FSP_SetDisplay
.LVL680:
	b	.L648
.LVL681:
.L654:
	.loc 1 3983 0
	ldr	w0, [x19,2808]
.LVL682:
	mov	w2, 1
	ldr	w1, [x21,2348]
	bl	FSP_SetDisplay
.LVL683:
	.loc 1 3984 0
	ldr	w0, [x19,2808]
	mov	w1, 2
	mov	x2, x20
	add	x3, x19, 2192
	mov	x4, x22
	bl	InsertImgToVoQueue
.LVL684:
	cmp	w0, 1
	beq	.L648
.LVL685:
.L690:
	.loc 1 3973 0
	ldr	w0, [x19,2808]
.LVL686:
.L689:
	ldr	x1, [x22,248]
	bl	FreeUsdByDec
.LVL687:
	.loc 1 3974 0
	str	xzr, [x22,248]
	.loc 1 3975 0
	ldr	x1, [x22,256]
	ldr	w0, [x19,2808]
	bl	FreeUsdByDec
.LVL688:
	.loc 1 3976 0
	str	xzr, [x22,256]
	.loc 1 3977 0
	mov	w2, 0
	ldr	w0, [x19,2808]
	ldr	w1, [x21,2348]
	bl	FSP_SetDisplay
.LVL689:
	.loc 1 3978 0
	mov	w0, -1
	b	.L639
.LVL690:
.L645:
	.loc 1 3907 0 discriminator 4
	mov	w0, -1
	str	w0, [x21,2348]
	b	.L648
.L693:
	.loc 1 3889 0
	adrp	x0, g_event_report
	ldr	x4, [x0,#:lo12:g_event_report]
	cbz	x4, .L641
.LBB55:
	.loc 1 3889 0 is_stmt 0 discriminator 1
	ldr	w0, [x19,2808]
	mov	w1, 104
	str	w2, [x29,80]
	add	x2, x29, 80
	str	w3, [x29,84]
	mov	w3, 8
	blr	x4
.LVL691:
.L641:
.LBE55:
	.loc 1 3890 0 is_stmt 1
	mov	w22, 1
.LVL692:
	str	w22, [x19,2184]
.LBB56:
	.loc 1 3891 0
	ldr	w0, [x19,2808]
	ldr	w1, [x21,2336]
	bl	FSP_GetFsImagePtr
.LVL693:
	mov	x20, x0
.LVL694:
	cbz	x0, .L642
	.loc 1 3891 0 is_stmt 0 discriminator 2
	ldr	w0, [x19,2808]
	ldr	x1, [x20,248]
	bl	FreeUsdByDec
.LVL695:
	.loc 1 3891 0 discriminator 3
	ldr	w0, [x19,2808]
	ldr	x1, [x20,256]
	bl	FreeUsdByDec
.LVL696:
	.loc 1 3891 0 discriminator 4
	ldr	w0, [x19,2808]
	ldr	x1, [x20,264]
	bl	FreeUsdByDec
.LVL697:
	.loc 1 3891 0 discriminator 5
	ldr	w0, [x19,2808]
	ldr	x1, [x20,272]
	bl	FreeUsdByDec
.LVL698:
	.loc 1 3891 0 discriminator 1
	str	xzr, [x20,248]
	str	xzr, [x20,256]
	.loc 1 3891 0 discriminator 6
	mov	w2, w22
	.loc 1 3891 0 discriminator 1
	str	xzr, [x20,264]
	str	xzr, [x20,272]
	.loc 1 3891 0 discriminator 6
	ldr	w0, [x19,2808]
	ldr	w1, [x21,2336]
	bl	FSP_ClearLogicFs
.LVL699:
	.loc 1 3891 0 discriminator 7
	ldr	w0, [x19,2808]
	mov	w2, w22
	ldr	w1, [x21,2328]
	bl	FSP_ClearLogicFs
.LVL700:
	.loc 1 3891 0 discriminator 1
	str	wzr, [x21,2328]
	str	wzr, [x21,2336]
	.loc 1 3891 0 discriminator 8
	ldr	w0, [x19,2808]
	bl	FSP_GetNullLogicFs
.LVL701:
	.loc 1 3891 0 discriminator 1
	str	w0, [x21,2336]
	str	w0, [x21,2328]
.L642:
.LBE56:
	.loc 1 3892 0 is_stmt 1
	str	wzr, [x19,2816]
	.loc 1 3893 0
	mov	w0, -1
	b	.L639
.LVL702:
.L659:
	.loc 1 3914 0
	mov	w25, w0
.LVL703:
	b	.L646
.LVL704:
.L695:
	.loc 1 3959 0
	ldrsw	x1, [x19,2808]
	.loc 1 3960 0
	ldr	w0, [x19,2808]
.LVL705:
	.loc 1 3959 0
	lsl	x2, x1, 4
	add	x2, x2, x1, lsl 2
	adrp	x1, g_VfmwChanStat
	add	x1, x1, :lo12:g_VfmwChanStat
	add	x1, x1, x2, lsl 4
	sub	x1, x1, x2
	ldr	w2, [x1,16]
	add	w2, w2, 1
	str	w2, [x1,16]
	b	.L689
.LVL706:
.L692:
	.loc 1 3872 0
	adrp	x1, .LC36
	mov	w0, 0
	add	x1, x1, :lo12:.LC36
	mov	x2, 0
	mov	x3, x24
	bl	dprint_linux_kernel
.LVL707:
	.loc 1 3873 0
	mov	w0, -1
	b	.L639
.LVL708:
.L694:
	.loc 1 3945 0
	adrp	x1, .LC39
	mov	w0, 0
.LVL709:
	add	x1, x1, :lo12:.LC39
	mov	w2, 3945
	bl	dprint_linux_kernel
.LVL710:
	.loc 1 3946 0
	mov	w0, -1
	b	.L639
.LVL711:
.L696:
	.loc 1 4017 0
	bl	__stack_chk_fail
.LVL712:
	.cfi_endproc
.LFE2348:
	.size	MPEG4DEC_VDMPostProc, .-MPEG4DEC_VDMPostProc
	.align	2
	.global	MP4_Record_SlcSegID
	.type	MP4_Record_SlcSegID, %function
MP4_Record_SlcSegID:
.LFB2360:
	.loc 1 4505 0
	.cfi_startproc
.LVL713:
	stp	x29, x30, [sp, -32]!
	.cfi_def_cfa_offset 32
	.cfi_offset 29, -32
	.cfi_offset 30, -24
	mov	x1, x0
	add	x29, sp, 0
	.cfi_def_cfa_register 29
	stp	x19, x20, [sp,16]
	.cfi_offset 19, -16
	.cfi_offset 20, -8
	.loc 1 4506 0
	add	x20, x0, 16384
	ldr	w2, [x20,3596]
	.loc 1 4509 0
	cmp	w2, 1022
	bhi	.L700
	.loc 1 4519 0
	ldr	w4, [x0,15732]
.LVL714:
	.loc 1 4523 0
	add	x3, x1, 12288
	.loc 1 4519 0
	add	x0, x0, x2, uxtw 2
	str	w4, [x0,15884]
	.loc 1 4520 0
	add	w0, w2, 1
	str	w0, [x20,3596]
	.loc 1 4523 0
	ldrb	w4, [x3,3433]
	cbnz	w4, .L697
	.loc 1 4523 0 is_stmt 0 discriminator 1
	ldrb	w3, [x3,3513]
	cmp	w3, 1
	beq	.L701
.L697:
	.loc 1 4531 0 is_stmt 1
	ldp	x19, x20, [sp,16]
	.cfi_remember_state
	.cfi_restore 20
	.cfi_restore 19
	ldp	x29, x30, [sp], 32
	.cfi_restore 30
	.cfi_restore 29
	.cfi_def_cfa 31, 0
	ret
.LVL715:
.L700:
	.cfi_restore_state
	mov	x19, x0
.LBB59:
.LBB60:
	.loc 1 4511 0
	bl	MP4_Clean_HeadPacket
.LVL716:
	.loc 1 4512 0
	mov	x0, x19
	bl	MP4_ClearCurPic
.LVL717:
	.loc 1 4513 0
	add	x0, x19, 20480
	add	x1, x19, 12288
	add	x1, x1, 3432
	ldr	w0, [x0,2808]
	bl	MP4_ClearCurPacket
.LVL718:
	.loc 1 4514 0
	ldr	w2, [x20,3596]
	adrp	x1, .LC42
	add	x1, x1, :lo12:.LC42
	mov	w3, 1022
	mov	w0, 0
	bl	dprint_linux_kernel
.LVL719:
.LBE60:
.LBE59:
	.loc 1 4531 0
	ldp	x19, x20, [sp,16]
	.cfi_remember_state
	.cfi_restore 19
	.cfi_restore 20
.LVL720:
	ldp	x29, x30, [sp], 32
	.cfi_restore 29
	.cfi_restore 30
	.cfi_def_cfa 31, 0
	ret
.LVL721:
.L701:
	.cfi_restore_state
	.loc 1 4526 0
	ldr	w3, [x1,15812]
	add	x0, x1, x0, uxtw 2
	str	w3, [x0,15884]
	.loc 1 4527 0
	add	w2, w2, 2
	str	w2, [x20,3596]
	.loc 1 4531 0
	ldp	x19, x20, [sp,16]
	.cfi_restore 19
	.cfi_restore 20
	ldp	x29, x30, [sp], 32
	.cfi_restore 29
	.cfi_restore 30
	.cfi_def_cfa 31, 0
	ret
	.cfi_endproc
.LFE2360:
	.size	MP4_Record_SlcSegID, .-MP4_Record_SlcSegID
	.align	2
	.global	Mp4_Syntax_ShortHeader
	.type	Mp4_Syntax_ShortHeader, %function
Mp4_Syntax_ShortHeader:
.LFB2326:
	.loc 1 1026 0
	.cfi_startproc
.LVL722:
	stp	x29, x30, [sp, -112]!
	.cfi_def_cfa_offset 112
	.cfi_offset 29, -112
	.cfi_offset 30, -104
	add	x29, sp, 0
	.cfi_def_cfa_register 29
	stp	x21, x22, [sp,32]
	stp	x23, x24, [sp,48]
	.cfi_offset 21, -80
	.cfi_offset 22, -72
	.cfi_offset 23, -64
	.cfi_offset 24, -56
	mov	x21, x0
	adrp	x23, __stack_chk_guard
	stp	x19, x20, [sp,16]
	.cfi_offset 19, -96
	.cfi_offset 20, -88
	.loc 1 1026 0
	mov	w22, w2
	mov	x19, x1
	ldr	x0, [x23,#:lo12:__stack_chk_guard]
.LVL723:
	.loc 1 1034 0
	ldr	w2, [x21,15628]
.LVL724:
	.loc 1 1026 0
	str	x0, [x29,104]
	.loc 1 1034 0
	cbnz	w2, .L747
.L703:
	.loc 1 1046 0
	add	x20, x21, 20480
	.loc 1 1043 0
	mov	x1, x19
	mov	w2, w22
	.loc 1 1046 0
	add	x19, x20, 744
.LVL725:
	.loc 1 1043 0
	add	x0, x29, 64
	bl	BsInit
.LVL726:
	.loc 1 1046 0
	str	xzr, [x19,48]
	.loc 1 1048 0
	mov	w1, 22
	add	x0, x29, 64
	.loc 1 1046 0
	stp	xzr, xzr, [x19]
	stp	xzr, xzr, [x19,16]
	stp	xzr, xzr, [x19,32]
	str	wzr, [x19,56]
	.loc 1 1048 0
	bl	BsSkip
.LVL727:
	.loc 1 1049 0
	mov	w1, 13
	add	x0, x29, 64
	bl	BsSkip
.LVL728:
	.loc 1 1051 0
	mov	w1, 3
	add	x0, x29, 64
	bl	BsGet
.LVL729:
	uxtb	w0, w0
	.loc 1 1052 0
	sub	w1, w0, #1
	.loc 1 1051 0
	strb	w0, [x20,754]
	.loc 1 1052 0
	cmp	w1, 3
	bls	.L748
	.loc 1 1080 0
	strb	wzr, [x20,1577]
	.loc 1 1081 0
	add	x0, x29, 64
	bl	BsPos
.LVL730:
	mov	w19, w0
	.loc 1 1082 0
	adrp	x0, g_event_report
	ldr	x4, [x0,#:lo12:g_event_report]
	cbz	x4, .L726
	.loc 1 1082 0 is_stmt 0 discriminator 1
	ldr	w0, [x20,2808]
	mov	w1, 102
	mov	x2, 0
	mov	w3, 0
	blr	x4
.LVL731:
	.loc 1 1083 0 is_stmt 1
	mov	w0, w19
	b	.L711
.L748:
	.loc 1 1052 0
	adrp	x0, .L706
	add	x0, x0, :lo12:.L706
	ldrb	w0, [x0,w1,uxtw]
	adr	x1, .Lrtx706
	add	x0, x1, w0, sxtb #2
	br	x0
.Lrtx706:
	.section	.rodata
	.align	0
	.align	2
.L706:
	.byte	(.L705 - .Lrtx706) / 4
	.byte	(.L707 - .Lrtx706) / 4
	.byte	(.L708 - .Lrtx706) / 4
	.byte	(.L709 - .Lrtx706) / 4
	.text
.L708:
	.loc 1 1067 0
	mov	w0, 18
	strb	w0, [x20,755]
	.loc 1 1068 0
	mov	w0, 22
	strb	w0, [x20,756]
	.loc 1 1069 0
	mov	w0, 352
	str	w0, [x20,1512]
	.loc 1 1070 0
	mov	w0, 288
	str	w0, [x20,1508]
.L710:
	.loc 1 1086 0
	mov	w1, 1
	add	x0, x29, 64
	bl	BsGet
.LVL732:
	uxtb	w0, w0
	.loc 1 1089 0
	ldrb	w1, [x20,811]
	.loc 1 1086 0
	strb	w0, [x20,744]
	.loc 1 1089 0
	cmp	w1, 2
	beq	.L712
	.loc 1 1089 0 is_stmt 0 discriminator 2
	cbz	w0, .L713
	.loc 1 1089 0 discriminator 1
	ldr	w0, [x20,2184]
	.loc 1 1089 0 discriminator 2
	cmp	w0, 1
	bne	.L713
.L712:
	.loc 1 1091 0 is_stmt 1
	add	x0, x29, 64
	bl	BsPos
.LVL733:
.L711:
	.loc 1 1179 0
	ldr	x2, [x29,104]
	ldr	x1, [x23,#:lo12:__stack_chk_guard]
	cmp	x2, x1
	bne	.L749
	ldp	x19, x20, [sp,16]
	.cfi_remember_state
	.cfi_restore 20
	.cfi_restore 19
.LVL734:
	ldp	x21, x22, [sp,32]
	.cfi_restore 22
	.cfi_restore 21
.LVL735:
	ldp	x23, x24, [sp,48]
	.cfi_restore 24
	.cfi_restore 23
	ldp	x29, x30, [sp], 112
	.cfi_restore 30
	.cfi_restore 29
	.cfi_def_cfa 31, 0
	ret
.LVL736:
.L707:
	.cfi_restore_state
	.loc 1 1061 0
	mov	w0, 9
	strb	w0, [x20,755]
	.loc 1 1062 0
	mov	w0, 11
	strb	w0, [x20,756]
	.loc 1 1063 0
	mov	w0, 176
	str	w0, [x20,1512]
	.loc 1 1064 0
	mov	w0, 144
	str	w0, [x20,1508]
	.loc 1 1065 0
	b	.L710
.L705:
	.loc 1 1055 0
	mov	w0, 6
	strb	w0, [x20,755]
	.loc 1 1056 0
	mov	w0, 8
	strb	w0, [x20,756]
	.loc 1 1057 0
	mov	w0, 128
	str	w0, [x20,1512]
	.loc 1 1058 0
	mov	w0, 96
	str	w0, [x20,1508]
	.loc 1 1059 0
	b	.L710
.L709:
	.loc 1 1073 0
	mov	w0, 18
	strb	w0, [x20,755]
	.loc 1 1074 0
	mov	w0, 88
	strb	w0, [x20,756]
	.loc 1 1075 0
	mov	w0, 704
	str	w0, [x20,1512]
	.loc 1 1076 0
	mov	w0, 576
	str	w0, [x20,1508]
	.loc 1 1077 0
	b	.L710
.L713:
	.loc 1 1096 0
	mov	w1, 4
	add	x0, x29, 64
	bl	BsSkip
.LVL737:
	.loc 1 1097 0
	add	x0, x29, 64
	mov	w1, 5
	bl	BsGet
.LVL738:
	uxtb	w0, w0
	.loc 1 1098 0
	cbnz	w0, .L745
	.loc 1 1100 0
	mov	w0, 1
.L745:
	strb	w0, [x20,751]
	.loc 1 1102 0
	mov	w1, 1
	add	x0, x29, 64
	.loc 1 1113 0
	lsl	w22, w22, 3
.LVL739:
	.loc 1 1029 0
	mov	w19, 0
.LVL740:
	.loc 1 1102 0
	bl	BsSkip
.LVL741:
.L718:
	.loc 1 1107 0
	add	x0, x29, 64
	mov	w1, 1
	bl	BsGet
.LVL742:
	.loc 1 1110 0
	cmp	w0, 1
	beq	.L750
	.loc 1 1121 0
	add	w19, w19, 1
	.loc 1 1127 0
	cmp	w19, 15
	bls	.L719
.L744:
	.loc 1 1130 0
	strb	wzr, [x20,1577]
	.loc 1 1131 0
	add	x0, x29, 64
	bl	BsPos
.LVL743:
	mov	w19, w0
.LVL744:
	.loc 1 1132 0
	adrp	x0, g_event_report
	ldr	x4, [x0,#:lo12:g_event_report]
	cbz	x4, .L726
	.loc 1 1132 0 is_stmt 0 discriminator 1
	ldr	w0, [x20,2808]
	mov	w1, 103
	mov	x2, 0
	mov	w3, 0
	blr	x4
.LVL745:
	.loc 1 1133 0 is_stmt 1
	mov	w0, w19
	b	.L711
.LVL746:
.L750:
	.loc 1 1112 0
	add	x0, x29, 64
	bl	BsPos
.LVL747:
	.loc 1 1113 0
	cmp	w0, w22
	.loc 1 1116 0
	add	x0, x29, 64
	.loc 1 1113 0
	bgt	.L751
	.loc 1 1119 0
	mov	w1, 8
	.loc 1 1121 0
	add	w19, w19, 1
	.loc 1 1119 0
	bl	BsSkip
.LVL748:
	.loc 1 1123 0
	cmp	w19, 15
	bls	.L718
	b	.L744
.LVL749:
.L747:
	.loc 1 1036 0
	adrp	x1, .LC43
	mov	w0, 1
	add	x1, x1, :lo12:.LC43
	bl	dprint_linux_kernel
.LVL750:
	.loc 1 1037 0
	str	wzr, [x21,15628]
	b	.L703
.LVL751:
.L719:
	.loc 1 1138 0
	add	x24, x21, 16384
	.loc 1 1136 0
	mov	w2, 1
	strb	w2, [x20,1577]
	.loc 1 1144 0
	add	x0, x29, 64
	.loc 1 1138 0
	ldr	w1, [x24,3600]
	orr	w1, w1, 2
	str	w1, [x24,3600]
	.loc 1 1140 0
	ldr	w1, [x21,15628]
	add	w1, w1, 1
	str	w1, [x21,15628]
	.loc 1 1143 0
	strb	w2, [x20,752]
	.loc 1 1144 0
	bl	BsPos
.LVL752:
	.loc 1 1148 0
	asr	w1, w0, 31
	.loc 1 1147 0
	sub	w22, w22, w0
	.loc 1 1148 0
	lsr	w1, w1, 29
	.loc 1 1147 0
	str	w22, [x21,1300]
	.loc 1 1148 0
	add	w22, w0, w1
	and	w22, w22, 7
	.loc 1 1144 0
	mov	w19, w0
.LVL753:
	.loc 1 1148 0
	ldr	w2, [x20,1600]
	sub	w1, w22, w1
	.loc 1 1149 0
	add	w0, w0, 7
	cmp	w19, wzr
	.loc 1 1148 0
	add	w1, w1, w2
	strb	w1, [x21,1298]
	.loc 1 1149 0
	csel	w0, w0, w19, lt
	.loc 1 1152 0
	add	x1, x21, 12288
	.loc 1 1149 0
	ldr	w2, [x20,1592]
	add	w0, w2, w0, asr 3
	str	w0, [x21,1308]
	.loc 1 1152 0
	ldrb	w0, [x1,3433]
	cbz	w0, .L752
.L720:
	.loc 1 1160 0
	str	wzr, [x21,1304]
	.loc 1 1161 0
	strb	wzr, [x21,1299]
	.loc 1 1162 0
	str	wzr, [x21,1312]
.L721:
	.loc 1 1165 0
	ldrb	w0, [x20,744]
	strb	w0, [x21,1296]
	.loc 1 1166 0
	ldrb	w0, [x20,753]
	strb	w0, [x21,1294]
	.loc 1 1167 0
	ldrb	w0, [x20,752]
	strb	w0, [x21,1293]
	.loc 1 1168 0
	ldrb	w0, [x20,751]
	strb	w0, [x21,1297]
	.loc 1 1169 0
	ldrb	w0, [x20,748]
	strb	w0, [x21,1295]
	.loc 1 1171 0
	ldr	w2, [x24,3596]
	cbnz	w2, .L753
.L722:
	.loc 1 1176 0
	mov	x0, x21
	bl	MP4_Record_SlcSegID
.LVL754:
	.loc 1 1178 0
	mov	w0, w19
	b	.L711
.L752:
	.loc 1 1152 0 discriminator 1
	ldrb	w0, [x1,3513]
	cmp	w0, 1
	bne	.L720
	.loc 1 1154 0
	ldr	w0, [x21,15808]
	.loc 1 1156 0
	ldr	w1, [x21,15804]
	.loc 1 1154 0
	lsl	w0, w0, 3
	.loc 1 1155 0
	strb	wzr, [x21,1299]
	.loc 1 1154 0
	str	w0, [x21,1304]
	.loc 1 1156 0
	str	w1, [x21,1312]
	b	.L721
.L753:
	.loc 1 1173 0
	adrp	x1, .LC44
	mov	w0, 1
	add	x1, x1, :lo12:.LC44
	bl	dprint_linux_kernel
.LVL755:
	.loc 1 1174 0
	mov	x0, x21
	bl	MP4_ClearCurPic
.LVL756:
	b	.L722
.LVL757:
.L726:
	.loc 1 1133 0
	mov	w0, w19
	b	.L711
.LVL758:
.L751:
	.loc 1 1116 0
	bl	BsPos
.LVL759:
	.loc 1 1117 0
	b	.L711
.LVL760:
.L749:
	.loc 1 1179 0
	bl	__stack_chk_fail
.LVL761:
	.cfi_endproc
.LFE2326:
	.size	Mp4_Syntax_ShortHeader, .-Mp4_Syntax_ShortHeader
	.align	2
	.global	Mp4_Syntax_Vop
	.type	Mp4_Syntax_Vop, %function
Mp4_Syntax_Vop:
.LFB2329:
	.loc 1 1494 0
	.cfi_startproc
.LVL762:
	stp	x29, x30, [sp, -160]!
	.cfi_def_cfa_offset 160
	.cfi_offset 29, -160
	.cfi_offset 30, -152
	add	x29, sp, 0
	.cfi_def_cfa_register 29
	stp	x21, x22, [sp,32]
	.cfi_offset 21, -128
	.cfi_offset 22, -120
	mov	x21, x0
	adrp	x22, __stack_chk_guard
	stp	x19, x20, [sp,16]
	stp	x23, x24, [sp,48]
	stp	x25, x26, [sp,64]
	stp	x27, x28, [sp,80]
	.cfi_offset 19, -144
	.cfi_offset 20, -136
	.cfi_offset 23, -112
	.cfi_offset 24, -104
	.cfi_offset 25, -96
	.cfi_offset 26, -88
	.cfi_offset 27, -80
	.cfi_offset 28, -72
	.loc 1 1494 0
	mov	w20, w2
	ldr	x0, [x22,#:lo12:__stack_chk_guard]
.LVL763:
	.loc 1 1505 0
	ldr	w2, [x21,15628]
.LVL764:
	.loc 1 1494 0
	mov	x24, x1
	str	x0, [x29,152]
	.loc 1 1505 0
	cbnz	w2, .L856
.L755:
	.loc 1 1514 0
	add	x19, x21, 20480
	ldrb	w0, [x19,805]
	cbnz	w0, .L756
	.loc 1 1518 0
	adrp	x2, .LANCHOR1
	adrp	x1, .LC45
	add	x2, x2, :lo12:.LANCHOR1
	.loc 1 1517 0
	strb	wzr, [x19,1577]
	.loc 1 1518 0
	mov	w0, 1
	add	x1, x1, :lo12:.LC45
	add	x2, x2, 544
	mov	w3, 0
	bl	dprint_linux_kernel
.LVL765:
	.loc 1 1519 0
	mov	w0, 32
.LVL766:
.L757:
	.loc 1 1756 0
	ldr	x2, [x29,152]
	ldr	x1, [x22,#:lo12:__stack_chk_guard]
	cmp	x2, x1
	bne	.L857
	ldp	x19, x20, [sp,16]
	.cfi_remember_state
	.cfi_restore 20
	.cfi_restore 19
.LVL767:
	ldp	x21, x22, [sp,32]
	.cfi_restore 22
	.cfi_restore 21
.LVL768:
	ldp	x23, x24, [sp,48]
	.cfi_restore 24
	.cfi_restore 23
.LVL769:
	ldp	x25, x26, [sp,64]
	.cfi_restore 26
	.cfi_restore 25
.LVL770:
	ldp	x27, x28, [sp,80]
	.cfi_restore 28
	.cfi_restore 27
.LVL771:
	ldp	x29, x30, [sp], 160
	.cfi_restore 30
	.cfi_restore 29
	.cfi_def_cfa 31, 0
	ret
.LVL772:
.L756:
	.cfi_restore_state
	.loc 1 1524 0
	add	x23, x19, 744
	.loc 1 1521 0
	mov	w2, w20
	add	x0, x29, 112
	mov	x1, x24
	bl	BsInit
.LVL773:
	.loc 1 1524 0
	str	xzr, [x23,48]
	stp	xzr, xzr, [x23]
	stp	xzr, xzr, [x23,16]
	stp	xzr, xzr, [x23,32]
	str	wzr, [x23,56]
	.loc 1 1527 0
	mov	w1, 32
	add	x0, x29, 112
	.loc 1 1525 0
	strb	wzr, [x19,1577]
	.loc 1 1527 0
	bl	BsSkip
.LVL774:
	.loc 1 1529 0
	mov	w1, 2
	add	x0, x29, 112
	bl	BsGet
.LVL775:
	mov	w2, w0
	.loc 1 1530 0
	adrp	x1, .LC46
	.loc 1 1529 0
	strb	w0, [x19,744]
	.loc 1 1530 0
	add	x1, x1, :lo12:.LC46
	mov	w0, 18
	uxtb	w2, w2
	bl	dprint_linux_kernel
.LVL776:
	.loc 1 1532 0
	ldrb	w1, [x19,744]
	cmp	w1, 3
	beq	.L858
	.loc 1 1543 0
	ldrb	w0, [x19,811]
	cmp	w0, 1
	beq	.L859
.L761:
	.loc 1 1552 0
	cmp	w0, 2
	beq	.L763
	.loc 1 1552 0 is_stmt 0 discriminator 1
	ldr	w0, [x19,2184]
	.loc 1 1552 0 discriminator 2
	cmp	w0, 1
	bne	.L762
	cbz	w1, .L762
.L763:
	.loc 1 1554 0 is_stmt 1
	add	x0, x29, 112
	bl	BsPos
.LVL777:
	.loc 1 1555 0
	b	.L757
.L856:
	.loc 1 1507 0
	adrp	x1, .LC43
	mov	w0, 1
	add	x1, x1, :lo12:.LC43
	bl	dprint_linux_kernel
.LVL778:
	.loc 1 1508 0
	str	wzr, [x21,15628]
	b	.L755
.L859:
	.loc 1 1543 0 discriminator 1
	cbnz	w1, .L795
.L762:
	.loc 1 1569 0
	lsl	w20, w20, 3
.LVL779:
	mov	w24, 0
.LVL780:
	.loc 1 1560 0 discriminator 1
	mov	w25, 6400
	b	.L765
.L862:
	.loc 1 1568 0
	add	x0, x29, 112
	bl	BsPos
.LVL781:
	.loc 1 1569 0
	cmp	w0, w20
	bgt	.L860
	.loc 1 1576 0
	add	w24, w24, 1
	.loc 1 1560 0 discriminator 1
	cmp	w24, w25
	beq	.L861
.L765:
	.loc 1 1562 0
	add	x0, x29, 112
	mov	w1, 1
	bl	BsGet
.LVL782:
	cbnz	w0, .L862
	.loc 1 1588 0
	add	x0, x29, 112
	mov	w1, 1
	bl	BsGet
.LVL783:
	cbz	w0, .L853
	.loc 1 1589 0
	ldr	w1, [x19,912]
	.loc 1 1499 0
	mov	w2, 0
.LVL784:
	.loc 1 1589 0
	cbnz	w1, .L863
.L769:
	.loc 1 1595 0
	str	w24, [x19,1516]
	.loc 1 1597 0
	add	x0, x29, 112
	.loc 1 1596 0
	str	w2, [x19,1520]
	.loc 1 1597 0
	mov	w1, 1
	bl	BsGet
.LVL785:
	cbz	w0, .L853
	.loc 1 1599 0
	add	x0, x29, 112
	mov	w1, 1
	bl	BsGet
.LVL786:
	uxtb	w0, w0
	strb	w0, [x19,745]
	.loc 1 1600 0
	cbz	w0, .L864
	.loc 1 1612 0
	ldrb	w0, [x19,744]
	cmp	w0, 1
	beq	.L772
	.loc 1 1612 0 is_stmt 0 discriminator 1
	cmp	w0, 3
	beq	.L865
.L773:
	.loc 1 1619 0 is_stmt 1
	strb	wzr, [x19,746]
.L774:
	.loc 1 1624 0
	ldrb	w0, [x19,852]
	add	x24, x21, 16384
.LVL787:
	.loc 1 1622 0
	strb	wzr, [x19,747]
	.loc 1 1624 0
	cmp	w0, 2
	beq	.L775
	.loc 1 1626 0
	add	x0, x29, 112
	mov	w1, 3
	.loc 1 1627 0
	add	x24, x21, 16384
	.loc 1 1626 0
	bl	BsGet
.LVL788:
	strb	w0, [x19,748]
	.loc 1 1627 0
	ldrb	w0, [x24,3642]
	cbnz	w0, .L866
	.loc 1 1634 0
	mov	w0, 2
	.loc 1 1635 0
	strb	wzr, [x19,750]
	.loc 1 1634 0
	strb	w0, [x19,749]
.L777:
	.loc 1 1638 0
	ldrb	w0, [x19,856]
	sub	w0, w0, #1
	uxtb	w0, w0
	cmp	w0, 1
	bls	.L778
.LVL789:
.L781:
	.loc 1 1677 0
	add	x0, x29, 112
	mov	w1, 5
	bl	BsGet
.LVL790:
	uxtb	w0, w0
	.loc 1 1679 0
	cbnz	w0, .L850
	.loc 1 1681 0
	mov	w0, 1
.L850:
	strb	w0, [x19,751]
	.loc 1 1684 0
	ldrb	w0, [x19,744]
	cbnz	w0, .L867
.L775:
	.loc 1 1712 0
	mov	w0, 1
	strb	w0, [x19,1577]
	.loc 1 1718 0
	add	x1, x19, 1448
	.loc 1 1719 0
	add	x0, x29, 112
	.loc 1 1714 0
	ldr	w2, [x24,3600]
	orr	w2, w2, 2
	str	w2, [x24,3600]
	.loc 1 1716 0
	ldr	w2, [x21,15628]
	add	w2, w2, 1
	str	w2, [x21,15628]
	.loc 1 1718 0
	ldp	x2, x3, [x23]
	stp	x2, x3, [x1]
	ldp	x2, x3, [x23,16]
	stp	x2, x3, [x1,16]
	ldp	x2, x3, [x23,32]
	stp	x2, x3, [x1,32]
	ldr	x2, [x23,48]
	str	x2, [x19,1496]
	ldr	w2, [x23,56]
	str	w2, [x19,1504]
	.loc 1 1719 0
	bl	BsPos
.LVL791:
	.loc 1 1723 0
	asr	w1, w0, 31
	.loc 1 1722 0
	sub	w20, w20, w0
	.loc 1 1723 0
	lsr	w1, w1, 29
	.loc 1 1722 0
	str	w20, [x21,1300]
	.loc 1 1723 0
	add	w20, w0, w1
	and	w20, w20, 7
	.loc 1 1719 0
	mov	w23, w0
	.loc 1 1723 0
	ldr	w2, [x19,1600]
	sub	w1, w20, w1
	.loc 1 1724 0
	add	w0, w0, 7
	cmp	w23, wzr
	.loc 1 1723 0
	add	w1, w1, w2
	strb	w1, [x21,1298]
	.loc 1 1724 0
	csel	w0, w0, w23, lt
	.loc 1 1727 0
	add	x1, x21, 12288
	.loc 1 1724 0
	ldr	w2, [x19,1592]
	add	w0, w2, w0, asr 3
	str	w0, [x21,1308]
	.loc 1 1727 0
	ldrb	w0, [x1,3433]
	cbnz	w0, .L790
	.loc 1 1727 0 is_stmt 0 discriminator 1
	ldrb	w0, [x1,3513]
	cmp	w0, 1
	beq	.L868
.L790:
	.loc 1 1735 0 is_stmt 1
	str	wzr, [x21,1304]
	.loc 1 1736 0
	strb	wzr, [x21,1299]
	.loc 1 1737 0
	str	wzr, [x21,1312]
.L791:
	.loc 1 1741 0
	ldrb	w0, [x19,744]
	strb	w0, [x21,1296]
	.loc 1 1742 0
	ldrb	w0, [x19,753]
	strb	w0, [x21,1294]
	.loc 1 1743 0
	ldrb	w0, [x19,752]
	strb	w0, [x21,1293]
	.loc 1 1744 0
	ldrb	w0, [x19,751]
	strb	w0, [x21,1297]
	.loc 1 1745 0
	ldrb	w0, [x19,748]
	strb	w0, [x21,1295]
	.loc 1 1747 0
	ldr	w2, [x24,3596]
	cbnz	w2, .L869
.L792:
	.loc 1 1752 0
	mov	x0, x21
	bl	MP4_Record_SlcSegID
.LVL792:
	.loc 1 1755 0
	mov	w0, w23
	b	.L757
.LVL793:
.L853:
	.loc 1 1597 0 discriminator 2
	adrp	x1, .LC9
	mov	w0, 1
	add	x1, x1, :lo12:.LC9
	bl	dprint_linux_kernel
.LVL794:
	.loc 1 1597 0 is_stmt 0 discriminator 1
	strb	wzr, [x19,1577]
	.loc 1 1597 0 discriminator 3
	add	x0, x29, 112
	bl	BsPos
.LVL795:
	mov	w23, w0
	.loc 1 1597 0 discriminator 1
	adrp	x0, g_event_report
	ldr	x4, [x0,#:lo12:g_event_report]
	cbz	x4, .L799
	.loc 1 1597 0 discriminator 6
	ldr	w0, [x19,2808]
	mov	w1, 103
	mov	x2, 0
	mov	w3, 0
	blr	x4
.LVL796:
	.loc 1 1597 0 discriminator 7
	mov	w0, w23
	b	.L757
.L860:
	.loc 1 1572 0 is_stmt 1
	add	x0, x29, 112
	bl	BsPos
.LVL797:
	mov	w23, w0
	.loc 1 1573 0
	adrp	x1, .LC49
	mov	w0, 1
	add	x1, x1, :lo12:.LC49
	bl	dprint_linux_kernel
.LVL798:
	.loc 1 1574 0
	mov	w0, w23
	b	.L757
.LVL799:
.L858:
	.loc 1 1532 0 discriminator 1
	adrp	x0, g_VdmCharacter
	ldr	w0, [x0,#:lo12:g_VdmCharacter]
	tbz	x0, 3, .L870
	.loc 1 1543 0
	ldrb	w0, [x19,811]
	cmp	w0, 1
	bne	.L761
.L795:
	.loc 1 1545 0
	add	x0, x29, 112
	bl	BsPos
.LVL800:
	mov	w23, w0
	.loc 1 1546 0
	adrp	x2, .LANCHOR1
	adrp	x1, .LC48
	add	x2, x2, :lo12:.LANCHOR1
	mov	w0, 1
	add	x1, x1, :lo12:.LC48
	add	x2, x2, 544
	bl	dprint_linux_kernel
.LVL801:
	.loc 1 1547 0
	mov	w0, w23
	b	.L757
.LVL802:
.L861:
	.loc 1 1582 0
	strb	wzr, [x19,1577]
	.loc 1 1583 0
	add	x0, x29, 112
	bl	BsPos
.LVL803:
	mov	w23, w0
	.loc 1 1584 0
	adrp	x1, .LC52
	mov	w0, 1
	add	x1, x1, :lo12:.LC52
	mov	w2, w24
	bl	dprint_linux_kernel
.LVL804:
	.loc 1 1585 0
	mov	w0, w23
	b	.L757
.LVL805:
.L863:
	.loc 1 1591 0
	add	x0, x29, 112
	bl	BsGet
.LVL806:
	mov	w2, w0
.LVL807:
	b	.L769
.LVL808:
.L799:
	.loc 1 1597 0 discriminator 7
	mov	w0, w23
	b	.L757
.L865:
	.loc 1 1612 0 discriminator 2
	ldrb	w0, [x19,856]
	cmp	w0, 2
	bne	.L773
.L772:
	.loc 1 1614 0
	add	x0, x29, 112
	mov	w1, 1
	bl	BsGet
.LVL809:
	strb	w0, [x19,746]
	b	.L774
.LVL810:
.L870:
	.loc 1 1535 0
	strb	wzr, [x19,1577]
	.loc 1 1536 0
	add	x0, x29, 112
	bl	BsPos
.LVL811:
	mov	w23, w0
	.loc 1 1537 0
	adrp	x0, g_event_report
	ldr	x4, [x0,#:lo12:g_event_report]
	cbz	x4, .L760
	.loc 1 1537 0 is_stmt 0 discriminator 1
	ldr	w0, [x19,2808]
	mov	w1, 103
	mov	x2, 0
	mov	w3, 0
	blr	x4
.LVL812:
.L760:
	.loc 1 1538 0 is_stmt 1
	adrp	x1, .LC47
	mov	w0, 1
	add	x1, x1, :lo12:.LC47
	bl	dprint_linux_kernel
.LVL813:
	.loc 1 1539 0
	mov	w0, w23
	b	.L757
.LVL814:
.L864:
	.loc 1 1607 0
	add	x21, x21, 16384
.LVL815:
	.loc 1 1603 0
	mov	w1, 4
	.loc 1 1604 0
	mov	w0, 1
	.loc 1 1603 0
	strb	w1, [x19,744]
	.loc 1 1604 0
	strb	w0, [x19,1577]
	.loc 1 1608 0
	add	x0, x29, 112
	.loc 1 1606 0
	strb	w1, [x19,1448]
	.loc 1 1607 0
	ldr	w20, [x21,3600]
	orr	w20, w20, 128
	str	w20, [x21,3600]
	.loc 1 1608 0
	bl	BsPos
.LVL816:
	.loc 1 1609 0
	b	.L757
.LVL817:
.L869:
	.loc 1 1749 0
	adrp	x1, .LC44
	mov	w0, 1
	add	x1, x1, :lo12:.LC44
	bl	dprint_linux_kernel
.LVL818:
	.loc 1 1750 0
	mov	x0, x21
	bl	MP4_ClearCurPic
.LVL819:
	b	.L792
.LVL820:
.L866:
	.loc 1 1629 0
	mov	w1, 1
	add	x0, x29, 112
	bl	BsGet
.LVL821:
	strb	w0, [x19,749]
	.loc 1 1630 0
	mov	w1, 1
	add	x0, x29, 112
	bl	BsGet
.LVL822:
	strb	w0, [x19,750]
	b	.L777
.LVL823:
.L867:
	.loc 1 1686 0
	add	x0, x29, 112
	mov	w1, 3
	bl	BsGet
.LVL824:
	uxtb	w0, w0
	strb	w0, [x19,752]
	.loc 1 1687 0
	cbz	w0, .L871
	.loc 1 1696 0
	ldrb	w0, [x19,744]
	cmp	w0, 2
	bne	.L775
	.loc 1 1698 0
	add	x0, x29, 112
	mov	w1, 3
	bl	BsGet
.LVL825:
	uxtb	w0, w0
	strb	w0, [x19,753]
	.loc 1 1699 0
	cbnz	w0, .L775
	.loc 1 1701 0
	strb	wzr, [x19,1577]
	.loc 1 1702 0
	add	x0, x29, 112
	bl	BsPos
.LVL826:
	mov	w23, w0
	.loc 1 1703 0
	adrp	x0, g_event_report
	ldr	x4, [x0,#:lo12:g_event_report]
	cbz	x4, .L789
	.loc 1 1703 0 is_stmt 0 discriminator 1
	ldr	w0, [x19,2808]
	mov	w1, 103
	mov	x2, 0
	mov	w3, 0
	blr	x4
.LVL827:
.L789:
	.loc 1 1704 0 is_stmt 1
	adrp	x1, .LC51
	mov	w0, 1
	add	x1, x1, :lo12:.LC51
	bl	dprint_linux_kernel
.LVL828:
	.loc 1 1705 0
	mov	w0, w23
	b	.L757
.LVL829:
.L778:
	.loc 1 1638 0 discriminator 1
	ldrb	w0, [x19,744]
	cmp	w0, 3
	bne	.L781
	.loc 1 1641 0 discriminator 1
	ldrb	w0, [x19,868]
	cbz	w0, .L781
	add	x0, x19, 868
	add	x26, x19, 780
	mov	w27, 0
.LVL830:
	str	x0, [x29,104]
.LVL831:
.L785:
	.loc 1 1645 0
	add	x0, x29, 112
	.loc 1 1643 0
	mov	w25, 0
	.loc 1 1645 0
	bl	bs_get_spritetrajectory
.LVL832:
	mov	w28, w0
.LVL833:
	.loc 1 1646 0
	cbnz	w0, .L872
.L782:
	.loc 1 1654 0
	mov	x0, 500
	ldr	x1, [x21,22032]
	movk	x0, 0x19d, lsl 32
	cmp	x1, x0
	beq	.L783
	.loc 1 1656 0
	add	x0, x29, 112
	mov	w1, 1
	bl	BsSkip
.LVL834:
.L783:
	.loc 1 1659 0
	add	x0, x29, 112
	.loc 1 1644 0
	mov	w28, 0
.LVL835:
	.loc 1 1659 0
	bl	bs_get_spritetrajectory
.LVL836:
	mov	w2, w0
	.loc 1 1660 0
	cbnz	w0, .L873
.L784:
	.loc 1 1668 0
	mov	w1, 1
	add	x0, x29, 112
	add	x26, x26, 8
	.loc 1 1641 0 discriminator 2
	add	w27, w27, w1
	.loc 1 1668 0
	bl	BsSkip
.LVL837:
	.loc 1 1641 0 discriminator 1
	ldr	x0, [x29,104]
	.loc 1 1670 0
	str	w25, [x26,-8]
	.loc 1 1671 0
	str	w28, [x26,-4]
	.loc 1 1641 0 discriminator 1
	ldrb	w0, [x0]
	cmp	w0, w27
	bhi	.L785
	b	.L781
.L868:
	.loc 1 1729 0
	ldr	w0, [x21,15808]
	.loc 1 1731 0
	ldr	w1, [x21,15804]
	.loc 1 1729 0
	lsl	w0, w0, 3
	.loc 1 1730 0
	strb	wzr, [x21,1299]
	.loc 1 1729 0
	str	w0, [x21,1304]
	.loc 1 1731 0
	str	w1, [x21,1312]
	b	.L791
.L871:
	.loc 1 1689 0
	strb	wzr, [x19,1577]
	.loc 1 1690 0
	add	x0, x29, 112
	bl	BsPos
.LVL838:
	mov	w23, w0
	.loc 1 1691 0
	adrp	x0, g_event_report
	ldr	x4, [x0,#:lo12:g_event_report]
	cbz	x4, .L788
	.loc 1 1691 0 is_stmt 0 discriminator 1
	ldr	w0, [x19,2808]
	mov	w1, 103
	mov	x2, 0
	mov	w3, 0
	blr	x4
.LVL839:
.L788:
	.loc 1 1692 0 is_stmt 1
	ldrb	w2, [x19,744]
	adrp	x1, .LC50
	mov	w0, 1
	add	x1, x1, :lo12:.LC50
	bl	dprint_linux_kernel
.LVL840:
	.loc 1 1693 0
	mov	w0, w23
	b	.L757
.L873:
	.loc 1 1662 0
	mov	w1, w2
	add	x0, x29, 112
	str	x2, [x29,96]
	bl	BsGet
.LVL841:
	mov	w28, w0
	.loc 1 1663 0
	ldr	x2, [x29,96]
	sub	w0, w2, #1
	asr	w0, w28, w0
	cbnz	w0, .L784
	.loc 1 1665 0
	mov	w0, 1
	lsl	w0, w0, w2
	sub	w0, w0, #1
	eor	w0, w28, w0
	neg	w28, w0
	b	.L784
.LVL842:
.L872:
	.loc 1 1648 0
	add	x0, x29, 112
	mov	w1, w28
	bl	BsGet
.LVL843:
	mov	w25, w0
	.loc 1 1649 0
	sub	w0, w28, #1
	asr	w0, w25, w0
	cbnz	w0, .L782
	.loc 1 1651 0
	mov	w0, 1
	lsl	w2, w0, w28
	sub	w2, w2, #1
	eor	w25, w25, w2
.LVL844:
	neg	w25, w25
.LVL845:
	b	.L782
.LVL846:
.L857:
	.loc 1 1756 0
	bl	__stack_chk_fail
.LVL847:
	.cfi_endproc
.LFE2329:
	.size	Mp4_Syntax_Vop, .-Mp4_Syntax_Vop
	.align	2
	.global	Mp4_Syntax_Slice_NotSH
	.type	Mp4_Syntax_Slice_NotSH, %function
Mp4_Syntax_Slice_NotSH:
.LFB2356:
	.loc 1 4222 0
	.cfi_startproc
.LVL848:
	stp	x29, x30, [sp, -144]!
	.cfi_def_cfa_offset 144
	.cfi_offset 29, -144
	.cfi_offset 30, -136
	add	x29, sp, 0
	.cfi_def_cfa_register 29
	stp	x19, x20, [sp,16]
	stp	x21, x22, [sp,32]
	stp	x23, x24, [sp,48]
	stp	x25, x26, [sp,64]
	stp	x27, x28, [sp,80]
	.cfi_offset 19, -128
	.cfi_offset 20, -120
	.cfi_offset 21, -112
	.cfi_offset 22, -104
	.cfi_offset 23, -96
	.cfi_offset 24, -88
	.cfi_offset 25, -80
	.cfi_offset 26, -72
	.cfi_offset 27, -64
	.cfi_offset 28, -56
	.loc 1 4222 0
	adrp	x22, __stack_chk_guard
	mov	x20, x0
	.loc 1 4233 0
	ldr	w19, [x0,15628]
	.loc 1 4222 0
	mov	w23, w2
	ldr	x3, [x22,#:lo12:__stack_chk_guard]
	.loc 1 4233 0
	sub	w0, w19, #1
.LVL849:
	.loc 1 4222 0
	str	x3, [x29,136]
	.loc 1 4233 0
	cmp	w0, 510
	bhi	.L897
	.loc 1 4248 0
	add	x24, x20, 12288
	.loc 1 4245 0
	add	w0, w19, 1
	str	w0, [x20,15628]
	.loc 1 4249 0
	add	x0, x29, 96
	.loc 1 4253 0
	add	x21, x20, 20480
	.loc 1 4248 0
	ldrh	w25, [x24,3592]
	.loc 1 4249 0
	bl	BsInit
.LVL850:
	.loc 1 4250 0
	add	x0, x29, 96
	.loc 1 4248 0
	ubfx	x25, x25, 7, 4
	add	w25, w25, 17
	.loc 1 4250 0
	mov	w1, w25
	bl	BsSkip
.LVL851:
	.loc 1 4253 0
	ldr	w2, [x21,1512]
	.loc 1 4254 0
	ldr	w3, [x21,1508]
	.loc 1 4253 0
	add	w25, w2, 15
	.loc 1 4254 0
	add	w1, w3, 15
	.loc 1 4253 0
	lsr	w25, w25, 4
.LVL852:
	.loc 1 4254 0
	lsr	w0, w1, 4
.LVL853:
	.loc 1 4255 0
	mul	w25, w0, w25
.LVL854:
	.loc 1 4256 0
	cbz	w25, .L898
.LBB61:
.LBB62:
	.loc 1 220 0
	subs	w26, w25, #1
	beq	.L890
	mov	w0, w26
.LVL855:
	mov	w1, 0
.LVL856:
.L879:
	add	w1, w1, 1
.LVL857:
	.loc 1 222 0
	lsr	w0, w0, 1
	sxth	w1, w1
.LVL858:
	.loc 1 220 0
	cbnz	w0, .L879
.LVL859:
.L878:
.LBE62:
.LBE61:
	.loc 1 4264 0
	add	x0, x29, 96
.LVL860:
	uxtw	x19, w19
	bl	BsGet
.LVL861:
	.loc 1 4265 0
	cmp	w26, w0
	.loc 1 4264 0
	lsl	x4, x19, 5
	mov	w2, w0
	sub	x4, x4, x19, lsl 2
	add	x4, x20, x4
	str	w0, [x4,1316]
	.loc 1 4265 0
	bcc	.L899
	.loc 1 4270 0
	mov	w1, 5
	add	x25, x4, 1280
.LVL862:
	add	x0, x29, 96
	bl	BsGet
.LVL863:
	strb	w0, [x25,17]
	.loc 1 4271 0
	mov	w1, 1
	add	x0, x29, 96
	bl	BsGet
.LVL864:
	.loc 1 4272 0
	cbz	w0, .L881
.L893:
	.loc 1 4277 0
	add	x0, x29, 96
	mov	w1, 1
	bl	BsGet
.LVL865:
	.loc 1 4279 0 discriminator 1
	cbnz	w0, .L893
	.loc 1 4282 0
	mov	w1, 1
	.loc 1 4283 0
	add	x28, x20, 16384
	.loc 1 4282 0
	add	x0, x29, 96
	bl	BsSkip
.LVL866:
	.loc 1 4283 0
	ldr	w1, [x28,3700]
	cbnz	w1, .L900
.L883:
	.loc 1 4289 0
	mov	w1, 1
	add	x0, x29, 96
	.loc 1 4290 0
	lsl	x25, x19, 5
	.loc 1 4289 0
	bl	BsSkip
.LVL867:
	.loc 1 4290 0
	sub	x25, x25, x19, lsl 2
	add	x25, x20, x25
	mov	w1, 2
	add	x0, x29, 96
	add	x25, x25, 1280
	bl	BsGet
.LVL868:
	strb	w0, [x25,16]
	.loc 1 4291 0
	mov	w1, 3
	add	x0, x29, 96
	bl	BsGet
.LVL869:
	strb	w0, [x25,15]
	.loc 1 4293 0
	ldrb	w1, [x25,16]
	cbnz	w1, .L901
.L885:
	.loc 1 4309 0
	lsl	x26, x19, 5
	ldrb	w1, [x21,752]
	sub	x26, x26, x19, lsl 2
	.loc 1 4315 0
	add	x0, x29, 96
	.loc 1 4309 0
	add	x26, x20, x26
	.loc 1 4316 0
	lsl	w23, w23, 3
.LVL870:
	.loc 1 4309 0
	strb	w1, [x26,1293]
	.loc 1 4310 0
	ldrb	w1, [x21,753]
	strb	w1, [x26,1294]
	.loc 1 4312 0
	ldr	w1, [x28,3600]
	orr	w1, w1, 16
	str	w1, [x28,3600]
	.loc 1 4315 0
	bl	BsPos
.LVL871:
	.loc 1 4317 0
	asr	w2, w0, 31
	lsr	w2, w2, 29
	.loc 1 4316 0
	sub	w23, w23, w0
	str	w23, [x26,1300]
	.loc 1 4317 0
	add	w1, w0, w2
	and	w1, w1, 7
	.loc 1 4315 0
	mov	w25, w0
.LVL872:
	.loc 1 4317 0
	ldr	w3, [x21,1600]
	sub	w1, w1, w2
	.loc 1 4318 0
	add	w0, w0, 7
	cmp	w25, wzr
	.loc 1 4317 0
	add	w1, w1, w3
	strb	w1, [x26,1298]
	.loc 1 4318 0
	csel	w0, w0, w25, lt
.LVL873:
	ldr	w1, [x21,1592]
	add	w0, w1, w0, asr 3
.LVL874:
	str	w0, [x26,1308]
	.loc 1 4321 0
	ldrb	w0, [x24,3433]
	cbnz	w0, .L887
	.loc 1 4321 0 is_stmt 0 discriminator 1
	ldrb	w0, [x24,3513]
	cmp	w0, 1
	beq	.L902
.L887:
	.loc 1 4329 0 is_stmt 1
	lsl	x0, x19, 5
	sub	x19, x0, x19, lsl 2
	add	x19, x20, x19
	str	wzr, [x19,1304]
	.loc 1 4330 0
	strb	wzr, [x19,1299]
	.loc 1 4331 0
	str	wzr, [x19,1312]
.L888:
	.loc 1 4333 0
	mov	x0, x20
	bl	MP4_Record_SlcSegID
.LVL875:
	.loc 1 4335 0
	mov	w0, w25
.LVL876:
.L876:
	.loc 1 4336 0
	ldr	x2, [x29,136]
	ldr	x1, [x22,#:lo12:__stack_chk_guard]
	cmp	x2, x1
	bne	.L903
	ldp	x19, x20, [sp,16]
	.cfi_remember_state
	.cfi_restore 20
	.cfi_restore 19
.LVL877:
	ldp	x21, x22, [sp,32]
	.cfi_restore 22
	.cfi_restore 21
	ldp	x23, x24, [sp,48]
	.cfi_restore 24
	.cfi_restore 23
.LVL878:
	ldp	x25, x26, [sp,64]
	.cfi_restore 26
	.cfi_restore 25
.LVL879:
	ldp	x27, x28, [sp,80]
	.cfi_restore 28
	.cfi_restore 27
	ldp	x29, x30, [sp], 144
	.cfi_restore 30
	.cfi_restore 29
	.cfi_def_cfa 31, 0
	ret
.LVL880:
.L881:
	.cfi_restore_state
	.loc 1 4305 0
	ldrb	w0, [x21,744]
	add	x28, x20, 16384
	strb	w0, [x25,16]
	.loc 1 4306 0
	ldrb	w0, [x21,748]
	strb	w0, [x25,15]
	b	.L885
.LVL881:
.L897:
	.loc 1 4235 0
	add	x0, x20, 20480
	add	x1, x20, 12288
.LVL882:
	add	x1, x1, 3432
	ldr	w0, [x0,2808]
	bl	MP4_ClearCurPacket
.LVL883:
	.loc 1 4236 0
	mov	x0, x20
	bl	MP4_ClearCurPic
.LVL884:
	.loc 1 4237 0
	add	x4, x20, 16384
	mov	w3, -435
	.loc 1 4238 0
	adrp	x2, .LANCHOR1
	adrp	x1, .LC53
	add	x2, x2, :lo12:.LANCHOR1
	mov	w0, 1
	.loc 1 4237 0
	ldr	w5, [x4,3600]
	.loc 1 4238 0
	add	x1, x1, :lo12:.LC53
	add	x2, x2, 560
	.loc 1 4237 0
	and	w3, w5, w3
	str	w3, [x4,3600]
	.loc 1 4238 0
	ldr	w3, [x20,15628]
	bl	dprint_linux_kernel
.LVL885:
	.loc 1 4239 0
	mov	w0, 0
	b	.L876
.L900:
	.loc 1 4285 0
	add	x0, x29, 96
	bl	BsSkip
.LVL886:
	b	.L883
.L901:
	.loc 1 4295 0
	add	x0, x29, 96
	mov	w1, 3
	bl	BsSkip
.LVL887:
	.loc 1 4298 0
	ldrb	w0, [x25,16]
	cmp	w0, 2
	bne	.L885
	.loc 1 4300 0
	add	x0, x29, 96
	mov	w1, 3
	bl	BsSkip
.LVL888:
	b	.L885
.LVL889:
.L902:
	.loc 1 4323 0
	ldr	w0, [x20,15808]
	.loc 1 4324 0
	strb	wzr, [x26,1299]
	.loc 1 4323 0
	lsl	w0, w0, 3
	str	w0, [x26,1304]
	.loc 1 4325 0
	ldr	w0, [x20,15804]
	str	w0, [x26,1312]
	b	.L888
.LVL890:
.L890:
.LBB64:
.LBB63:
	.loc 1 220 0
	mov	w1, 0
	b	.L878
.LVL891:
.L899:
.LBE63:
.LBE64:
	.loc 1 4267 0
	adrp	x1, .LC55
	mov	w0, 1
	add	x1, x1, :lo12:.LC55
	mov	w3, w25
	bl	dprint_linux_kernel
.LVL892:
	.loc 1 4268 0
	mov	w0, -1
	b	.L876
.LVL893:
.L898:
	.loc 1 4258 0
	adrp	x1, .LC54
	mov	w0, 1
.LVL894:
	add	x1, x1, :lo12:.LC54
	bl	dprint_linux_kernel
.LVL895:
	.loc 1 4259 0
	mov	w0, -1
	b	.L876
.LVL896:
.L903:
	.loc 1 4336 0
	bl	__stack_chk_fail
.LVL897:
	.cfi_endproc
.LFE2356:
	.size	Mp4_Syntax_Slice_NotSH, .-Mp4_Syntax_Slice_NotSH
	.align	2
	.global	Mp4_Syntax_Slice_SH
	.type	Mp4_Syntax_Slice_SH, %function
Mp4_Syntax_Slice_SH:
.LFB2357:
	.loc 1 4341 0
	.cfi_startproc
.LVL898:
	stp	x29, x30, [sp, -160]!
	.cfi_def_cfa_offset 160
	.cfi_offset 29, -160
	.cfi_offset 30, -152
	add	x29, sp, 0
	.cfi_def_cfa_register 29
	stp	x19, x20, [sp,16]
	stp	x21, x22, [sp,32]
	stp	x25, x26, [sp,64]
	stp	x27, x28, [sp,80]
	stp	x23, x24, [sp,48]
	.cfi_offset 19, -144
	.cfi_offset 20, -136
	.cfi_offset 21, -128
	.cfi_offset 22, -120
	.cfi_offset 25, -96
	.cfi_offset 26, -88
	.cfi_offset 27, -80
	.cfi_offset 28, -72
	.cfi_offset 23, -112
	.cfi_offset 24, -104
	.loc 1 4341 0
	adrp	x21, __stack_chk_guard
	mov	x19, x0
	.loc 1 4350 0
	ldr	w4, [x0,15628]
	.loc 1 4341 0
	mov	w25, w2
	ldr	x0, [x21,#:lo12:__stack_chk_guard]
.LVL899:
	.loc 1 4350 0
	sub	w27, w4, #1
	.loc 1 4341 0
	str	x0, [x29,152]
	.loc 1 4350 0
	cmp	w27, 510
	bhi	.L919
	.loc 1 4365 0
	add	x26, x19, 12288
	.loc 1 4362 0
	add	w0, w4, 1
	str	w0, [x19,15628]
	.loc 1 4366 0
	add	x0, x29, 112
	.loc 1 4371 0
	uxtw	x28, w4
	add	x22, x19, 20480
	.loc 1 4365 0
	ldrb	w20, [x26,3592]
	.loc 1 4366 0
	bl	BsInit
.LVL900:
	.loc 1 4367 0
	add	x0, x29, 112
	.loc 1 4371 0
	lsl	x24, x28, 5
	.loc 1 4365 0
	ubfx	x20, x20, 3, 4
	.loc 1 4371 0
	sub	x24, x24, x28, lsl 2
	.loc 1 4365 0
	add	w20, w20, 17
	.loc 1 4371 0
	add	x24, x19, x24
	.loc 1 4367 0
	mov	w1, w20
	bl	BsSkip
.LVL901:
	.loc 1 4371 0
	add	x0, x29, 112
	mov	w1, 5
	bl	BsGet
.LVL902:
	ldrb	w2, [x22,756]
	add	x4, x24, 1296
	mul	w2, w0, w2
	str	w2, [x4,20]
	.loc 1 4372 0
	ldrh	w3, [x19,1226]
	ldrh	w0, [x19,1224]
	mul	w3, w3, w0
	sub	w3, w3, #1
.LVL903:
	.loc 1 4373 0
	cmp	w2, w3
	bhi	.L920
	.loc 1 4379 0
	mov	w1, 2
	add	x0, x29, 112
	str	x4, [x29,104]
	.loc 1 4390 0
	lsl	w25, w25, 3
.LVL904:
	.loc 1 4379 0
	bl	BsSkip
.LVL905:
	.loc 1 4380 0
	mov	w1, 5
	add	x0, x29, 112
	bl	BsGet
.LVL906:
	strb	w0, [x24,1297]
	.loc 1 4389 0
	add	x0, x29, 112
	.loc 1 4383 0
	ldrb	w1, [x22,744]
	strb	w1, [x24,1296]
	.loc 1 4384 0
	ldrb	w1, [x22,748]
	strb	w1, [x24,1295]
	.loc 1 4385 0
	ldrb	w1, [x22,752]
	strb	w1, [x24,1293]
	.loc 1 4386 0
	ldrb	w1, [x22,753]
	strb	w1, [x24,1294]
	.loc 1 4389 0
	bl	BsPos
.LVL907:
	mov	w20, w0
.LVL908:
	.loc 1 4391 0
	asr	w0, w0, 31
	.loc 1 4390 0
	sub	w25, w25, w20
	.loc 1 4391 0
	lsr	w0, w0, 29
	.loc 1 4390 0
	str	w25, [x24,1300]
	.loc 1 4391 0
	add	w1, w20, w0
	.loc 1 4392 0
	add	w3, w20, 7
	.loc 1 4391 0
	ldr	w2, [x22,1600]
	and	w1, w1, 7
	sub	w0, w1, w0
	.loc 1 4392 0
	cmp	w20, wzr
	.loc 1 4391 0
	add	w0, w0, w2
	strb	w0, [x24,1298]
	.loc 1 4392 0
	ldr	x4, [x29,104]
	csel	w3, w3, w20, lt
.LVL909:
	ldr	w0, [x22,1592]
	.loc 1 4394 0
	add	x1, x19, 16384
	.loc 1 4392 0
	add	w3, w0, w3, asr 3
.LVL910:
	str	w3, [x4,12]
	.loc 1 4394 0
	ldr	w0, [x1,3600]
	orr	w0, w0, 16
	str	w0, [x1,3600]
	.loc 1 4397 0
	ldrb	w0, [x26,3433]
	cbz	w0, .L921
.L908:
	.loc 1 4405 0
	lsl	x0, x28, 5
	sub	x0, x0, x28, lsl 2
	add	x0, x19, x0
	str	wzr, [x0,1304]
	.loc 1 4406 0
	strb	wzr, [x0,1299]
	.loc 1 4407 0
	str	wzr, [x0,1312]
.L909:
	.loc 1 4411 0
	uxtw	x1, w27
	lsl	x0, x1, 5
	sub	x0, x0, x1, lsl 2
	add	x0, x19, x0
	ldr	w2, [x0,1312]
	cbnz	w2, .L922
.L910:
	.loc 1 4417 0
	lsl	x2, x1, 5
	ldrb	w0, [x26,3592]
	sub	x1, x2, x1, lsl 2
	add	x1, x19, x1
	ubfx	x0, x0, 3, 4
	ldr	w2, [x1,1300]
	add	w0, w0, w2
	str	w0, [x1,1300]
.L911:
	.loc 1 4419 0
	mov	x0, x19
	bl	MP4_Record_SlcSegID
.LVL911:
	.loc 1 4421 0
	mov	w0, w20
.LVL912:
.L906:
	.loc 1 4422 0
	ldr	x2, [x29,152]
	ldr	x1, [x21,#:lo12:__stack_chk_guard]
	cmp	x2, x1
	bne	.L923
	ldp	x19, x20, [sp,16]
	.cfi_remember_state
	.cfi_restore 20
	.cfi_restore 19
.LVL913:
	ldp	x21, x22, [sp,32]
	.cfi_restore 22
	.cfi_restore 21
	ldp	x23, x24, [sp,48]
	.cfi_restore 24
	.cfi_restore 23
	ldp	x25, x26, [sp,64]
	.cfi_restore 26
	.cfi_restore 25
.LVL914:
	ldp	x27, x28, [sp,80]
	.cfi_restore 28
	.cfi_restore 27
	ldp	x29, x30, [sp], 160
	.cfi_restore 30
	.cfi_restore 29
	.cfi_def_cfa 31, 0
	ret
.LVL915:
.L922:
	.cfi_restore_state
	.loc 1 4411 0 discriminator 1
	ldr	w2, [x0,1304]
	add	x0, x0, 1284
	cbz	w2, .L910
	.loc 1 4413 0
	ldrb	w1, [x26,3592]
	ubfx	x1, x1, 3, 4
	add	w2, w1, w2
	str	w2, [x0,20]
	b	.L911
.L921:
	.loc 1 4397 0 discriminator 1
	ldrb	w0, [x26,3513]
	cmp	w0, 1
	bne	.L908
	.loc 1 4399 0
	ldr	w0, [x19,15808]
	.loc 1 4400 0
	strb	wzr, [x24,1299]
	.loc 1 4399 0
	lsl	w0, w0, 3
	str	w0, [x24,1304]
	.loc 1 4401 0
	ldr	w0, [x19,15804]
	str	w0, [x24,1312]
	b	.L909
.LVL916:
.L919:
	.loc 1 4352 0
	add	x0, x19, 20480
	add	x1, x19, 12288
.LVL917:
	add	x1, x1, 3432
	ldr	w0, [x0,2808]
	bl	MP4_ClearCurPacket
.LVL918:
	.loc 1 4353 0
	mov	x0, x19
	bl	MP4_ClearCurPic
.LVL919:
	.loc 1 4354 0
	add	x4, x19, 16384
	mov	w3, -435
	.loc 1 4355 0
	adrp	x2, .LANCHOR1
	adrp	x1, .LC53
	add	x2, x2, :lo12:.LANCHOR1
	mov	w0, 1
	.loc 1 4354 0
	ldr	w5, [x4,3600]
	.loc 1 4355 0
	add	x1, x1, :lo12:.LC53
	add	x2, x2, 584
	.loc 1 4354 0
	and	w3, w5, w3
	str	w3, [x4,3600]
	.loc 1 4355 0
	ldr	w3, [x19,15628]
	bl	dprint_linux_kernel
.LVL920:
	.loc 1 4356 0
	mov	w0, 0
	b	.L906
.LVL921:
.L920:
	.loc 1 4375 0
	adrp	x1, .LC56
	mov	w0, 1
	add	x1, x1, :lo12:.LC56
	bl	dprint_linux_kernel
.LVL922:
	.loc 1 4376 0
	mov	w0, -1
	b	.L906
.LVL923:
.L923:
	.loc 1 4422 0
	bl	__stack_chk_fail
.LVL924:
	.cfi_endproc
.LFE2357:
	.size	Mp4_Syntax_Slice_SH, .-Mp4_Syntax_Slice_SH
	.align	2
	.global	MP4_Dec_Slice
	.type	MP4_Dec_Slice, %function
MP4_Dec_Slice:
.LFB2359:
	.loc 1 4450 0
	.cfi_startproc
.LVL925:
	stp	x29, x30, [sp, -48]!
	.cfi_def_cfa_offset 48
	.cfi_offset 29, -48
	.cfi_offset 30, -40
	add	x29, sp, 0
	.cfi_def_cfa_register 29
	stp	x19, x20, [sp,16]
	.cfi_offset 19, -32
	.cfi_offset 20, -24
	.loc 1 4456 0
	add	x20, x0, 12288
	.loc 1 4450 0
	mov	x19, x0
	.loc 1 4456 0
	ldrb	w3, [x20,3592]
	tbz	x3, 0, .L933
	.loc 1 4488 0
	tbz	x3, 2, .L934
.L930:
	.loc 1 4492 0
	mov	x0, x19
	bl	Mp4_Syntax_Slice_SH
.LVL926:
	.loc 1 4493 0
	cmn	w0, #1
	beq	.L935
.L928:
	.loc 1 4502 0
	ldp	x19, x20, [sp,16]
	.cfi_remember_state
	.cfi_restore 20
	.cfi_restore 19
.LVL927:
	mov	w0, 0
	ldp	x29, x30, [sp], 48
	.cfi_restore 30
	.cfi_restore 29
	.cfi_def_cfa 31, 0
	ret
.LVL928:
.L934:
	.cfi_restore_state
	.loc 1 4488 0 discriminator 1
	ldrh	w0, [x20,3592]
	ubfx	x0, x0, 7, 4
	sbfiz	w4, w0, 4, 4
	.loc 1 4488 0 is_stmt 0 discriminator 2
	cmp	w4, wzr
	.loc 1 4488 0 discriminator 1
	uxtb	w0, w0
	.loc 1 4488 0 discriminator 2
	ble	.L930
	.loc 1 4490 0 is_stmt 1
	bfi	w3, w0, 3, 4
	.loc 1 4492 0
	mov	x0, x19
	.loc 1 4490 0
	strb	w3, [x20,3592]
	.loc 1 4492 0
	bl	Mp4_Syntax_Slice_SH
.LVL929:
	.loc 1 4493 0
	cmn	w0, #1
	bne	.L928
.L935:
	.loc 1 4496 0
	add	x19, x19, 20480
.LVL930:
	add	x1, x20, 3432
	ldr	w0, [x19,2808]
	bl	MP4_ClearCurPacket
.LVL931:
	.loc 1 4497 0
	adrp	x2, .LANCHOR1
	adrp	x1, .LC57
	add	x2, x2, :lo12:.LANCHOR1
	add	x1, x1, :lo12:.LC57
	add	x2, x2, 608
	mov	w0, 1
	bl	dprint_linux_kernel
.LVL932:
	.loc 1 4502 0
	mov	w0, 0
	ldp	x19, x20, [sp,16]
	.cfi_remember_state
	.cfi_restore 19
	.cfi_restore 20
	ldp	x29, x30, [sp], 48
	.cfi_restore 29
	.cfi_restore 30
	.cfi_def_cfa 31, 0
	ret
.LVL933:
.L933:
	.cfi_restore_state
	str	x2, [x29,32]
	str	x1, [x29,40]
.LBB67:
.LBB68:
	.loc 1 4458 0
	bl	Mp4_Check_Slice_NotSH
.LVL934:
	ldr	x1, [x29,40]
.LVL935:
	ldr	x2, [x29,32]
.LVL936:
	cbz	w0, .L936
	.loc 1 4472 0
	mov	x0, x19
	mov	w1, w2
.LVL937:
	bl	Mp4_Combine_SliceData
.LVL938:
	.loc 1 4473 0
	cbnz	w0, .L932
	.loc 1 4481 0
	mov	x0, x19
	bl	MP4_Record_SlcSegID
.LVL939:
	b	.L928
.LVL940:
.L936:
	.loc 1 4461 0
	mov	x0, x19
	bl	Mp4_Syntax_Slice_NotSH
.LVL941:
	.loc 1 4462 0
	cmn	w0, #1
	bne	.L928
.L932:
	.loc 1 4476 0
	add	x19, x19, 20480
.LVL942:
	add	x1, x20, 3432
	ldr	w0, [x19,2808]
	bl	MP4_ClearCurPacket
.LVL943:
	.loc 1 4477 0
	adrp	x2, .LANCHOR1
	adrp	x1, .LC57
	add	x2, x2, :lo12:.LANCHOR1
	add	x1, x1, :lo12:.LC57
	add	x2, x2, 608
	mov	w0, 1
	bl	dprint_linux_kernel
.LVL944:
	b	.L928
.LBE68:
.LBE67:
	.cfi_endproc
.LFE2359:
	.size	MP4_Dec_Slice, .-MP4_Dec_Slice
	.align	2
	.global	MP4_Record_PacketID
	.type	MP4_Record_PacketID, %function
MP4_Record_PacketID:
.LFB2364:
	.loc 1 4657 0
	.cfi_startproc
.LVL945:
	stp	x29, x30, [sp, -32]!
	.cfi_def_cfa_offset 32
	.cfi_offset 29, -32
	.cfi_offset 30, -24
	mov	x1, x0
	add	x29, sp, 0
	.cfi_def_cfa_register 29
	stp	x19, x20, [sp,16]
	.cfi_offset 19, -16
	.cfi_offset 20, -8
	.loc 1 4658 0
	add	x20, x0, 20480
	ldr	w2, [x20,2076]
	.loc 1 4661 0
	cmp	w2, 62
	bgt	.L940
	add	x0, x0, x2, sxtw 2
	.loc 1 4670 0
	add	x0, x0, 20480
	ldr	w5, [x1,15732]
	.loc 1 4674 0
	add	x4, x1, 12288
	.loc 1 4671 0
	add	w3, w2, 1
	.loc 1 4670 0
	str	w5, [x0,1820]
	.loc 1 4671 0
	str	w3, [x20,2076]
	.loc 1 4674 0
	ldrb	w3, [x4,3433]
	cbnz	w3, .L937
	.loc 1 4674 0 is_stmt 0 discriminator 1
	ldrb	w3, [x4,3513]
	cmp	w3, 1
	beq	.L941
.L937:
	.loc 1 4683 0 is_stmt 1
	ldp	x19, x20, [sp,16]
	.cfi_remember_state
	.cfi_restore 20
	.cfi_restore 19
	ldp	x29, x30, [sp], 32
	.cfi_restore 30
	.cfi_restore 29
	.cfi_def_cfa 31, 0
	ret
.L940:
	.cfi_restore_state
	mov	x19, x0
.LBB71:
.LBB72:
	.loc 1 4663 0
	bl	MP4_Clean_HeadPacket
.LVL946:
	.loc 1 4664 0
	ldr	w0, [x20,2808]
	add	x1, x19, 12288
	add	x1, x1, 3432
	bl	MP4_ClearCurPacket
.LVL947:
	.loc 1 4665 0
	ldr	w2, [x20,2076]
	adrp	x1, .LC42
	add	x1, x1, :lo12:.LC42
	mov	w3, 62
	mov	w0, 0
	bl	dprint_linux_kernel
.LVL948:
.LBE72:
.LBE71:
	.loc 1 4683 0
	ldp	x19, x20, [sp,16]
	.cfi_remember_state
	.cfi_restore 19
	.cfi_restore 20
.LVL949:
	ldp	x29, x30, [sp], 32
	.cfi_restore 29
	.cfi_restore 30
	.cfi_def_cfa 31, 0
	ret
.LVL950:
.L941:
	.cfi_restore_state
	.loc 1 4678 0
	ldr	w1, [x1,15812]
.LVL951:
	.loc 1 4679 0
	add	w2, w2, 2
	.loc 1 4678 0
	str	w1, [x0,1824]
	.loc 1 4679 0
	str	w2, [x20,2076]
	.loc 1 4683 0
	ldp	x19, x20, [sp,16]
	.cfi_restore 19
	.cfi_restore 20
	ldp	x29, x30, [sp], 32
	.cfi_restore 29
	.cfi_restore 30
	.cfi_def_cfa 31, 0
	ret
	.cfi_endproc
.LFE2364:
	.size	MP4_Record_PacketID, .-MP4_Record_PacketID
	.align	2
	.global	MP4_Record_HeadPacketInfo
	.type	MP4_Record_HeadPacketInfo, %function
MP4_Record_HeadPacketInfo:
.LFB2361:
	.loc 1 4534 0
	.cfi_startproc
.LVL952:
	stp	x29, x30, [sp, -48]!
	.cfi_def_cfa_offset 48
	.cfi_offset 29, -48
	.cfi_offset 30, -40
	add	x29, sp, 0
	.cfi_def_cfa_register 29
	stp	x19, x20, [sp,16]
	str	x21, [sp,32]
	.cfi_offset 19, -32
	.cfi_offset 20, -24
	.cfi_offset 21, -16
	.loc 1 4534 0
	mov	x20, x0
	mov	w21, w1
	.loc 1 4538 0
	cbz	x0, .L946
	.loc 1 4549 0
	add	x19, x0, 20480
	add	x1, x0, 12288
	add	x1, x1, 3432
	add	x0, x19, 1656
	mov	x2, 160
	bl	memcpy
.LVL953:
	.loc 1 4552 0
	ldr	w1, [x20,15880]
	.loc 1 4558 0
	ldr	w0, [x19,2084]
	.loc 1 4552 0
	str	w1, [x19,1816]
	.loc 1 4555 0
	str	w21, [x19,2080]
	.loc 1 4558 0
	cbz	w0, .L947
.L945:
	.loc 1 4563 0
	ldr	w0, [x19,2088]
	add	w0, w0, 1
	str	w0, [x19,2088]
	.loc 1 4566 0
	ldp	x19, x20, [sp,16]
	.cfi_remember_state
	.cfi_restore 20
	.cfi_restore 19
.LVL954:
	ldr	x21, [sp,32]
	.cfi_restore 21
.LVL955:
	ldp	x29, x30, [sp], 48
	.cfi_restore 30
	.cfi_restore 29
	.cfi_def_cfa 31, 0
	ret
.LVL956:
.L947:
	.cfi_restore_state
	.loc 1 4560 0
	mov	x0, x20
	bl	MP4_Record_PacketID
.LVL957:
	.loc 1 4561 0
	mov	w0, 1
	str	w0, [x19,2084]
	b	.L945
.LVL958:
.L946:
.LBB75:
.LBB76:
	.loc 1 4540 0
	adrp	x1, .LC58
	mov	w0, 1
.LVL959:
	add	x1, x1, :lo12:.LC58
	bl	dprint_linux_kernel
.LVL960:
.LBE76:
.LBE75:
	.loc 1 4566 0
	ldr	x21, [sp,32]
	.cfi_restore 21
.LVL961:
	ldp	x19, x20, [sp,16]
	.cfi_restore 19
	.cfi_restore 20
.LVL962:
	ldp	x29, x30, [sp], 48
	.cfi_restore 29
	.cfi_restore 30
	.cfi_def_cfa 31, 0
	ret
	.cfi_endproc
.LFE2361:
	.size	MP4_Record_HeadPacketInfo, .-MP4_Record_HeadPacketInfo
	.align	2
	.global	Mp4_Syntax_Parse
	.type	Mp4_Syntax_Parse, %function
Mp4_Syntax_Parse:
.LFB2332:
	.loc 1 2163 0
	.cfi_startproc
.LVL963:
	stp	x29, x30, [sp, -192]!
	.cfi_def_cfa_offset 192
	.cfi_offset 29, -192
	.cfi_offset 30, -184
	add	x29, sp, 0
	.cfi_def_cfa_register 29
	stp	x23, x24, [sp,48]
	.cfi_offset 23, -144
	.cfi_offset 24, -136
	adrp	x23, __stack_chk_guard
	mov	x24, x1
	stp	x19, x20, [sp,16]
	.cfi_offset 19, -176
	.cfi_offset 20, -168
	.loc 1 2175 0
	add	x19, x29, 104
	.loc 1 2163 0
	stp	x25, x26, [sp,64]
	stp	x21, x22, [sp,32]
	stp	x27, x28, [sp,80]
	.cfi_offset 25, -128
	.cfi_offset 26, -120
	.cfi_offset 21, -160
	.cfi_offset 22, -152
	.cfi_offset 27, -112
	.cfi_offset 28, -104
	.loc 1 2163 0
	ldr	x3, [x23,#:lo12:__stack_chk_guard]
	mov	x22, x0
	.loc 1 2175 0
	stp	xzr, xzr, [x19]
	.loc 1 2177 0
	mov	x0, x19
.LVL964:
	.loc 1 2163 0
	mov	w25, w2
	.loc 1 2175 0
	stp	xzr, xzr, [x19,16]
	.loc 1 2163 0
	str	x3, [x29,184]
	.loc 1 2179 0
	add	x26, x22, 16384
	.loc 1 2175 0
	str	xzr, [x29,136]
	.loc 1 2177 0
	bl	BsInit
.LVL965:
	.loc 1 2178 0
	mov	x0, x19
	mov	w1, 32
	bl	BsShow
.LVL966:
	.loc 1 2179 0
	str	wzr, [x26,3604]
.LVL967:
	.loc 1 2181 0
	cmp	w0, 510
	.loc 1 2178 0
	mov	w20, w0
.LVL968:
	.loc 1 2181 0
	beq	.L1082
.LBB85:
.LBB86:
	.loc 1 4429 0
	add	x27, x22, 12288
	ldrb	w0, [x27,3592]
	tbz	x0, 0, .L1083
.L954:
	.loc 1 4443 0
	add	x21, x22, 20480
	mov	w1, 1
	.loc 1 4442 0
	mov	w20, 196
	.loc 1 4443 0
	strb	w1, [x21,813]
.L955:
.LBE86:
.LBE85:
	.loc 1 2210 0
	tbnz	x0, 1, .L956
	.loc 1 2215 0
	ldr	w0, [x26,3600]
	mov	w19, 130
	ands	w19, w0, w19
	bne	.L1084
	.loc 1 2225 0
	cmp	w20, 197
	beq	.L1085
	.loc 1 2232 0
	cmp	w20, 432
	beq	.L1086
	.loc 1 2241 0
	cmp	w20, 437
	beq	.L1087
	.loc 1 2250 0
	and	w0, w20, -16
	cmp	w0, 288
	beq	.L1088
	.loc 1 2267 0
	cmp	w20, 435
	beq	.L1089
	.loc 1 2276 0
	cmp	w20, 438
	beq	.L1090
	.loc 1 2300 0
	cmp	w20, 196
	beq	.L1091
	.loc 1 2314 0
	cmp	w20, 434
	beq	.L1092
	.loc 1 2321 0
	cmp	w20, 286
	bne	.L971
	.loc 1 2324 0
	adrp	x0, g_event_report
	ldr	x4, [x0,#:lo12:g_event_report]
	cbz	x4, .L972
	.loc 1 2324 0 is_stmt 0 discriminator 1
	ldr	w0, [x21,2808]
	mov	w1, 112
	mov	x2, 0
	mov	w3, 0
	blr	x4
.LVL969:
.L972:
	.loc 1 2328 0 is_stmt 1
	ldr	w0, [x21,2808]
	add	x1, x27, 3432
	.loc 1 2326 0
	add	x19, x24, 4
.LVL970:
	.loc 1 2327 0
	sub	w25, w25, #4
	.loc 1 2328 0
	bl	MP4_ClearCurPacket
.LVL971:
	.loc 1 2329 0
	ldr	w0, [x26,3600]
	tbz	x0, 1, .L973
	.loc 1 2332 0
	orr	w0, w0, 256
	str	w0, [x26,3600]
.L973:
	.loc 1 2351 0
	add	x27, x22, 40960
	mov	w28, 0
.LVL972:
	ldrb	w0, [x27,2353]
	cmp	w0, 1
	beq	.L1005
.L979:
	.loc 1 2446 0
	ldrb	w0, [x21,1575]
	mov	w19, w28
.LVL973:
	cmp	w0, 1
	bne	.L953
	.loc 1 2448 0
	ldr	w3, [x21,2096]
	.loc 1 2450 0
	add	x0, x21, 844
	.loc 1 2449 0
	str	wzr, [x21,2100]
	.loc 1 2450 0
	add	x1, x26, 3632
	.loc 1 2448 0
	add	w3, w3, 1
	.loc 1 2450 0
	mov	x2, 604
	.loc 1 2448 0
	str	w3, [x21,2096]
	.loc 1 2450 0
	bl	memcpy
.LVL974:
	.loc 1 2452 0
	ldr	w5, [x21,1508]
	ldr	w4, [x26,3716]
	ldr	w3, [x26,3712]
	cmp	w5, w4
	beq	.L1093
.L997:
	.loc 1 2467 0
	adrp	x0, g_event_report
	ldr	x6, [x0,#:lo12:g_event_report]
	cbz	x6, .L1000
.LBB93:
	.loc 1 2467 0 is_stmt 0 discriminator 1
	ldr	w7, [x21,1512]
	mov	w1, 2
	ldr	w0, [x21,2808]
	add	x2, x29, 96
	strh	w3, [x29,100]
	mov	w3, 8
	strh	w4, [x29,102]
	strh	w7, [x29,96]
	strh	w5, [x29,98]
	blr	x6
.LVL975:
	ldr	w4, [x26,3716]
	ldr	w3, [x26,3712]
.L1000:
.LBE93:
	.loc 1 2470 0 is_stmt 1
	str	w4, [x21,1508]
	.loc 1 2471 0
	str	w3, [x21,1512]
.L998:
.LBB94:
	.loc 1 2476 0
	ldr	w0, [x21,2808]
	ldr	w1, [x27,2336]
	bl	FSP_GetFsImagePtr
.LVL976:
	mov	x19, x0
.LVL977:
	cbz	x0, .L1002
	.loc 1 2476 0 is_stmt 0 discriminator 2
	ldr	w0, [x21,2808]
	ldr	x1, [x19,248]
	bl	FreeUsdByDec
.LVL978:
	.loc 1 2476 0 discriminator 3
	ldr	w0, [x21,2808]
	ldr	x1, [x19,256]
	bl	FreeUsdByDec
.LVL979:
	.loc 1 2476 0 discriminator 4
	ldr	w0, [x21,2808]
	ldr	x1, [x19,264]
	bl	FreeUsdByDec
.LVL980:
	.loc 1 2476 0 discriminator 5
	ldr	w0, [x21,2808]
	ldr	x1, [x19,272]
	bl	FreeUsdByDec
.LVL981:
	.loc 1 2476 0 discriminator 1
	str	xzr, [x19,248]
	str	xzr, [x19,256]
	.loc 1 2476 0 discriminator 6
	mov	w2, 1
	.loc 1 2476 0 discriminator 1
	str	xzr, [x19,264]
	str	xzr, [x19,272]
	.loc 1 2476 0 discriminator 6
	ldr	w0, [x21,2808]
	ldr	w1, [x27,2336]
	bl	FSP_ClearLogicFs
.LVL982:
	.loc 1 2476 0 discriminator 7
	ldr	w0, [x21,2808]
	mov	w2, 1
	ldr	w1, [x27,2328]
	bl	FSP_ClearLogicFs
.LVL983:
	.loc 1 2476 0 discriminator 1
	str	wzr, [x27,2328]
	str	wzr, [x27,2336]
	.loc 1 2476 0 discriminator 8
	ldr	w0, [x21,2808]
	bl	FSP_GetNullLogicFs
.LVL984:
	.loc 1 2476 0 discriminator 1
	str	w0, [x27,2336]
	str	w0, [x27,2328]
.L1002:
.LBE94:
	.loc 1 2478 0 is_stmt 1
	add	x19, x21, 2192
.LVL985:
	ldr	w0, [x21,2808]
.LVL986:
	mov	x1, x19
	.loc 1 2477 0
	str	wzr, [x21,2816]
	.loc 1 2478 0
	bl	FSP_ClearNotInVoQueue
.LVL987:
	.loc 1 2480 0
	ldr	x0, [x22,22088]
	ldr	w1, [x0,772]
	cbnz	w1, .L1003
	.loc 1 2480 0 is_stmt 0 discriminator 1
	ldr	w0, [x0,28]
	cmp	w0, 25
	beq	.L1094
.L1003:
	.loc 1 2489 0 is_stmt 1
	mov	x0, x19
	bl	ResetVoQueue
.LVL988:
.L1004:
	.loc 1 2492 0
	ldr	w1, [x21,1512]
	mov	x0, x22
	ldr	w2, [x21,1508]
	bl	Frame_Init
.LVL989:
	cbnz	w0, .L1095
.L1001:
	.loc 1 2499 0
	ldr	w0, [x21,1508]
	mov	w19, w28
	.loc 1 2498 0
	ldr	w1, [x21,1512]
	str	w1, [x21,2116]
	.loc 1 2499 0
	str	w0, [x21,2120]
	.loc 1 2501 0
	ldr	w0, [x26,3716]
	str	w0, [x21,1508]
	.loc 1 2502 0
	ldr	w0, [x26,3712]
	str	w0, [x21,1512]
	.loc 1 2507 0
	strb	wzr, [x21,1575]
	b	.L953
.LVL990:
.L1084:
	.loc 1 2219 0
	orr	w0, w0, 32
	.loc 1 2222 0
	mov	w19, 0
	.loc 1 2219 0
	str	w0, [x26,3600]
	.loc 1 2220 0
	mov	w0, 1
	str	w0, [x26,3604]
.LVL991:
.L953:
	.loc 1 2526 0
	ldr	x2, [x29,184]
	mov	w0, w19
	ldr	x1, [x23,#:lo12:__stack_chk_guard]
	cmp	x2, x1
	bne	.L1096
	ldp	x19, x20, [sp,16]
	.cfi_remember_state
	.cfi_restore 20
	.cfi_restore 19
.LVL992:
	ldp	x21, x22, [sp,32]
	.cfi_restore 22
	.cfi_restore 21
.LVL993:
	ldp	x23, x24, [sp,48]
	.cfi_restore 24
	.cfi_restore 23
.LVL994:
	ldp	x25, x26, [sp,64]
	.cfi_restore 26
	.cfi_restore 25
.LVL995:
	ldp	x27, x28, [sp,80]
	.cfi_restore 28
	.cfi_restore 27
.LVL996:
	ldp	x29, x30, [sp], 192
	.cfi_restore 30
	.cfi_restore 29
	.cfi_def_cfa 31, 0
	ret
.LVL997:
.L956:
	.cfi_restore_state
	.loc 1 2348 0
	mov	x0, x22
	mov	x1, x24
	mov	w2, w25
	bl	MP4_Dec_Slice
.LVL998:
	mov	w28, w0
.LVL999:
.L960:
	.loc 1 2351 0
	add	x27, x22, 40960
	mov	x19, x24
	ldrb	w0, [x27,2353]
	cmp	w0, 1
	beq	.L1005
	.loc 1 2363 0
	cmp	w28, w25, lsl 3
	bhi	.L978
.L1101:
	.loc 1 2367 0
	cmp	w20, 196
	beq	.L1017
	cmp	w20, 438
	bne	.L979
.L1017:
	.loc 1 2369 0
	ldr	w1, [x26,3600]
	mov	w0, 130
	.loc 1 2368 0
	tst	w1, w0
	beq	.L979
	.loc 1 2371 0
	ldrb	w0, [x21,813]
	cmp	w0, 2
	beq	.L1097
	.loc 1 2390 0
	ldr	w4, [x21,1512]
	.loc 1 2391 0
	ldr	w5, [x21,1508]
	.loc 1 2390 0
	str	w4, [x21,2124]
	.loc 1 2391 0
	str	w5, [x21,2128]
	.loc 1 2394 0
	cbz	w4, .L984
	.loc 1 2394 0 is_stmt 0 discriminator 1
	ldr	w0, [x21,2116]
	.loc 1 2397 0 is_stmt 1
	mov	w20, 1
.LVL1000:
	.loc 1 2394 0 discriminator 1
	cmp	w4, w0
	beq	.L984
.L985:
	.loc 1 2407 0
	adrp	x0, g_event_report
	ldr	x6, [x0,#:lo12:g_event_report]
	cbz	x6, .L989
.LBB95:
	.loc 1 2407 0 is_stmt 0 discriminator 1
	ldr	w8, [x21,2116]
	mov	w1, 2
	ldr	w7, [x21,2120]
	add	x2, x29, 96
	ldr	w0, [x21,2808]
	mov	w3, 8
	strh	w8, [x29,96]
	strh	w7, [x29,98]
	strh	w4, [x29,100]
	strh	w5, [x29,102]
	blr	x6
.LVL1001:
.L989:
.LBE95:
	.loc 1 2410 0 is_stmt 1
	cbnz	w20, .L1098
.LVL1002:
.L991:
	.loc 1 2434 0
	ldr	w1, [x21,2124]
	.loc 1 2435 0
	ldr	w0, [x21,2128]
	.loc 1 2434 0
	str	w1, [x21,2116]
	.loc 1 2435 0
	str	w0, [x21,2120]
.LVL1003:
.L983:
	.loc 1 2439 0
	add	x3, x21, 744
	add	x2, x21, 1448
	.loc 1 2444 0
	sub	x19, x19, x24
	.loc 1 2439 0
	ldp	x0, x1, [x3]
	stp	x0, x1, [x2]
	.loc 1 2441 0
	adrp	x1, .LC70
	mov	w0, 2
	.loc 1 2439 0
	ldp	x4, x5, [x3,16]
	stp	x4, x5, [x2,16]
	.loc 1 2441 0
	add	x1, x1, :lo12:.LC70
	.loc 1 2444 0
	add	w19, w28, w19, lsl 3
	.loc 1 2439 0
	ldp	x4, x5, [x3,32]
	stp	x4, x5, [x2,32]
	ldr	x4, [x21,792]
	ldr	w3, [x21,800]
	str	x4, [x21,1496]
	str	w3, [x21,1504]
	.loc 1 2441 0
	bl	dprint_linux_kernel
.LVL1004:
	.loc 1 2443 0
	ldr	w0, [x21,2100]
	add	w0, w0, 1
	str	w0, [x21,2100]
	.loc 1 2444 0
	b	.L953
.LVL1005:
.L1083:
.LBB96:
.LBB91:
.LBB87:
.LBB88:
	.loc 1 4431 0
	add	x21, x22, 20480
	.loc 1 4435 0
	lsr	w1, w20, 8
	sub	w1, w1, #128
	cmp	w1, 3
	.loc 1 4431 0
	mov	w1, 2
	strb	w1, [x21,813]
	.loc 1 4435 0
	bhi	.L955
	.loc 1 4437 0
	ldrb	w0, [x27,3592]
	orr	w0, w0, 2
	strb	w0, [x27,3592]
	uxtb	w0, w0
	b	.L955
.LVL1006:
.L984:
.LBE88:
.LBE87:
.LBE91:
.LBE96:
	.loc 1 2394 0 discriminator 3
	cbnz	w5, .L1099
	.loc 1 2394 0 is_stmt 0 discriminator 6
	ldr	w0, [x21,2812]
	cmp	w0, 1
	.loc 1 2397 0 is_stmt 1
	cset	w20, ne
.LVL1007:
	.loc 1 2405 0
	cbz	w4, .L989
.L1008:
	.loc 1 2405 0 is_stmt 0 discriminator 1
	ldr	w0, [x21,2116]
	cmp	w4, w0
	bne	.L985
	.loc 1 2405 0 discriminator 3
	cbz	w5, .L989
.L1010:
	.loc 1 2405 0 discriminator 4
	ldr	w0, [x21,2120]
	cmp	w5, w0
	beq	.L989
	b	.L985
.LVL1008:
.L1005:
	.loc 1 2353 0 is_stmt 1
	ldr	w1, [x26,3712]
	cbz	w1, .L976
	.loc 1 2353 0 is_stmt 0 discriminator 1
	ldr	w2, [x26,3716]
	cbnz	w2, .L1100
.L976:
	.loc 1 2360 0 is_stmt 1
	strb	wzr, [x27,2353]
.L1103:
	.loc 1 2363 0
	cmp	w28, w25, lsl 3
	bls	.L1101
.L978:
	.loc 1 2519 0
	adrp	x1, .LC72
	mov	w0, 2
	add	x1, x1, :lo12:.LC72
	.loc 1 2522 0
	sub	x19, x19, x24
.LVL1009:
	lsl	w19, w19, 3
	.loc 1 2519 0
	bl	dprint_linux_kernel
.LVL1010:
	.loc 1 2521 0
	ldr	w1, [x26,3600]
	mov	w0, -435
	and	w0, w1, w0
	str	w0, [x26,3600]
	.loc 1 2522 0
	b	.L953
.LVL1011:
.L1082:
	.loc 1 2183 0
	ldp	x2, x3, [x19]
	ldp	x4, x5, [x19,16]
	stp	x2, x3, [x29,144]
	ldr	x2, [x29,136]
	.loc 1 2185 0
	mov	w1, 32
	add	x0, x29, 144
	.loc 1 2183 0
	str	x2, [x29,176]
	stp	x4, x5, [x29,160]
	.loc 1 2185 0
	bl	BsSkip
.LVL1012:
	.loc 1 2187 0
	mov	w1, 32
	add	x0, x29, 144
	bl	BsGet
.LVL1013:
	mov	w19, w0
	.loc 1 2188 0
	mov	w1, 32
	add	x0, x29, 144
	bl	BsGet
.LVL1014:
	.loc 1 2190 0
	mov	w1, 20036
	movk	w1, 0x4345, lsl 16
	cmp	w0, w1
	bne	.L950
	mov	w0, 20553
	movk	w0, 0x4853, lsl 16
	cmp	w19, w0
	bne	.L950
	.loc 1 2193 0
	adrp	x1, g_event_report
	.loc 1 2192 0
	add	x0, x22, 40960
	.loc 1 2193 0 discriminator 1
	add	x21, x22, 20480
	.loc 1 2193 0 is_stmt 0
	ldr	x4, [x1,#:lo12:g_event_report]
	.loc 1 2192 0 is_stmt 1
	mov	w1, 1
	strb	w1, [x0,2352]
	.loc 1 2193 0
	cbz	x4, .L951
	.loc 1 2193 0 is_stmt 0 discriminator 1
	ldr	w0, [x21,2808]
	mov	w1, 117
	mov	x2, 0
	mov	w3, 0
	blr	x4
.LVL1015:
.L951:
	.loc 1 2195 0 is_stmt 1
	ldr	w0, [x26,3600]
	mov	w1, 130
	tst	w0, w1
	beq	.L952
	.loc 1 2198 0
	orr	w0, w0, 32
	str	w0, [x26,3600]
	.loc 1 2199 0
	mov	w0, 1
	str	w0, [x26,3604]
.L952:
	.loc 1 2201 0
	add	x1, x22, 12288
	ldr	w0, [x21,2808]
	add	x1, x1, 3432
	.loc 1 2203 0
	mov	w19, 0
	.loc 1 2201 0
	bl	MP4_ClearCurPacket
.LVL1016:
	.loc 1 2203 0
	b	.L953
.L950:
.LBB97:
.LBB92:
	.loc 1 4429 0
	add	x27, x22, 12288
	ldrb	w0, [x27,3592]
	tbnz	x0, 0, .L954
.LBB90:
.LBB89:
	.loc 1 4431 0
	add	x21, x22, 20480
	mov	w1, 2
	strb	w1, [x21,813]
	b	.L955
.L971:
.LBE89:
.LBE90:
.LBE92:
.LBE97:
	.loc 1 2342 0
	ldr	w0, [x21,2808]
	add	x1, x27, 3432
	.loc 1 2340 0
	add	x19, x24, 4
.LVL1017:
	.loc 1 2341 0
	sub	w25, w25, #4
	.loc 1 2342 0
	bl	MP4_ClearCurPacket
.LVL1018:
	b	.L973
.LVL1019:
.L1086:
	.loc 1 2235 0
	adrp	x1, .LC60
	mov	w0, 2
	add	x1, x1, :lo12:.LC60
	bl	dprint_linux_kernel
.LVL1020:
	.loc 1 2236 0
	str	wzr, [x21,2132]
	.loc 1 2237 0
	mov	x1, x24
	mov	x0, x22
	mov	w2, w25
	bl	Mp4_Syntax_Vos
.LVL1021:
	mov	w28, w0
.LVL1022:
	.loc 1 2239 0
	mov	w1, w20
	mov	x0, x22
	bl	MP4_Record_HeadPacketInfo
.LVL1023:
	b	.L960
.LVL1024:
.L1099:
	.loc 1 2394 0 discriminator 4
	ldr	w0, [x21,2120]
	.loc 1 2397 0
	mov	w20, 1
.LVL1025:
	.loc 1 2394 0 discriminator 4
	cmp	w5, w0
	bne	.L985
	.loc 1 2394 0 is_stmt 0 discriminator 6
	ldr	w0, [x21,2812]
	cmp	w0, w20
.LVL1026:
	.loc 1 2397 0 is_stmt 1
	cset	w20, ne
.LVL1027:
	.loc 1 2405 0
	cbz	w4, .L1010
	b	.L1008
.LVL1028:
.L1090:
	.loc 1 2279 0
	adrp	x1, .LC64
	mov	w0, 2
	add	x1, x1, :lo12:.LC64
	bl	dprint_linux_kernel
.LVL1029:
	.loc 1 2281 0
	cmp	w25, 4
	.loc 1 2283 0
	mov	x0, x22
	.loc 1 2281 0
	beq	.L1102
	.loc 1 2287 0
	mov	x1, x24
	mov	w2, w25
	bl	Mp4_Syntax_Vop
.LVL1030:
	mov	w28, w0
.LVL1031:
	.loc 1 2288 0
	ldr	w0, [x26,3600]
	tbnz	x0, 1, .L967
	.loc 1 2290 0
	ldr	w0, [x21,2808]
	add	x1, x27, 3432
	bl	MP4_ClearCurPacket
.LVL1032:
.L966:
	.loc 1 2298 0
	adrp	x1, .LC65
	mov	w2, w28
	add	x1, x1, :lo12:.LC65
	mov	w0, 7
	bl	dprint_linux_kernel
.LVL1033:
	b	.L960
.LVL1034:
.L1100:
	.loc 1 2355 0
	mov	x0, x22
	bl	Frame_Init
.LVL1035:
	cbz	w0, .L976
	.loc 1 2357 0
	adrp	x1, .LC68
	mov	w0, 0
	add	x1, x1, :lo12:.LC68
	bl	dprint_linux_kernel
.LVL1036:
	.loc 1 2360 0
	strb	wzr, [x27,2353]
	b	.L1103
.LVL1037:
.L1093:
	.loc 1 2452 0 discriminator 1
	ldr	w0, [x21,1512]
	cmp	w0, w3
	bne	.L997
	.loc 1 2474 0
	ldr	w0, [x21,2812]
	cmp	w0, 1
	beq	.L1001
	b	.L998
.LVL1038:
.L1087:
	.loc 1 2244 0
	adrp	x1, .LC61
	mov	w0, 2
	add	x1, x1, :lo12:.LC61
	bl	dprint_linux_kernel
.LVL1039:
	.loc 1 2245 0
	mov	w1, 1
	.loc 1 2246 0
	mov	x0, x22
	.loc 1 2245 0
	str	w1, [x21,2132]
	.loc 1 2246 0
	mov	w2, w25
	mov	x1, x24
	bl	Mp4_Syntax_Vo
.LVL1040:
	mov	w28, w0
.LVL1041:
	.loc 1 2248 0
	mov	w1, w20
	mov	x0, x22
	bl	MP4_Record_HeadPacketInfo
.LVL1042:
	b	.L960
.LVL1043:
.L1088:
	.loc 1 2253 0
	adrp	x1, .LC62
	mov	w0, 2
	add	x1, x1, :lo12:.LC62
	bl	dprint_linux_kernel
.LVL1044:
	.loc 1 2254 0
	mov	w0, 2
	.loc 1 2255 0
	mov	w2, w25
	.loc 1 2254 0
	str	w0, [x21,2132]
	.loc 1 2255 0
	mov	x1, x24
	mov	x0, x22
	bl	Mp4_Syntax_Vol
.LVL1045:
	mov	w28, w0
.LVL1046:
	.loc 1 2257 0
	mov	w1, w20
	mov	x0, x22
	bl	MP4_Record_HeadPacketInfo
.LVL1047:
	.loc 1 2259 0
	ldrb	w0, [x21,1575]
	cmp	w0, 1
	beq	.L960
	.loc 1 2259 0 is_stmt 0 discriminator 1
	ldrb	w19, [x21,1576]
	cmp	w19, 1
	bne	.L960
	.loc 1 2262 0 is_stmt 1
	add	x0, x26, 3632
	add	x1, x21, 140
	mov	x2, 604
	bl	memcpy
.LVL1048:
	.loc 1 2263 0
	strb	w19, [x21,1575]
	.loc 1 2264 0
	strb	w19, [x21,805]
	b	.L960
.LVL1049:
.L1085:
	.loc 1 2227 0
	adrp	x1, .LC59
	mov	w0, 2
	add	x1, x1, :lo12:.LC59
	bl	dprint_linux_kernel
.LVL1050:
	.loc 1 2229 0
	ldr	w0, [x21,2808]
	add	x1, x27, 3432
	bl	MP4_ClearCurPacket
.LVL1051:
	.loc 1 2230 0
	b	.L953
.LVL1052:
.L1097:
	.loc 1 2373 0
	ldrb	w0, [x21,744]
	cmp	w0, 2
	beq	.L982
	.loc 1 2375 0
	ldr	w1, [x21,1524]
	.loc 1 2376 0
	ldr	w0, [x21,1516]
	.loc 1 2375 0
	str	w1, [x21,1528]
	.loc 1 2376 0
	add	w1, w1, w0
	str	w1, [x21,1524]
	.loc 1 2377 0
	ldr	w0, [x21,1520]
	ldr	w3, [x26,3704]
	.loc 1 2378 0
	ldr	w2, [x21,1536]
	.loc 1 2377 0
	madd	w0, w1, w3, w0
	str	w0, [x21,1532]
	.loc 1 2378 0
	sub	w2, w0, w2
	.loc 1 2379 0
	str	w0, [x21,1536]
	.loc 1 2378 0
	str	w2, [x21,1540]
	b	.L983
.LVL1053:
.L1089:
	.loc 1 2270 0
	adrp	x1, .LC63
	mov	w0, 2
	add	x1, x1, :lo12:.LC63
	bl	dprint_linux_kernel
.LVL1054:
	.loc 1 2271 0
	mov	w1, 3
	.loc 1 2272 0
	mov	x0, x22
	.loc 1 2271 0
	str	w1, [x21,2132]
	.loc 1 2272 0
	mov	w2, w25
	mov	x1, x24
	bl	Mp4_Syntax_Gop
.LVL1055:
	mov	w28, w0
.LVL1056:
	.loc 1 2274 0
	mov	w1, w20
	mov	x0, x22
	bl	MP4_Record_HeadPacketInfo
.LVL1057:
	b	.L960
.LVL1058:
.L1091:
	.loc 1 2303 0
	adrp	x1, .LC66
	mov	w0, 2
	add	x1, x1, :lo12:.LC66
	bl	dprint_linux_kernel
.LVL1059:
	.loc 1 2304 0
	mov	x0, x22
	mov	x1, x24
	mov	w2, w25
	bl	Mp4_Syntax_ShortHeader
.LVL1060:
	mov	w28, w0
.LVL1061:
	.loc 1 2305 0
	ldr	w0, [x26,3600]
	tbz	x0, 1, .L1079
	.loc 1 2311 0
	mov	x0, x22
	mov	w1, 196
	bl	MP4_Record_HeadPacketInfo
.LVL1062:
	b	.L960
.LVL1063:
.L1092:
	.loc 1 2317 0
	adrp	x1, .LC67
	mov	w0, 2
	add	x1, x1, :lo12:.LC67
	bl	dprint_linux_kernel
.LVL1064:
	.loc 1 2318 0
	mov	x0, x22
	mov	x1, x24
	mov	w2, w25
	bl	Mp4_Syntax_UserData
.LVL1065:
	mov	w28, w0
.LVL1066:
.L1079:
	.loc 1 2319 0
	ldr	w0, [x21,2808]
	add	x1, x27, 3432
	bl	MP4_ClearCurPacket
.LVL1067:
	b	.L960
.LVL1068:
.L1098:
.LBB98:
	.loc 1 2412 0
	ldr	w0, [x21,2808]
	ldr	w1, [x27,2336]
	bl	FSP_GetFsImagePtr
.LVL1069:
	mov	x25, x0
.LVL1070:
	cbz	x0, .L992
	.loc 1 2412 0 is_stmt 0 discriminator 2
	ldr	w0, [x21,2808]
	ldr	x1, [x25,248]
	bl	FreeUsdByDec
.LVL1071:
	.loc 1 2412 0 discriminator 3
	ldr	w0, [x21,2808]
	ldr	x1, [x25,256]
	bl	FreeUsdByDec
.LVL1072:
	.loc 1 2412 0 discriminator 4
	ldr	w0, [x21,2808]
	ldr	x1, [x25,264]
	bl	FreeUsdByDec
.LVL1073:
	.loc 1 2412 0 discriminator 5
	ldr	w0, [x21,2808]
	ldr	x1, [x25,272]
	bl	FreeUsdByDec
.LVL1074:
	.loc 1 2412 0 discriminator 1
	str	xzr, [x25,248]
	str	xzr, [x25,256]
	.loc 1 2412 0 discriminator 6
	mov	w2, w20
	.loc 1 2412 0 discriminator 1
	str	xzr, [x25,264]
	str	xzr, [x25,272]
	.loc 1 2412 0 discriminator 6
	ldr	w0, [x21,2808]
	ldr	w1, [x27,2336]
	bl	FSP_ClearLogicFs
.LVL1075:
	.loc 1 2412 0 discriminator 7
	ldr	w0, [x21,2808]
	mov	w2, w20
	ldr	w1, [x27,2328]
	bl	FSP_ClearLogicFs
.LVL1076:
	.loc 1 2412 0 discriminator 1
	str	wzr, [x27,2328]
	str	wzr, [x27,2336]
	.loc 1 2412 0 discriminator 8
	ldr	w0, [x21,2808]
	bl	FSP_GetNullLogicFs
.LVL1077:
	.loc 1 2412 0 discriminator 1
	str	w0, [x27,2336]
	str	w0, [x27,2328]
.L992:
.LBE98:
	.loc 1 2414 0 is_stmt 1
	add	x20, x21, 2192
.LVL1078:
	ldr	w0, [x21,2808]
	mov	x1, x20
	.loc 1 2413 0
	str	wzr, [x21,2816]
	.loc 1 2414 0
	bl	FSP_ClearNotInVoQueue
.LVL1079:
	.loc 1 2416 0
	ldr	x0, [x22,22088]
	ldr	w1, [x0,772]
	cbnz	w1, .L993
	.loc 1 2416 0 is_stmt 0 discriminator 1
	ldr	w0, [x0,28]
	cmp	w0, 25
	beq	.L1104
.L993:
	.loc 1 2425 0 is_stmt 1
	mov	x0, x20
	bl	ResetVoQueue
.LVL1080:
.L994:
	.loc 1 2428 0
	ldr	w1, [x21,2124]
	mov	x0, x22
	ldr	w2, [x21,2128]
	bl	Frame_Init
.LVL1081:
	cbz	w0, .L991
	.loc 1 2430 0
	adrp	x1, .LC69
	mov	w0, 0
	add	x1, x1, :lo12:.LC69
	bl	dprint_linux_kernel
.LVL1082:
	b	.L991
.LVL1083:
.L967:
	.loc 1 2294 0
	mov	x0, x22
	mov	w1, 438
	bl	MP4_Record_HeadPacketInfo
.LVL1084:
	b	.L966
.LVL1085:
.L982:
	.loc 1 2383 0
	ldr	w2, [x21,1516]
	ldr	w1, [x21,1528]
	ldr	w4, [x26,3704]
	ldr	w0, [x21,1520]
	add	w1, w2, w1
	ldr	w3, [x21,1536]
	ldr	w2, [x21,1540]
	madd	w0, w1, w4, w0
	sub	w1, w2, w3
	str	w0, [x21,1532]
	.loc 1 2384 0
	add	w0, w1, w0
	str	w0, [x21,1544]
	b	.L983
.LVL1086:
.L1102:
	.loc 1 2283 0
	mov	w1, w20
	.loc 1 2170 0
	mov	w28, 0
.LVL1087:
	.loc 1 2283 0
	bl	MP4_Record_HeadPacketInfo
.LVL1088:
	b	.L966
.LVL1089:
.L1104:
	.loc 1 2418 0
	ldr	w0, [x21,2812]
	cbnz	w0, .L994
	b	.L993
.LVL1090:
.L1095:
	.loc 1 2494 0
	adrp	x1, .LC71
	mov	w0, 0
	add	x1, x1, :lo12:.LC71
	bl	dprint_linux_kernel
.LVL1091:
	b	.L1001
.L1094:
	.loc 1 2482 0
	ldr	w0, [x21,2812]
	cbnz	w0, .L1004
	b	.L1003
.LVL1092:
.L1096:
	.loc 1 2526 0
	bl	__stack_chk_fail
.LVL1093:
	.cfi_endproc
.LFE2332:
	.size	Mp4_Syntax_Parse, .-Mp4_Syntax_Parse
	.align	2
	.global	MP4_Combine_HdPacket
	.type	MP4_Combine_HdPacket, %function
MP4_Combine_HdPacket:
.LFB2365:
	.loc 1 4687 0
	.cfi_startproc
.LVL1094:
	.loc 1 4690 0
	add	x2, x0, 20480
	add	x3, x2, 1656
	.loc 1 4687 0
	stp	x29, x30, [sp, -16]!
	.cfi_def_cfa_offset 16
	.cfi_offset 29, -16
	.cfi_offset 30, -8
	add	x29, sp, 0
	.cfi_def_cfa_register 29
	.loc 1 4690 0
	ldr	x1, [x3,64]
	cbz	x1, .L1117
	.loc 1 4698 0
	add	x1, x0, 12288
	ldrb	w4, [x1,3433]
	cmp	w4, 1
	beq	.L1118
	.loc 1 4726 0
	cbnz	w4, .L1113
	.loc 1 4726 0 is_stmt 0 discriminator 1
	ldrb	w4, [x1,3513]
	cmp	w4, 1
	bne	.L1113
	.loc 1 4729 0 is_stmt 1
	ldr	w5, [x3,8]
	.loc 1 4730 0
	add	x1, x1, 3512
	.loc 1 4729 0
	ldr	w0, [x0,15728]
.LVL1095:
	.loc 1 4730 0
	add	x2, x2, 1736
	.loc 1 4738 0
	mov	w4, 0
	.loc 1 4729 0
	add	w0, w5, w0
	str	w0, [x3,8]
	.loc 1 4730 0
	ldp	x6, x7, [x1]
	stp	x6, x7, [x2]
	ldp	x6, x7, [x1,16]
	stp	x6, x7, [x2,16]
	ldp	x6, x7, [x1,32]
	stp	x6, x7, [x2,32]
	ldp	x6, x7, [x1,48]
	stp	x6, x7, [x2,48]
	ldp	x0, x1, [x1,64]
	stp	x0, x1, [x2,64]
.L1108:
	.loc 1 4739 0
	mov	w0, w4
	ldp	x29, x30, [sp], 16
	.cfi_remember_state
	.cfi_restore 30
	.cfi_restore 29
	.cfi_def_cfa 31, 0
	ret
.LVL1096:
.L1118:
	.cfi_restore_state
	.loc 1 4701 0
	ldrb	w5, [x3,1]
	cmp	w5, 1
	beq	.L1119
	.loc 1 4715 0
	cbnz	w5, .L1112
	.loc 1 4715 0 is_stmt 0 discriminator 1
	ldrb	w1, [x3,81]
	cmp	w1, 1
	bne	.L1112
	.loc 1 4718 0 is_stmt 1
	ldr	w1, [x3,88]
	.loc 1 4738 0
	mov	w4, 0
	.loc 1 4718 0
	ldr	w0, [x0,15728]
.LVL1097:
	add	w0, w1, w0
	str	w0, [x3,88]
	.loc 1 4739 0
	mov	w0, w4
	ldp	x29, x30, [sp], 16
	.cfi_remember_state
	.cfi_restore 29
	.cfi_restore 30
	.cfi_def_cfa 31, 0
	ret
.LVL1098:
.L1113:
	.cfi_restore_state
	.loc 1 4734 0
	adrp	x1, .LC35
	mov	w2, 4734
	add	x1, x1, :lo12:.LC35
	mov	w0, 1
.LVL1099:
	bl	dprint_linux_kernel
.LVL1100:
	.loc 1 4735 0
	mov	w4, -1
	.loc 1 4739 0
	mov	w0, w4
	ldp	x29, x30, [sp], 16
	.cfi_remember_state
	.cfi_restore 29
	.cfi_restore 30
	.cfi_def_cfa 31, 0
	ret
.LVL1101:
.L1119:
	.cfi_restore_state
	.loc 1 4703 0
	ldr	w6, [x0,15724]
	ldr	w4, [x3,4]
	cmp	w6, w4
	bcc	.L1120
	.loc 1 4712 0
	ldr	w1, [x3,8]
	.loc 1 4738 0
	mov	w4, 0
	.loc 1 4712 0
	ldr	w0, [x0,15728]
.LVL1102:
	add	w0, w1, w0
	str	w0, [x3,8]
	b	.L1108
.LVL1103:
.L1112:
	.loc 1 4722 0
	adrp	x1, .LC35
	mov	w0, 1
.LVL1104:
	add	x1, x1, :lo12:.LC35
	mov	w2, 4722
	bl	dprint_linux_kernel
.LVL1105:
	.loc 1 4723 0
	mov	w4, -1
	b	.L1108
.LVL1106:
.L1120:
	.loc 1 4706 0
	add	x1, x1, 3432
	add	x2, x2, 1736
	.loc 1 4738 0
	mov	w4, 0
	.loc 1 4706 0
	ldp	x6, x7, [x1]
	stp	x6, x7, [x2]
	ldp	x6, x7, [x1,16]
	stp	x6, x7, [x2,16]
	ldp	x6, x7, [x1,32]
	stp	x6, x7, [x2,32]
	ldp	x6, x7, [x1,48]
	stp	x6, x7, [x2,48]
	ldp	x0, x1, [x1,64]
.LVL1107:
	stp	x0, x1, [x2,64]
	.loc 1 4707 0
	strb	wzr, [x3,1]
	.loc 1 4708 0
	strb	w5, [x3,81]
	b	.L1108
.LVL1108:
.L1117:
	.loc 1 4692 0
	adrp	x0, g_event_report
.LVL1109:
	ldr	x4, [x0,#:lo12:g_event_report]
	cbz	x4, .L1107
	.loc 1 4692 0 is_stmt 0 discriminator 1
	ldr	w0, [x2,2808]
	mov	w1, 103
	mov	x2, 0
	mov	w3, 0
	blr	x4
.LVL1110:
.L1107:
	.loc 1 4693 0 is_stmt 1
	adrp	x1, .LC73
	mov	w0, 1
	add	x1, x1, :lo12:.LC73
	bl	dprint_linux_kernel
.LVL1111:
	.loc 1 4694 0
	mov	w4, -1
	b	.L1108
	.cfi_endproc
.LFE2365:
	.size	MP4_Combine_HdPacket, .-MP4_Combine_HdPacket
	.align	2
	.global	MP4_Renew_CurPacket
	.type	MP4_Renew_CurPacket, %function
MP4_Renew_CurPacket:
.LFB2366:
	.loc 1 4742 0
	.cfi_startproc
.LVL1112:
	stp	x29, x30, [sp, -48]!
	.cfi_def_cfa_offset 48
	.cfi_offset 29, -48
	.cfi_offset 30, -40
	add	x29, sp, 0
	.cfi_def_cfa_register 29
	stp	x19, x20, [sp,16]
	str	x21, [sp,32]
	.cfi_offset 19, -32
	.cfi_offset 20, -24
	.cfi_offset 21, -16
	.loc 1 4742 0
	mov	x19, x0
	.loc 1 4745 0
	bl	MP4_Combine_HdPacket
.LVL1113:
	.loc 1 4746 0
	cmn	w0, #1
	beq	.L1129
.LBB107:
.LBB108:
	.loc 1 4658 0
	add	x21, x19, 20480
	ldr	w1, [x21,2076]
	.loc 1 4661 0
	cmp	w1, 62
	bgt	.L1130
	add	x2, x19, x1, sxtw 2
	.loc 1 4670 0
	add	x2, x2, 20480
	ldr	w4, [x19,15732]
	.loc 1 4674 0
	add	x0, x19, 12288
	.loc 1 4671 0
	add	w3, w1, 1
	.loc 1 4670 0
	str	w4, [x2,1820]
	.loc 1 4671 0
	str	w3, [x21,2076]
	.loc 1 4674 0
	ldrb	w3, [x0,3433]
	cbnz	w3, .L1128
	.loc 1 4674 0 is_stmt 0 discriminator 1
	ldrb	w3, [x0,3513]
	cmp	w3, 1
	beq	.L1131
.L1128:
	add	x20, x0, 3432
.L1126:
.LBE108:
.LBE107:
	.loc 1 4757 0 is_stmt 1
	mov	x0, x20
	add	x1, x21, 1656
	mov	x2, 160
	bl	memcpy
.LVL1114:
	.loc 1 4760 0
	ldr	w0, [x21,1816]
	str	w0, [x19,15792]
	.loc 1 4762 0
	mov	w0, 0
.L1124:
	.loc 1 4763 0
	ldp	x19, x20, [sp,16]
	.cfi_remember_state
	.cfi_restore 20
	.cfi_restore 19
.LVL1115:
	ldr	x21, [sp,32]
	.cfi_restore 21
	ldp	x29, x30, [sp], 48
	.cfi_restore 30
	.cfi_restore 29
	.cfi_def_cfa 31, 0
	ret
.LVL1116:
.L1130:
	.cfi_restore_state
.LBB112:
.LBB111:
.LBB109:
.LBB110:
	.loc 1 4663 0
	mov	x0, x19
	.loc 1 4664 0
	add	x20, x19, 12288
	add	x20, x20, 3432
	.loc 1 4663 0
	bl	MP4_Clean_HeadPacket
.LVL1117:
	.loc 1 4664 0
	ldr	w0, [x21,2808]
	mov	x1, x20
	bl	MP4_ClearCurPacket
.LVL1118:
	.loc 1 4665 0
	ldr	w2, [x21,2076]
	adrp	x1, .LC42
	add	x1, x1, :lo12:.LC42
	mov	w3, 62
	mov	w0, 0
	bl	dprint_linux_kernel
.LVL1119:
	b	.L1126
.L1131:
.LBE110:
.LBE109:
	.loc 1 4678 0
	ldr	w3, [x19,15812]
	.loc 1 4679 0
	add	w1, w1, 2
	.loc 1 4678 0
	str	w3, [x2,1824]
	add	x20, x0, 3432
	.loc 1 4679 0
	str	w1, [x21,2076]
	b	.L1126
.L1129:
.LBE111:
.LBE112:
.LBB113:
.LBB114:
	.loc 1 4748 0
	add	x20, x19, 12288
	add	x19, x19, 20480
.LVL1120:
	add	x20, x20, 3432
	ldr	w19, [x19,2808]
.LBB115:
.LBB116:
	.loc 1 4046 0
	ldr	w1, [x20,12]
	mov	w0, w19
	bl	SM_ReleaseStreamSeg
.LVL1121:
	.loc 1 4047 0
	ldrb	w0, [x20,1]
	cbnz	w0, .L1123
	.loc 1 4047 0 is_stmt 0 discriminator 1
	ldrb	w0, [x20,81]
	cmp	w0, 1
	beq	.L1132
.L1123:
.LBE116:
.LBE115:
	.loc 1 4749 0 is_stmt 1
	adrp	x1, .LC74
	mov	w0, 1
.LBB119:
.LBB117:
	.loc 1 4052 0
	stp	xzr, xzr, [x20]
	stp	xzr, xzr, [x20,16]
	stp	xzr, xzr, [x20,32]
	stp	xzr, xzr, [x20,48]
	stp	xzr, xzr, [x20,64]
	stp	xzr, xzr, [x20,80]
	stp	xzr, xzr, [x20,96]
	stp	xzr, xzr, [x20,112]
	stp	xzr, xzr, [x20,128]
	stp	xzr, xzr, [x20,144]
.LBE117:
.LBE119:
	.loc 1 4749 0
	add	x1, x1, :lo12:.LC74
	mov	w2, 4749
	bl	dprint_linux_kernel
.LVL1122:
	mov	w0, -1
	b	.L1124
.L1132:
.LBB120:
.LBB118:
	.loc 1 4049 0
	ldr	w1, [x20,92]
	mov	w0, w19
	bl	SM_ReleaseStreamSeg
.LVL1123:
	b	.L1123
.LBE118:
.LBE120:
.LBE114:
.LBE113:
	.cfi_endproc
.LFE2366:
	.size	MP4_Renew_CurPacket, .-MP4_Renew_CurPacket
	.align	2
	.global	MP4_Check_CurPacket
	.type	MP4_Check_CurPacket, %function
MP4_Check_CurPacket:
.LFB2363:
	.loc 1 4588 0
	.cfi_startproc
.LVL1124:
	stp	x29, x30, [sp, -96]!
	.cfi_def_cfa_offset 96
	.cfi_offset 29, -96
	.cfi_offset 30, -88
	add	x29, sp, 0
	.cfi_def_cfa_register 29
	stp	x19, x20, [sp,16]
	.cfi_offset 19, -80
	.cfi_offset 20, -72
.LBB127:
.LBB128:
	.loc 1 2683 0
	add	x20, x0, 12288
.LBE128:
.LBE127:
	.loc 1 4588 0
	mov	x19, x0
	stp	x21, x22, [sp,32]
	.cfi_offset 21, -64
	.cfi_offset 22, -56
.LBB133:
.LBB129:
	.loc 1 2683 0
	add	x21, x0, 20480
.LBE129:
.LBE133:
	.loc 1 4588 0
	adrp	x22, __stack_chk_guard
.LBB134:
.LBB130:
	.loc 1 2683 0
	ldr	w4, [x20,3436]
.LBE130:
.LBE134:
	.loc 1 4594 0
	add	x0, x29, 48
.LVL1125:
.LBB135:
.LBB131:
	.loc 1 2683 0
	str	w4, [x21,1592]
.LBE131:
.LBE135:
	.loc 1 4588 0
	ldr	x1, [x22,#:lo12:__stack_chk_guard]
	str	x1, [x29,88]
.LBB136:
.LBB132:
	.loc 1 2684 0
	ldr	x1, [x20,3496]
	str	x1, [x19,22064]
	.loc 1 2685 0
	ldr	w2, [x20,3440]
	str	w2, [x21,1596]
	.loc 1 2686 0
	str	wzr, [x21,1600]
.LBE132:
.LBE136:
	.loc 1 4594 0
	bl	BsInit
.LVL1126:
	.loc 1 4595 0
	mov	w1, 32
	add	x0, x29, 48
	bl	BsShow
.LVL1127:
.LBB137:
.LBB138:
	.loc 1 4429 0
	ldrb	w1, [x20,3592]
	tbz	x1, 0, .L1166
	.loc 1 4443 0
	mov	w0, 1
	strb	w0, [x21,813]
.LBE138:
.LBE137:
	.loc 1 4601 0
	ldrb	w0, [x20,3592]
	tbz	x0, 1, .L1167
.L1136:
	.loc 1 4613 0
	mov	x0, 438
	ldr	x1, [x19,22560]
	movk	x0, 0x1, lsl 32
	cmp	x1, x0
	bne	.L1163
	.loc 1 4614 0
	ldr	w0, [x21,1664]
	cmp	w0, 4
	beq	.L1139
.L1163:
	.loc 1 4591 0
	mov	w0, 0
.LVL1128:
.L1144:
	.loc 1 4645 0
	ldr	x1, [x19,15784]
	cbz	x1, .L1152
	.loc 1 4646 0
	ldr	w1, [x19,15724]
	.loc 1 4648 0
	cmp	w1, wzr
	csinv	w0, w0, wzr, ne
.LVL1129:
.L1150:
	.loc 1 4654 0
	ldr	x2, [x29,88]
	ldr	x1, [x22,#:lo12:__stack_chk_guard]
	cmp	x2, x1
	bne	.L1168
	ldp	x19, x20, [sp,16]
	.cfi_remember_state
	.cfi_restore 20
	.cfi_restore 19
.LVL1130:
	ldp	x21, x22, [sp,32]
	.cfi_restore 22
	.cfi_restore 21
	ldp	x29, x30, [sp], 96
	.cfi_restore 30
	.cfi_restore 29
	.cfi_def_cfa 31, 0
	ret
.LVL1131:
.L1167:
	.cfi_restore_state
	.loc 1 4637 0
	ldr	w1, [x21,2080]
	cmp	w1, 438
	beq	.L1163
.L1148:
	.loc 1 4639 0 discriminator 1
	cmp	w1, 196
	bne	.L1163
.L1149:
	.loc 1 4638 0 discriminator 2
	ldr	w0, [x21,2088]
	cmp	w0, 1
	bgt	.L1147
	b	.L1163
.L1166:
.LBB145:
.LBB143:
.LBB139:
.LBB140:
	.loc 1 4435 0
	lsr	w1, w0, 8
	.loc 1 4431 0
	mov	w2, 2
	.loc 1 4435 0
	sub	w1, w1, #128
	.loc 1 4431 0
	strb	w2, [x21,813]
	.loc 1 4435 0
	cmp	w1, 3
	bls	.L1169
.L1135:
.LBE140:
.LBE139:
.LBE143:
.LBE145:
	.loc 1 4601 0
	ldrb	w1, [x20,3592]
	tbz	x1, 1, .L1138
	.loc 1 4604 0 discriminator 1
	cmp	w0, 196
	beq	.L1136
	.loc 1 4604 0 is_stmt 0
	ldr	w0, [x21,2080]
	.loc 1 4604 0 discriminator 1
	cmp	w0, 438
	beq	.L1170
.L1139:
	.loc 1 4630 0 is_stmt 1
	mov	x0, x19
	bl	MP4_Renew_CurPacket
.LVL1132:
	b	.L1144
.L1138:
	.loc 1 4637 0
	ldr	w1, [x21,2080]
	cmp	w1, 438
	beq	.L1146
	.loc 1 4637 0 is_stmt 0 discriminator 1
	cmp	w0, 196
	beq	.L1148
.L1147:
	.loc 1 4641 0 is_stmt 1
	mov	x0, x19
	bl	MP4_Clean_HeadPacket
.LVL1133:
	b	.L1163
.L1169:
.LBB146:
.LBB144:
.LBB142:
.LBB141:
	.loc 1 4437 0
	ldrb	w1, [x20,3592]
	orr	w1, w1, 2
	strb	w1, [x20,3592]
	b	.L1135
.LVL1134:
.L1152:
.LBE141:
.LBE142:
.LBE144:
.LBE146:
	.loc 1 4652 0
	mov	w0, -1
.LVL1135:
	b	.L1150
.L1168:
	.loc 1 4654 0
	bl	__stack_chk_fail
.LVL1136:
.L1146:
	.loc 1 4638 0 discriminator 1
	cmp	w0, 438
	beq	.L1149
	b	.L1163
.L1170:
	.loc 1 4607 0
	ldrb	w0, [x21,1577]
	.loc 1 4607 0 is_stmt 0 discriminator 1
	cmp	w0, 1
	bne	.L1139
	b	.L1136
	.cfi_endproc
.LFE2363:
	.size	MP4_Check_CurPacket, .-MP4_Check_CurPacket
	.align	2
	.global	MPEG4DEC_Decode
	.type	MPEG4DEC_Decode, %function
MPEG4DEC_Decode:
.LFB2344:
	.loc 1 3343 0 is_stmt 1
	.cfi_startproc
.LVL1137:
	stp	x29, x30, [sp, -128]!
	.cfi_def_cfa_offset 128
	.cfi_offset 29, -128
	.cfi_offset 30, -120
	add	x29, sp, 0
	.cfi_def_cfa_register 29
	stp	x21, x22, [sp,32]
	stp	x23, x24, [sp,48]
	.cfi_offset 21, -96
	.cfi_offset 22, -88
	.cfi_offset 23, -80
	.cfi_offset 24, -72
	.loc 1 3351 0
	add	x21, x0, 20480
	.loc 1 3343 0
	adrp	x24, __stack_chk_guard
	stp	x19, x20, [sp,16]
	stp	x25, x26, [sp,64]
	str	x27, [sp,80]
	.cfi_offset 19, -112
	.cfi_offset 20, -104
	.cfi_offset 25, -64
	.cfi_offset 26, -56
	.cfi_offset 27, -48
	.loc 1 3343 0
	mov	x19, x0
	mov	x20, x1
	ldr	x1, [x24,#:lo12:__stack_chk_guard]
.LVL1138:
	.loc 1 3351 0
	ldr	w0, [x21,2108]
.LVL1139:
	.loc 1 3343 0
	str	x1, [x29,120]
	.loc 1 3351 0
	cbz	w0, .L1172
	.loc 1 3351 0 is_stmt 0 discriminator 1
	ldr	w0, [x20,8]
	cmp	w0, wzr
	ble	.L1172
	.loc 1 3351 0 discriminator 2
	ldr	w0, [x20,4]
	cbz	w0, .L1172
	.loc 1 3352 0 is_stmt 1
	ldr	x0, [x20,64]
	cbz	x0, .L1172
	.loc 1 3359 0
	adrp	x1, .LC76
	mov	w0, 2
	add	x1, x1, :lo12:.LC76
	.loc 1 3374 0
	add	x22, x19, 12288
	add	x22, x22, 3432
	.loc 1 3359 0
	bl	dprint_linux_kernel
.LVL1140:
	.loc 1 3360 0
	ldr	w2, [x20,4]
	adrp	x1, .LC77
	add	x1, x1, :lo12:.LC77
	mov	w0, 7
	bl	dprint_linux_kernel
.LVL1141:
	.loc 1 3361 0
	ldr	w2, [x20,8]
	adrp	x1, .LC78
	add	x1, x1, :lo12:.LC78
	mov	w0, 7
	bl	dprint_linux_kernel
.LVL1142:
	.loc 1 3362 0
	ldrb	w2, [x20,1]
	adrp	x1, .LC79
	add	x1, x1, :lo12:.LC79
	mov	w0, 7
	bl	dprint_linux_kernel
.LVL1143:
	.loc 1 3363 0
	ldr	w2, [x20,84]
	adrp	x1, .LC80
	add	x1, x1, :lo12:.LC80
	mov	w0, 7
	bl	dprint_linux_kernel
.LVL1144:
	.loc 1 3364 0
	ldr	w2, [x20,88]
	adrp	x1, .LC81
	add	x1, x1, :lo12:.LC81
	mov	w0, 7
	bl	dprint_linux_kernel
.LVL1145:
	.loc 1 3365 0
	ldrb	w2, [x20,81]
	adrp	x1, .LC82
	add	x1, x1, :lo12:.LC82
	mov	w0, 7
	bl	dprint_linux_kernel
.LVL1146:
	.loc 1 3367 0
	ldr	w2, [x20,8]
	adrp	x1, .LC83
	add	x1, x1, :lo12:.LC83
	mov	w0, 7
	bl	dprint_linux_kernel
.LVL1147:
	.loc 1 3368 0
	ldr	x2, [x20,64]
	adrp	x1, .LC84
	add	x1, x1, :lo12:.LC84
	mov	w0, 7
	ldrb	w2, [x2]
	bl	dprint_linux_kernel
.LVL1148:
	.loc 1 3369 0
	ldr	x2, [x20,64]
	adrp	x1, .LC85
	add	x1, x1, :lo12:.LC85
	mov	w0, 7
	ldrb	w2, [x2,1]
	bl	dprint_linux_kernel
.LVL1149:
	.loc 1 3370 0
	ldr	x2, [x20,64]
	adrp	x1, .LC86
	add	x1, x1, :lo12:.LC86
	mov	w0, 7
	ldrb	w2, [x2,2]
	bl	dprint_linux_kernel
.LVL1150:
	.loc 1 3371 0
	ldr	x2, [x20,64]
	adrp	x1, .LC87
	add	x1, x1, :lo12:.LC87
	mov	w0, 7
	ldrb	w2, [x2,3]
	bl	dprint_linux_kernel
.LVL1151:
	.loc 1 3374 0
	mov	x2, 160
	mov	x1, x20
	mov	x0, x22
	bl	memcpy
.LVL1152:
	.loc 1 3375 0
	mov	x0, x19
	mov	x1, x22
	bl	MP4_GetScdUpMsg
.LVL1153:
	.loc 1 3377 0
	mov	x0, x19
	bl	MP4_Check_CurPacket
.LVL1154:
	cmn	w0, #1
	mov	w23, w0
	beq	.L1252
	.loc 1 3383 0
	mov	x1, x22
	mov	x0, x19
	bl	MP4_GetScdUpMsg
.LVL1155:
.LBB147:
.LBB148:
	.loc 1 2683 0
	ldr	w2, [x22,4]
.LBE148:
.LBE147:
	.loc 1 3391 0
	mov	x0, x19
.LBB150:
.LBB149:
	.loc 1 2683 0
	str	w2, [x21,1592]
	.loc 1 2684 0
	ldr	x2, [x22,64]
	str	x2, [x19,22064]
	.loc 1 2685 0
	ldr	w2, [x22,8]
	str	w2, [x21,1596]
	.loc 1 2686 0
	str	wzr, [x21,1600]
.LBE149:
.LBE150:
	.loc 1 3391 0
	bl	Mp4_Get_DecMode
.LVL1156:
	.loc 1 3393 0
	ldr	x0, [x19,22088]
	ldr	w1, [x0,792]
	cmp	w1, 1
	beq	.L1253
.L1176:
	.loc 1 3400 0
	add	x23, x19, 16384
	add	x22, x19, 40960
	ldr	w0, [x23,3600]
	str	w0, [x22,2356]
.L1177:
	.loc 1 3403 0
	ldr	x1, [x19,22064]
	mov	x0, x19
	ldr	w2, [x21,1596]
	bl	Mp4_Syntax_Parse
.LVL1157:
.LBB151:
.LBB152:
	.loc 1 2712 0
	lsr	w3, w0, 3
	.loc 1 2714 0
	ldr	x4, [x19,22064]
	.loc 1 2712 0
	mov	x2, x3
	.loc 1 2717 0
	and	w0, w0, 7
.LVL1158:
	.loc 1 2714 0
	add	x3, x4, x3
	str	x3, [x19,22064]
	.loc 1 2717 0
	str	w0, [x21,1600]
	.loc 1 2715 0
	ldr	w3, [x21,1592]
	.loc 1 2716 0
	ldr	w0, [x21,1596]
.LVL1159:
	.loc 1 2715 0
	add	w3, w2, w3
	str	w3, [x21,1592]
	.loc 1 2716 0
	sub	w0, w0, w2
	str	w0, [x21,1596]
.LBE152:
.LBE151:
	.loc 1 3407 0
	ldr	x0, [x19,22088]
	ldr	w1, [x0,792]
	cmp	w1, 1
	beq	.L1254
.L1178:
	.loc 1 3411 0
	ldr	w1, [x23,3600]
	mov	w0, 288
	tst	w1, w0
	beq	.L1179
	.loc 1 3415 0
	mov	w0, -435
	and	w0, w1, w0
	str	w0, [x23,3600]
	.loc 1 3418 0
	ldr	w0, [x21,1652]
	cmp	w0, 2
	beq	.L1255
	.loc 1 3418 0 is_stmt 0 discriminator 3
	cmp	w0, 1
	beq	.L1256
	.loc 1 3428 0 is_stmt 1
	cmp	w0, 4
	bne	.L1182
	.loc 1 3430 0
	ldrb	w1, [x21,1448]
	cbnz	w1, .L1184
	.loc 1 3432 0
	ldr	w0, [x21,2136]
	cbnz	w0, .L1185
	.loc 1 3434 0
	mov	w0, 2
	str	w0, [x21,2136]
	b	.L1182
.L1256:
	.loc 1 3418 0 discriminator 4
	ldrb	w0, [x21,1448]
	cmp	w0, 2
	beq	.L1181
.L1182:
	.loc 1 3456 0
	mov	x0, x19
	bl	Mp4_Frame_Atr
.LVL1160:
	.loc 1 3458 0
	cmn	w0, #1
	.loc 1 3456 0
	mov	w23, w0
.LVL1161:
	.loc 1 3458 0
	beq	.L1257
	.loc 1 3481 0
	ldr	w1, [x22,2328]
	ldr	w0, [x21,2808]
	bl	FSP_GetFsImagePtr
.LVL1162:
	mov	x26, x0
.LVL1163:
	.loc 1 3482 0
	ldr	w1, [x22,2336]
	ldr	w0, [x21,2808]
	bl	FSP_GetFsImagePtr
.LVL1164:
	mov	x27, x0
.LVL1165:
	.loc 1 3484 0
	cbz	x0, .L1219
	cbz	x26, .L1219
	.loc 1 3490 0
	ldrb	w0, [x21,811]
	and	w25, w0, -3
	uxtb	w25, w25
	cmp	w25, 1
	bne	.L1191
	.loc 1 3492 0 discriminator 1
	ldr	x0, [x19,22088]
	ldr	w1, [x26,84]
	ldr	w0, [x0,4]
	cmp	w1, w0
	bhi	.L1258
.L1192:
	.loc 1 3547 0
	ldrb	w0, [x21,1448]
	cmp	w0, 2
	beq	.L1200
	.loc 1 3549 0
	ldr	w0, [x21,2816]
	.loc 1 3549 0 is_stmt 0 discriminator 2
	cmp	w0, wzr
	mov	w0, 2
	csinc	w0, w0, wzr, gt
	.loc 1 3549 0 discriminator 4
	str	w0, [x21,2816]
	.loc 1 3552 0 is_stmt 1
	ldr	w1, [x22,2328]
	ldr	w0, [x22,2336]
	cmp	w1, w0
	beq	.L1198
	.loc 1 3555 0
	ldr	w0, [x21,2808]
	mov	w2, 0
	bl	FSP_SetRef
.LVL1166:
	.loc 1 3556 0
	ldr	w0, [x21,2808]
	ldr	w1, [x22,2328]
	bl	FSP_GetDisplay
.LVL1167:
	cmp	w0, 3
	beq	.L1250
	.loc 1 3558 0
	ldr	w0, [x21,2808]
	mov	w2, 0
	ldr	w1, [x22,2328]
	bl	FSP_SetDisplay
.LVL1168:
.L1250:
	ldr	w0, [x22,2336]
.L1198:
	.loc 1 3562 0
	str	w0, [x22,2328]
	.loc 1 3570 0
	mov	w2, 1
	.loc 1 3563 0
	ldrb	w0, [x19,1]
	strb	w0, [x19]
	.loc 1 3564 0
	ldr	w0, [x22,2340]
	.loc 1 3566 0
	ldr	w1, [x22,2344]
	str	w1, [x22,2336]
	.loc 1 3564 0
	str	w0, [x22,2332]
	.loc 1 3567 0
	ldrb	w0, [x19,2]
	strb	w0, [x19,1]
	.loc 1 3568 0
	ldr	w0, [x21,1540]
	str	w0, [x22,2340]
	.loc 1 3570 0
	ldr	w0, [x21,2808]
	bl	FSP_SetRef
.LVL1169:
	.loc 1 3571 0
	ldr	w0, [x21,2808]
	ldr	w1, [x22,2328]
	bl	FSP_RemovePmv
.LVL1170:
	.loc 1 3575 0
	ldrb	w0, [x21,1448]
	cmp	w0, 4
	bne	.L1200
.LBB153:
	.loc 1 3658 0
	ldrb	w0, [x21,808]
	cbz	w0, .L1259
.LVL1171:
.L1209:
.LBE153:
	.loc 1 3706 0
	mov	w23, 0
.LVL1172:
.L1174:
	.loc 1 3707 0
	ldr	x2, [x29,120]
.LVL1173:
	mov	w0, w23
.LVL1174:
	ldr	x1, [x24,#:lo12:__stack_chk_guard]
	cmp	x2, x1
	bne	.L1260
	ldp	x19, x20, [sp,16]
	.cfi_remember_state
	.cfi_restore 20
	.cfi_restore 19
.LVL1175:
	ldp	x21, x22, [sp,32]
	.cfi_restore 22
	.cfi_restore 21
	ldp	x23, x24, [sp,48]
	.cfi_restore 24
	.cfi_restore 23
	ldp	x25, x26, [sp,64]
	.cfi_restore 26
	.cfi_restore 25
.LVL1176:
	ldr	x27, [sp,80]
	.cfi_restore 27
.LVL1177:
	ldp	x29, x30, [sp], 128
	.cfi_restore 30
	.cfi_restore 29
	.cfi_def_cfa 31, 0
	ret
.LVL1178:
.L1184:
	.cfi_restore_state
	.loc 1 3443 0
	sub	w0, w1, #2
	and	w0, w0, -3
	uxtb	w0, w0
	cbnz	w0, .L1187
	.loc 1 3443 0 is_stmt 0 discriminator 1
	ldr	w0, [x21,2136]
	cmp	w0, 2
	beq	.L1216
.L1187:
	.loc 1 3449 0 is_stmt 1
	cmp	w1, 1
	bne	.L1182
	.loc 1 3451 0
	str	w1, [x21,2136]
	b	.L1182
.LVL1179:
.L1191:
	.loc 1 3509 0
	cmp	w0, 2
	bne	.L1192
	.loc 1 3511 0 discriminator 1
	ldr	x0, [x19,22088]
	ldr	w1, [x26,84]
	ldr	w0, [x0,4]
	cmp	w1, w0
	bhi	.L1261
	.loc 1 3528 0 discriminator 1
	ldr	w1, [x27,84]
	cmp	w0, w1
	bcs	.L1192
	.loc 1 3530 0
	ldr	w1, [x22,2344]
	mov	w2, 1
	ldr	w0, [x21,2808]
	.loc 1 3541 0
	mov	w23, -1
.LVL1180:
	.loc 1 3530 0
	bl	FSP_ClearLogicFs
.LVL1181:
	.loc 1 3531 0
	mov	x0, x19
	bl	MP4_ClearCurPic
.LVL1182:
	.loc 1 3532 0
	mov	x0, x19
	bl	MP4_Clean_HeadPacket
.LVL1183:
	.loc 1 3540 0
	ldr	x3, [x19,22088]
	adrp	x1, .LC93
	ldr	w2, [x27,84]
	add	x1, x1, :lo12:.LC93
	mov	w0, 1
	ldr	w3, [x3,4]
	bl	dprint_linux_kernel
.LVL1184:
	.loc 1 3541 0
	b	.L1174
.LVL1185:
.L1254:
	.loc 1 3407 0 discriminator 1
	ldr	w0, [x0,888]
	cbz	w0, .L1178
	b	.L1209
.LVL1186:
.L1253:
	.loc 1 3393 0 discriminator 1
	ldr	w0, [x0,888]
	cmp	w0, 1
	bne	.L1176
	.loc 1 3396 0
	add	x22, x19, 40960
	add	x23, x19, 16384
	ldr	w0, [x22,2356]
	str	w0, [x23,3600]
	b	.L1177
.LVL1187:
.L1200:
	.loc 1 3579 0
	mov	x0, x19
	mov	w1, 0
	mov	x2, x20
	bl	Mp4_Set_DecPar
.LVL1188:
	.loc 1 3581 0
	ldr	x3, [x19,22088]
	ldrsb	w0, [x3]
	cmp	w0, 1
	beq	.L1262
	.loc 1 3588 0
	ldrb	w0, [x21,1448]
	cbnz	w0, .L1203
	.loc 1 3590 0
	ldr	w1, [x21,2136]
	cbnz	w1, .L1204
	.loc 1 3592 0
	mov	w1, 2
	str	w1, [x21,2136]
	b	.L1202
.LVL1189:
.L1255:
	.loc 1 3418 0 discriminator 1
	ldrb	w0, [x21,1448]
	cbz	w0, .L1182
.L1181:
	.loc 1 3423 0
	mov	x0, x19
	.loc 1 3426 0
	mov	w23, -1
	.loc 1 3423 0
	bl	MP4_ClearCurPic
.LVL1190:
	.loc 1 3424 0
	mov	x0, x19
	bl	MP4_Clean_HeadPacket
.LVL1191:
	.loc 1 3426 0
	b	.L1174
.LVL1192:
.L1258:
	.loc 1 3494 0
	ldr	w1, [x22,2344]
	mov	w2, w25
	ldr	w0, [x21,2808]
	.loc 1 3505 0
	mov	w23, -1
.LVL1193:
	.loc 1 3494 0
	bl	FSP_ClearLogicFs
.LVL1194:
	.loc 1 3495 0
	mov	x0, x19
	bl	MP4_ClearCurPic
.LVL1195:
	.loc 1 3496 0
	mov	x0, x19
	bl	MP4_Clean_HeadPacket
.LVL1196:
	.loc 1 3504 0
	ldr	x3, [x19,22088]
	adrp	x1, .LC91
	ldr	w2, [x26,84]
	mov	w0, w25
	add	x1, x1, :lo12:.LC91
	ldr	w3, [x3,4]
	bl	dprint_linux_kernel
.LVL1197:
	.loc 1 3505 0
	b	.L1174
.LVL1198:
.L1259:
.LBB154:
	.loc 1 3662 0
	adrp	x1, .LC94
	mov	w0, 11
	add	x1, x1, :lo12:.LC94
	bl	dprint_linux_kernel
.LVL1199:
	.loc 1 3663 0
	ldr	w1, [x22,2344]
	ldr	w0, [x21,2808]
	bl	FSP_GetLogicFs
.LVL1200:
	mov	x20, x0
.LVL1201:
	.loc 1 3664 0
	ldr	w1, [x22,2328]
	ldr	w0, [x21,2808]
	bl	FSP_GetLogicFs
.LVL1202:
	mov	x4, x0
.LVL1203:
	.loc 1 3666 0
	cbz	x0, .L1220
	cbz	x20, .L1220
	.loc 1 3675 0
	ldr	x0, [x20,296]
	cbz	x0, .L1212
	.loc 1 3675 0 is_stmt 0 discriminator 1
	ldr	x1, [x20,312]
	cbz	x1, .L1212
	.loc 1 3675 0 discriminator 2
	ldr	x1, [x20,304]
	cbz	x1, .L1212
	.loc 1 3689 0 is_stmt 1
	ldr	x4, [x4,296]
.LVL1204:
	.loc 1 3686 0
	ldr	w2, [x0,12]
	ldr	w3, [x1,12]
	cbz	x4, .L1218
	.loc 1 3686 0 is_stmt 0 discriminator 1
	ldr	w4, [x4,12]
.L1214:
	.loc 1 3686 0 discriminator 4
	ldr	w5, [x21,1512]
	mov	x0, x19
	ldr	w6, [x21,1508]
	mov	x1, x20
.LBE154:
	.loc 1 3706 0 is_stmt 1
	mov	w23, 0
.LVL1205:
.LBB155:
	.loc 1 3686 0 discriminator 4
	bl	Vdm_Mem_Move
.LVL1206:
	b	.L1174
.LVL1207:
.L1262:
	ldrb	w0, [x21,1448]
.L1202:
.LBE155:
	.loc 1 3617 0
	add	x1, x19, 1048
	str	x1, [x19,1040]
	.loc 1 3619 0
	ldr	w2, [x3,880]
	cmp	w2, 1
	beq	.L1263
	.loc 1 3633 0
	cmp	w2, 2
	beq	.L1264
.L1208:
	.loc 1 3648 0
	strb	wzr, [x19,1214]
	.loc 1 3650 0
	cbnz	w0, .L1209
	.loc 1 3652 0
	adrp	x0, g_event_report
	ldr	x4, [x0,#:lo12:g_event_report]
	cbz	x4, .L1209
.LBB156:
	.loc 1 3652 0 is_stmt 0 discriminator 1
	add	x2, x29, 128
	ldr	w0, [x21,2808]
	mov	w1, 20
	mov	w3, 4
.LBE156:
	.loc 1 3706 0 is_stmt 1
	mov	w23, 0
.LVL1208:
.LBB157:
	.loc 1 3652 0 discriminator 1
	str	wzr, [x2,-16]!
	blr	x4
.LVL1209:
	b	.L1174
.LVL1210:
.L1261:
.LBE157:
	.loc 1 3513 0
	ldr	w1, [x22,2344]
	mov	w2, 1
	ldr	w0, [x21,2808]
	.loc 1 3524 0
	mov	w23, -1
.LVL1211:
	.loc 1 3513 0
	bl	FSP_ClearLogicFs
.LVL1212:
	.loc 1 3514 0
	mov	x0, x19
	bl	MP4_ClearCurPic
.LVL1213:
	.loc 1 3515 0
	mov	x0, x19
	bl	MP4_Clean_HeadPacket
.LVL1214:
	.loc 1 3523 0
	ldr	x3, [x19,22088]
	adrp	x1, .LC92
	ldr	w2, [x26,84]
	add	x1, x1, :lo12:.LC92
	mov	w0, 1
	ldr	w3, [x3,4]
	bl	dprint_linux_kernel
.LVL1215:
	.loc 1 3524 0
	b	.L1174
.LVL1216:
.L1203:
	.loc 1 3600 0
	sub	w1, w0, #2
	and	w1, w1, -3
	uxtb	w1, w1
	cbnz	w1, .L1206
	.loc 1 3600 0 is_stmt 0 discriminator 1
	ldr	w1, [x21,2136]
	cmp	w1, 2
	beq	.L1265
.L1206:
	.loc 1 3606 0 is_stmt 1
	cmp	w0, 1
	bne	.L1202
	.loc 1 3608 0
	str	w0, [x21,2136]
	b	.L1202
.LVL1217:
.L1185:
	.loc 1 3438 0
	mov	w0, 1
	str	w0, [x21,2136]
	b	.L1182
.LVL1218:
.L1172:
	.loc 1 3355 0
	adrp	x1, .LC75
	mov	w0, 1
	add	x1, x1, :lo12:.LC75
	.loc 1 3356 0
	mov	w23, -1
	.loc 1 3355 0
	bl	dprint_linux_kernel
.LVL1219:
	.loc 1 3356 0
	b	.L1174
.LVL1220:
.L1263:
	.loc 1 3621 0
	cbz	x1, .L1208
	.loc 1 3621 0 is_stmt 0 discriminator 1
	cmp	w0, 2
	bne	.L1208
	.loc 1 3624 0 is_stmt 1
	str	xzr, [x19,1040]
	.loc 1 3630 0
	mov	w23, -1
.LVL1221:
	.loc 1 3626 0
	ldr	w1, [x22,2344]
	ldr	w0, [x21,2808]
	bl	FSP_ClearLogicFs
.LVL1222:
	.loc 1 3627 0
	mov	x0, x19
	bl	MP4_ClearCurPic
.LVL1223:
	.loc 1 3628 0
	mov	x0, x19
	bl	MP4_Clean_HeadPacket
.LVL1224:
	.loc 1 3630 0
	b	.L1174
.LVL1225:
.L1204:
	.loc 1 3596 0
	mov	w1, 1
	str	w1, [x21,2136]
	b	.L1202
.LVL1226:
.L1216:
	.loc 1 3447 0
	mov	w23, -1
	b	.L1174
.LVL1227:
.L1264:
	.loc 1 3635 0
	ldr	w2, [x3,884]
	.loc 1 3635 0 is_stmt 0 discriminator 1
	cmp	w2, wzr
	ble	.L1208
	cbz	x1, .L1208
	.loc 1 3636 0 is_stmt 1
	cmp	w0, 2
	bne	.L1208
	.loc 1 3638 0
	str	xzr, [x19,1040]
	.loc 1 3640 0
	mov	w2, 1
	.loc 1 3644 0
	mov	w23, -1
.LVL1228:
	.loc 1 3640 0
	ldr	w1, [x22,2344]
	ldr	w0, [x21,2808]
	bl	FSP_ClearLogicFs
.LVL1229:
	.loc 1 3641 0
	ldr	x2, [x19,22088]
	.loc 1 3642 0
	mov	x0, x19
	.loc 1 3641 0
	ldr	w1, [x2,884]
	add	w1, w1, w23
	str	w1, [x2,884]
	.loc 1 3642 0
	bl	MP4_ClearCurPic
.LVL1230:
	.loc 1 3643 0
	mov	x0, x19
	bl	MP4_Clean_HeadPacket
.LVL1231:
	.loc 1 3644 0
	b	.L1174
.LVL1232:
.L1252:
	.loc 1 3379 0
	adrp	x1, .LC88
	mov	w0, 1
	add	x1, x1, :lo12:.LC88
	bl	dprint_linux_kernel
.LVL1233:
	.loc 1 3380 0
	b	.L1174
.LVL1234:
.L1179:
	.loc 1 3699 0
	adrp	x1, .LC97
	mov	w0, 2
	add	x1, x1, :lo12:.LC97
	.loc 1 3700 0
	mov	w23, -1
	.loc 1 3699 0
	bl	dprint_linux_kernel
.LVL1235:
	.loc 1 3700 0
	b	.L1174
.LVL1236:
.L1219:
	.loc 1 3486 0
	adrp	x2, .LANCHOR1
	adrp	x1, .LC90
	add	x2, x2, :lo12:.LANCHOR1
	add	x1, x1, :lo12:.LC90
	add	x2, x2, 624
	mov	w3, 3486
	mov	w0, 1
.LVL1237:
	.loc 1 3487 0
	mov	w23, -1
.LVL1238:
	.loc 1 3486 0
	bl	dprint_linux_kernel
.LVL1239:
	.loc 1 3487 0
	b	.L1174
.LVL1240:
.L1257:
	.loc 1 3461 0
	adrp	x1, .LC89
	mov	w0, 1
	add	x1, x1, :lo12:.LC89
	bl	dprint_linux_kernel
.LVL1241:
	.loc 1 3463 0
	mov	x0, x19
	bl	MP4_ClearCurPic
.LVL1242:
	.loc 1 3464 0
	mov	x0, x19
	bl	MP4_Clean_HeadPacket
.LVL1243:
	.loc 1 3465 0
	b	.L1174
.LVL1244:
.L1218:
.LBB158:
	.loc 1 3686 0 discriminator 2
	mov	w4, w2
	b	.L1214
.LVL1245:
.L1212:
	.loc 1 3677 0
	ldr	w0, [x21,2808]
	mov	w2, 1
	ldr	w1, [x22,2344]
	.loc 1 3682 0
	mov	w23, -1
.LVL1246:
	.loc 1 3677 0
	bl	FSP_ClearLogicFs
.LVL1247:
	.loc 1 3678 0
	ldr	w2, [x22,2328]
	adrp	x1, .LC96
	ldr	w3, [x22,2344]
	add	x1, x1, :lo12:.LC96
	ldr	w4, [x22,2336]
	mov	w0, 0
	ldr	x5, [x20,296]
	ldr	x6, [x20,312]
	ldr	x7, [x20,304]
	bl	dprint_linux_kernel
.LVL1248:
	.loc 1 3680 0
	mov	x0, x19
	bl	MP4_ClearCurPic
.LVL1249:
	.loc 1 3681 0
	mov	x0, x19
	bl	MP4_Clean_HeadPacket
.LVL1250:
	.loc 1 3682 0
	b	.L1174
.LVL1251:
.L1220:
	.loc 1 3668 0
	ldr	w0, [x21,2808]
.LVL1252:
	mov	w2, 1
	ldr	w1, [x22,2344]
	.loc 1 3672 0
	mov	w23, -1
.LVL1253:
	str	x4, [x29,104]
	.loc 1 3668 0
	bl	FSP_ClearLogicFs
.LVL1254:
	.loc 1 3669 0
	ldr	x4, [x29,104]
.LVL1255:
	adrp	x1, .LC95
	add	x1, x1, :lo12:.LC95
	mov	w2, 3669
	mov	x3, x20
	mov	w0, 0
	bl	dprint_linux_kernel
.LVL1256:
	.loc 1 3670 0
	mov	x0, x19
	bl	MP4_ClearCurPic
.LVL1257:
	.loc 1 3671 0
	mov	x0, x19
	bl	MP4_Clean_HeadPacket
.LVL1258:
	.loc 1 3672 0
	b	.L1174
.LVL1259:
.L1265:
.LBE158:
	.loc 1 3603 0
	ldr	w0, [x21,2808]
	mov	w2, 1
	ldr	w1, [x22,2344]
	.loc 1 3604 0
	mov	w23, -1
.LVL1260:
	.loc 1 3603 0
	bl	FSP_ClearLogicFs
.LVL1261:
	.loc 1 3604 0
	b	.L1174
.LVL1262:
.L1260:
	.loc 1 3707 0
	bl	__stack_chk_fail
.LVL1263:
	.cfi_endproc
.LFE2344:
	.size	MPEG4DEC_Decode, .-MPEG4DEC_Decode
	.align	2
	.global	MPEG4DEC_GetImageWidth
	.type	MPEG4DEC_GetImageWidth, %function
MPEG4DEC_GetImageWidth:
.LFB2367:
	.loc 1 4766 0
	.cfi_startproc
.LVL1264:
	.loc 1 4769 0
	add	x0, x0, 20480
.LVL1265:
	.loc 1 4772 0
	ldr	w0, [x0,1512]
	ret
	.cfi_endproc
.LFE2367:
	.size	MPEG4DEC_GetImageWidth, .-MPEG4DEC_GetImageWidth
	.align	2
	.global	MPEG4DEC_GetImageHeight
	.type	MPEG4DEC_GetImageHeight, %function
MPEG4DEC_GetImageHeight:
.LFB2368:
	.loc 1 4775 0
	.cfi_startproc
.LVL1266:
	.loc 1 4778 0
	add	x0, x0, 20480
.LVL1267:
	.loc 1 4781 0
	ldr	w0, [x0,1508]
	ret
	.cfi_endproc
.LFE2368:
	.size	MPEG4DEC_GetImageHeight, .-MPEG4DEC_GetImageHeight
	.global	sprite_trajectory_len
	.global	default_inter_matrix
	.global	default_intra_matrix
	.global	scan_tables
	.section	.rodata
	.align	3
.LANCHOR2 = . + 0
	.type	scan_tables, %object
	.size	scan_tables, 768
scan_tables:
	.word	0
	.word	1
	.word	8
	.word	16
	.word	9
	.word	2
	.word	3
	.word	10
	.word	17
	.word	24
	.word	32
	.word	25
	.word	18
	.word	11
	.word	4
	.word	5
	.word	12
	.word	19
	.word	26
	.word	33
	.word	40
	.word	48
	.word	41
	.word	34
	.word	27
	.word	20
	.word	13
	.word	6
	.word	7
	.word	14
	.word	21
	.word	28
	.word	35
	.word	42
	.word	49
	.word	56
	.word	57
	.word	50
	.word	43
	.word	36
	.word	29
	.word	22
	.word	15
	.word	23
	.word	30
	.word	37
	.word	44
	.word	51
	.word	58
	.word	59
	.word	52
	.word	45
	.word	38
	.word	31
	.word	39
	.word	46
	.word	53
	.word	60
	.word	61
	.word	54
	.word	47
	.word	55
	.word	62
	.word	63
	.word	0
	.word	1
	.word	2
	.word	3
	.word	8
	.word	9
	.word	16
	.word	17
	.word	10
	.word	11
	.word	4
	.word	5
	.word	6
	.word	7
	.word	15
	.word	14
	.word	13
	.word	12
	.word	19
	.word	18
	.word	24
	.word	25
	.word	32
	.word	33
	.word	26
	.word	27
	.word	20
	.word	21
	.word	22
	.word	23
	.word	28
	.word	29
	.word	30
	.word	31
	.word	34
	.word	35
	.word	40
	.word	41
	.word	48
	.word	49
	.word	42
	.word	43
	.word	36
	.word	37
	.word	38
	.word	39
	.word	44
	.word	45
	.word	46
	.word	47
	.word	50
	.word	51
	.word	56
	.word	57
	.word	58
	.word	59
	.word	52
	.word	53
	.word	54
	.word	55
	.word	60
	.word	61
	.word	62
	.word	63
	.word	0
	.word	8
	.word	16
	.word	24
	.word	1
	.word	9
	.word	2
	.word	10
	.word	17
	.word	25
	.word	32
	.word	40
	.word	48
	.word	56
	.word	57
	.word	49
	.word	41
	.word	33
	.word	26
	.word	18
	.word	3
	.word	11
	.word	4
	.word	12
	.word	19
	.word	27
	.word	34
	.word	42
	.word	50
	.word	58
	.word	35
	.word	43
	.word	51
	.word	59
	.word	20
	.word	28
	.word	5
	.word	13
	.word	6
	.word	14
	.word	21
	.word	29
	.word	36
	.word	44
	.word	52
	.word	60
	.word	37
	.word	45
	.word	53
	.word	61
	.word	22
	.word	30
	.word	7
	.word	15
	.word	23
	.word	31
	.word	38
	.word	46
	.word	54
	.word	62
	.word	39
	.word	47
	.word	55
	.word	63
	.align	3
.LANCHOR1 = . + 0
	.type	default_intra_matrix, %object
	.size	default_intra_matrix, 256
default_intra_matrix:
	.word	8
	.word	17
	.word	18
	.word	19
	.word	21
	.word	23
	.word	25
	.word	27
	.word	17
	.word	18
	.word	19
	.word	21
	.word	23
	.word	25
	.word	27
	.word	28
	.word	20
	.word	21
	.word	22
	.word	23
	.word	24
	.word	26
	.word	28
	.word	30
	.word	21
	.word	22
	.word	23
	.word	24
	.word	26
	.word	28
	.word	30
	.word	32
	.word	22
	.word	23
	.word	24
	.word	26
	.word	28
	.word	30
	.word	32
	.word	35
	.word	23
	.word	24
	.word	26
	.word	28
	.word	30
	.word	32
	.word	35
	.word	38
	.word	25
	.word	26
	.word	28
	.word	30
	.word	32
	.word	35
	.word	38
	.word	41
	.word	27
	.word	28
	.word	30
	.word	32
	.word	35
	.word	38
	.word	41
	.word	45
	.type	default_inter_matrix, %object
	.size	default_inter_matrix, 256
default_inter_matrix:
	.word	16
	.word	17
	.word	18
	.word	19
	.word	20
	.word	21
	.word	22
	.word	23
	.word	17
	.word	18
	.word	19
	.word	20
	.word	21
	.word	22
	.word	23
	.word	24
	.word	18
	.word	19
	.word	20
	.word	21
	.word	22
	.word	23
	.word	24
	.word	25
	.word	19
	.word	20
	.word	21
	.word	22
	.word	23
	.word	24
	.word	26
	.word	27
	.word	20
	.word	21
	.word	22
	.word	23
	.word	25
	.word	26
	.word	27
	.word	28
	.word	21
	.word	22
	.word	23
	.word	24
	.word	26
	.word	27
	.word	28
	.word	30
	.word	22
	.word	23
	.word	24
	.word	26
	.word	27
	.word	28
	.word	30
	.word	31
	.word	23
	.word	24
	.word	25
	.word	27
	.word	28
	.word	30
	.word	31
	.word	33
	.type	__func__.39084, %object
	.size	__func__.39084, 15
__func__.39084:
	.string	"Mp4_Syntax_Vol"
	.zero	1
	.type	__FUNCTION__.39181, %object
	.size	__FUNCTION__.39181, 15
__FUNCTION__.39181:
	.string	"Mp4_Set_DecPar"
	.zero	1
	.type	__func__.39067, %object
	.size	__func__.39067, 15
__func__.39067:
	.string	"Mp4_Syntax_Vop"
	.zero	1
	.type	__FUNCTION__.39317, %object
	.size	__FUNCTION__.39317, 23
__FUNCTION__.39317:
	.string	"Mp4_Syntax_Slice_NotSH"
	.zero	1
	.type	__FUNCTION__.39331, %object
	.size	__FUNCTION__.39331, 20
__FUNCTION__.39331:
	.string	"Mp4_Syntax_Slice_SH"
	.zero	4
	.type	__FUNCTION__.39346, %object
	.size	__FUNCTION__.39346, 14
__FUNCTION__.39346:
	.string	"MP4_Dec_Slice"
	.zero	2
	.type	__FUNCTION__.39220, %object
	.size	__FUNCTION__.39220, 16
__FUNCTION__.39220:
	.string	"MPEG4DEC_Decode"
	.data
	.align	3
.LANCHOR0 = . + 0
	.type	sprite_trajectory_len, %object
	.size	sprite_trajectory_len, 120
sprite_trajectory_len:
	.word	0
	.byte	2
	.zero	3
	.word	2
	.byte	3
	.zero	3
	.word	3
	.byte	3
	.zero	3
	.word	4
	.byte	3
	.zero	3
	.word	5
	.byte	3
	.zero	3
	.word	6
	.byte	3
	.zero	3
	.word	14
	.byte	4
	.zero	3
	.word	30
	.byte	5
	.zero	3
	.word	62
	.byte	6
	.zero	3
	.word	126
	.byte	7
	.zero	3
	.word	254
	.byte	8
	.zero	3
	.word	510
	.byte	9
	.zero	3
	.word	1022
	.byte	10
	.zero	3
	.word	2046
	.byte	11
	.zero	3
	.word	4094
	.byte	12
	.zero	3
	.section	.rodata.str1.8,"aMS",%progbits,1
	.align	3
.LC0:
	.string	"fatal stream error --- GOP marker_bit = 0\n"
	.zero	5
.LC1:
	.string	"DivX%dBuild%d%c"
.LC2:
	.string	"DivX%db%d%c"
	.zero	4
.LC3:
	.string	"FFmpe%*[^b]b%d"
	.zero	1
.LC4:
	.string	"FFmpeg v%d.%d.%d / libavcodec build: %d"
.LC5:
	.string	"Lavc%d.%d.%d"
	.zero	3
.LC6:
	.string	"ffmpeg"
	.zero	1
.LC7:
	.string	"XviD%d"
	.zero	1
.LC8:
	.string	"%s chroma_format = %d, but only support 0x0001\n"
.LC9:
	.string	"fatal stream error --- VOP marker_bit = 0\n"
	.zero	5
.LC10:
	.string	"%s video_object_layer_shape = %d, but only support VIDOBJLAY_SHAPE_RECTANGULAR\n"
.LC11:
	.string	"%s resolution %dx%d out of range (%dx%d, %dx%d)\n"
	.zero	7
.LC12:
	.string	"VDH doesn't support SPRITE_STATIC & SPRITE_GMC\n"
.LC13:
	.string	"VDH doesn't support SPRITE_STATIC\n"
	.zero	5
.LC14:
	.string	"Unknown sprite_enable\n"
	.zero	1
.LC15:
	.string	"ERROR: not_8_bit !=0\n"
	.zero	2
.LC16:
	.string	"not support no complexity_estimation_disable\n"
	.zero	2
.LC17:
	.string	"not support data_partitioned\n"
	.zero	2
.LC18:
	.string	"not support newpred_enable\n"
	.zero	4
.LC19:
	.string	"not support reduced_resolution_vop_eanble\n"
	.zero	5
.LC20:
	.string	"not support scalability\n"
	.zero	7
.LC21:
	.string	"warning! profile_and_level_indication=%#x, maybe HD pic...\n"
	.zero	4
.LC22:
	.string	"actual frame size(%dx%d) exeed max config(%dx%d)\n"
	.zero	6
.LC23:
	.string	"MPEG4 Frame_Init return err!\n"
	.zero	2
.LC24:
	.string	"MPEG4 Frame_Init PmvNum=%d, FrameNum=%d, error!\n"
	.zero	7
.LC25:
	.string	"ERROR: FSP_ConfigInstance fail!\n"
	.zero	7
.LC26:
	.string	"dec_pts: %lld Usertag: %lld\n"
	.zero	3
.LC27:
	.string	"get frame store fail!\n"
	.zero	1
.LC28:
	.string	"%s %d  abnormal!\n"
	.zero	6
.LC29:
	.string	"CurFsID(fwd%d,%d,bwd%d) abnormal!(%pK,%pK,%pK)\n"
.LC30:
	.string	"-1 == VCTRL_GetChanIDByCtx() Err! \n"
	.zero	4
.LC31:
	.string	"MPEG4 destroy\n"
	.zero	1
.LC32:
	.string	"NVOP VDM copy process................\n"
	.zero	1
.LC33:
	.string	"vop_coding_type = %d is not expected!\n"
	.zero	1
.LC34:
	.string	" slice num %d is not extpected!\n"
	.zero	7
.LC35:
	.string	" line %d packet is wrong!\n"
	.zero	5
.LC36:
	.string	"pImg is null, pCurImg = %pK, pBwdImg = %pK\n"
	.zero	4
.LC37:
	.string	"FrameNum=%d\n"
	.zero	3
.LC38:
	.string	"vop_coding_type=%d\n"
	.zero	4
.LC39:
	.string	"line: %d pToQueImg is null!\n"
	.zero	3
.LC40:
	.string	"CurImage %d is already out put\n"
.LC41:
	.string	"err(%d) > out_thr(%d)\n"
	.zero	1
.LC42:
	.string	"StreamIDNum = %d > (%d)\n"
	.zero	7
.LC43:
	.string	"Warning : vop slice num %d != 0\n"
	.zero	7
.LC44:
	.string	"warning streamIDNum %d != 0 \n"
	.zero	2
.LC45:
	.string	"%s vol_decode_over %d invalid\n"
	.zero	1
.LC46:
	.string	"vop ---%d\n"
	.zero	5
.LC47:
	.string	"VDH doesn't support S_VOP\n"
	.zero	5
.LC48:
	.string	"%s I mode meet not I_VOP\n"
	.zero	6
.LC49:
	.string	"parse time_module_base stream not enough\n"
	.zero	6
.LC50:
	.string	"error: vop_coding_type = %d, but vop_fcode_forward = 0\n"
.LC51:
	.string	"error: B vop, but vop_fcode_backward = 0\n"
	.zero	6
.LC52:
	.string	"module time base parse error, more than %d '1' was found!\n"
	.zero	5
.LC53:
	.string	"FUN: %s Invalid SlcNum = %d\n"
	.zero	3
.LC54:
	.string	" invalid image_width = %d or invalid image_height = %d\n"
.LC55:
	.string	" pSlcPara->mb_start_num = %d, MbCnt = %d\n"
	.zero	6
.LC56:
	.string	"pSlcPara->mb_start_num = %d, totalMbMin1 = %d\n"
	.zero	1
.LC57:
	.string	"FUN: %s MP4_ClearCurPacket\n"
	.zero	4
.LC58:
	.string	"pCtx is NUL!!!\n"
.LC59:
	.string	"Not find start code \n"
	.zero	2
.LC60:
	.string	"VOS beginning ~ !\n"
	.zero	5
.LC61:
	.string	"VO beginning ~ !\n"
	.zero	6
.LC62:
	.string	"VOL beginning ~ !\n"
	.zero	5
.LC63:
	.string	"GOP beginning ~ !\n"
	.zero	5
.LC64:
	.string	"VOP beginning ~ !\n"
	.zero	5
.LC65:
	.string	"BitUsed=%d\n"
	.zero	4
.LC66:
	.string	"SHVOP beginning ~ !\n"
	.zero	3
.LC67:
	.string	"USERDATA beginning ~ !\n"
.LC68:
	.string	"MPEG4 Frame_Init return err 3!\n"
.LC69:
	.string	"MPEG4 Frame_Init return err 1!\n"
.LC70:
	.string	"vop right\n"
	.zero	5
.LC71:
	.string	"MPEG4 Frame_Init return err 2!\n"
.LC72:
	.string	"bits over boundary\n"
	.zero	4
.LC73:
	.string	"pLastPacket->StreamPack[0].VirAddr is NULL!!\n"
	.zero	2
.LC74:
	.string	"line %d MP4_Combine_HdPacket failed!!\n"
	.zero	1
.LC75:
	.string	"bitsream para error -----\n"
	.zero	5
.LC76:
	.string	"MPEG4DEC Decode -----\n"
	.zero	1
.LC77:
	.string	"ptr_strm_para->PhyAddr0=0x%x\n"
	.zero	2
.LC78:
	.string	"ptr_strm_para->Length0=%d\n"
	.zero	5
.LC79:
	.string	"ptr_strm_para->IsLastSeg0=%d\n"
	.zero	2
.LC80:
	.string	"ptr_strm_para->PhyAddr1=0x%x\n"
	.zero	2
.LC81:
	.string	"ptr_strm_para->Length1=%d\n"
	.zero	5
.LC82:
	.string	"ptr_strm_para->IsLastSeg1=%d\n"
	.zero	2
.LC83:
	.string	"ptr_strm_para->Length0 = %d\n"
	.zero	3
.LC84:
	.string	"byte0: = 0x%x\n"
	.zero	1
.LC85:
	.string	"byte1: = 0x%x\n"
	.zero	1
.LC86:
	.string	"byte2: = 0x%x\n"
	.zero	1
.LC87:
	.string	"byte3: = 0x%x\n"
	.zero	1
.LC88:
	.string	"MP4_Check_CurPacket failed!\n"
	.zero	3
.LC89:
	.string	"Mp4_Frame_Atr return fail\n"
	.zero	5
.LC90:
	.string	"fuction return value is null, %s %d!!\n"
	.zero	1
.LC91:
	.string	"dec P/S frame, fwd ref err(%d) > ref_thr(%d)\n"
	.zero	2
.LC92:
	.string	"dec B frame, bwd ref err(%d) > ref_thr(%d)\n"
	.zero	4
.LC93:
	.string	"dec B frame, fwd ref err(%d) > ref_thr(%d)\n"
	.zero	4
.LC94:
	.string	"NVOP mem move--\n"
	.zero	7
.LC95:
	.string	"line: %d pCur = %pK, pFwd = %pK\n"
	.zero	7
.LC96:
	.string	"CurFsID(f%d,%d,b%d) abnormal!(%pK,%pK,%pK)\n"
	.zero	4
.LC97:
	.string	"bits not enought\n"
	.bss
	.align	3
.LANCHOR3 = . + 0
	.type	MemArrange.39122, %object
	.size	MemArrange.39122, 272
MemArrange.39122:
	.zero	272
	.text
.Letext0:
	.file 2 "/home/jenkins1/slave_49/workspace/CHICAGO_B100_chipset_component/opensource/component_code/vendor/huawei/extra/build/build_script/kirin_kernel_release/kernel/drivers/vcodec/hi_vcodec/vdec/include/hi_type.h"
	.file 3 "/home/jenkins1/slave_49/workspace/CHICAGO_B100_chipset_component/opensource/component_code/vendor/huawei/extra/build/build_script/kirin_kernel_release/kernel/drivers/vcodec/hi_vcodec/vdec/vfmw/vfmw_v4.0/vfmw.h"
	.file 4 "/home/jenkins1/slave_49/workspace/CHICAGO_B100_chipset_component/opensource/component_code/vendor/huawei/extra/build/build_script/kirin_kernel_release/kernel/include/uapi/asm-generic/int-ll64.h"
	.file 5 "/home/jenkins1/slave_49/workspace/CHICAGO_B100_chipset_component/opensource/component_code/vendor/huawei/extra/build/build_script/kirin_kernel_release/kernel/include/asm-generic/int-ll64.h"
	.file 6 "/home/jenkins1/slave_49/workspace/CHICAGO_B100_chipset_component/opensource/component_code/vendor/huawei/extra/build/build_script/kirin_kernel_release/kernel/include/uapi/asm-generic/posix_types.h"
	.file 7 "/home/jenkins1/slave_49/workspace/CHICAGO_B100_chipset_component/opensource/component_code/vendor/huawei/extra/build/build_script/kirin_kernel_release/kernel/include/linux/export.h"
	.file 8 "/home/jenkins1/slave_49/workspace/CHICAGO_B100_chipset_component/opensource/component_code/vendor/huawei/extra/build/build_script/kirin_kernel_release/kernel/include/linux/types.h"
	.file 9 "/home/jenkins1/slave_49/workspace/CHICAGO_B100_chipset_component/opensource/component_code/vendor/huawei/extra/build/build_script/kirin_kernel_release/kernel/include/asm-generic/bug.h"
	.file 10 "/home/jenkins1/slave_49/workspace/CHICAGO_B100_chipset_component/opensource/component_code/vendor/huawei/extra/build/build_script/kirin_kernel_release/kernel/include/linux/thread_info.h"
	.file 11 "/home/jenkins1/slave_49/workspace/CHICAGO_B100_chipset_component/opensource/component_code/vendor/huawei/extra/build/build_script/kirin_kernel_release/kernel/include/uapi/linux/time.h"
	.file 12 "/home/jenkins1/slave_49/workspace/CHICAGO_B100_chipset_component/opensource/component_code/vendor/huawei/extra/build/build_script/kirin_kernel_release/kernel/arch/arm64/include/asm/compat.h"
	.file 13 "/home/jenkins1/slave_49/workspace/CHICAGO_B100_chipset_component/opensource/component_code/vendor/huawei/extra/build/build_script/kirin_kernel_release/kernel/include/uapi/asm-generic/poll.h"
	.file 14 "/home/jenkins1/slave_49/workspace/CHICAGO_B100_chipset_component/opensource/component_code/vendor/huawei/extra/build/build_script/kirin_kernel_release/kernel/include/linux/sched.h"
	.file 15 "/home/jenkins1/slave_49/workspace/CHICAGO_B100_chipset_component/opensource/component_code/vendor/huawei/extra/build/build_script/kirin_kernel_release/kernel/arch/arm64/include/uapi/asm/ptrace.h"
	.file 16 "/home/jenkins1/slave_49/workspace/CHICAGO_B100_chipset_component/opensource/component_code/vendor/huawei/extra/build/build_script/kirin_kernel_release/kernel/arch/arm64/include/asm/ptrace.h"
	.file 17 "/home/jenkins1/slave_49/workspace/CHICAGO_B100_chipset_component/opensource/component_code/vendor/huawei/extra/build/build_script/kirin_kernel_release/kernel/arch/arm64/include/asm/spinlock_types.h"
	.file 18 "/home/jenkins1/slave_49/workspace/CHICAGO_B100_chipset_component/opensource/component_code/vendor/huawei/extra/build/build_script/kirin_kernel_release/kernel/include/linux/spinlock_types.h"
	.file 19 "/home/jenkins1/slave_49/workspace/CHICAGO_B100_chipset_component/opensource/component_code/vendor/huawei/extra/build/build_script/kirin_kernel_release/kernel/include/linux/rwlock_types.h"
	.file 20 "/home/jenkins1/slave_49/workspace/CHICAGO_B100_chipset_component/opensource/component_code/vendor/huawei/extra/build/build_script/kirin_kernel_release/kernel/arch/arm64/include/asm/fpsimd.h"
	.file 21 "/home/jenkins1/slave_49/workspace/CHICAGO_B100_chipset_component/opensource/component_code/vendor/huawei/extra/build/build_script/kirin_kernel_release/kernel/arch/arm64/include/asm/hw_breakpoint.h"
	.file 22 "/home/jenkins1/slave_49/workspace/CHICAGO_B100_chipset_component/opensource/component_code/vendor/huawei/extra/build/build_script/kirin_kernel_release/kernel/arch/arm64/include/asm/processor.h"
	.file 23 "/home/jenkins1/slave_49/workspace/CHICAGO_B100_chipset_component/opensource/component_code/vendor/huawei/extra/build/build_script/kirin_kernel_release/kernel/include/linux/perf_event.h"
	.file 24 "/home/jenkins1/slave_49/workspace/CHICAGO_B100_chipset_component/opensource/component_code/vendor/huawei/extra/build/build_script/kirin_kernel_release/kernel/include/asm-generic/atomic-long.h"
	.file 25 "/home/jenkins1/slave_49/workspace/CHICAGO_B100_chipset_component/opensource/component_code/vendor/huawei/extra/build/build_script/kirin_kernel_release/kernel/include/linux/wait.h"
	.file 26 "/home/jenkins1/slave_49/workspace/CHICAGO_B100_chipset_component/opensource/component_code/vendor/huawei/extra/build/build_script/kirin_kernel_release/kernel/include/linux/seqlock.h"
	.file 27 "/home/jenkins1/slave_49/workspace/CHICAGO_B100_chipset_component/opensource/component_code/vendor/huawei/extra/build/build_script/kirin_kernel_release/kernel/include/linux/nodemask.h"
	.file 28 "/home/jenkins1/slave_49/workspace/CHICAGO_B100_chipset_component/opensource/component_code/vendor/huawei/extra/build/build_script/kirin_kernel_release/kernel/include/linux/cpumask.h"
	.file 29 "/home/jenkins1/slave_49/workspace/CHICAGO_B100_chipset_component/opensource/component_code/vendor/huawei/extra/build/build_script/kirin_kernel_release/kernel/include/linux/completion.h"
	.file 30 "/home/jenkins1/slave_49/workspace/CHICAGO_B100_chipset_component/opensource/component_code/vendor/huawei/extra/build/build_script/kirin_kernel_release/kernel/include/linux/ktime.h"
	.file 31 "/home/jenkins1/slave_49/workspace/CHICAGO_B100_chipset_component/opensource/component_code/vendor/huawei/extra/build/build_script/kirin_kernel_release/kernel/include/linux/rbtree.h"
	.file 32 "/home/jenkins1/slave_49/workspace/CHICAGO_B100_chipset_component/opensource/component_code/vendor/huawei/extra/build/build_script/kirin_kernel_release/kernel/include/linux/osq_lock.h"
	.file 33 "/home/jenkins1/slave_49/workspace/CHICAGO_B100_chipset_component/opensource/component_code/vendor/huawei/extra/build/build_script/kirin_kernel_release/kernel/include/linux/rwsem.h"
	.file 34 "/home/jenkins1/slave_49/workspace/CHICAGO_B100_chipset_component/opensource/component_code/vendor/huawei/extra/build/build_script/kirin_kernel_release/kernel/include/linux/mm_types.h"
	.file 35 "/home/jenkins1/slave_49/workspace/CHICAGO_B100_chipset_component/opensource/component_code/vendor/huawei/extra/build/build_script/kirin_kernel_release/kernel/include/linux/lockdep.h"
	.file 36 "/home/jenkins1/slave_49/workspace/CHICAGO_B100_chipset_component/opensource/component_code/vendor/huawei/extra/build/build_script/kirin_kernel_release/kernel/include/linux/uprobes.h"
	.file 37 "/home/jenkins1/slave_49/workspace/CHICAGO_B100_chipset_component/opensource/component_code/vendor/huawei/extra/build/build_script/kirin_kernel_release/kernel/arch/arm64/include/asm/pgtable-types.h"
	.file 38 "/home/jenkins1/slave_49/workspace/CHICAGO_B100_chipset_component/opensource/component_code/vendor/huawei/extra/build/build_script/kirin_kernel_release/kernel/arch/arm64/include/asm/mmu.h"
	.file 39 "/home/jenkins1/slave_49/workspace/CHICAGO_B100_chipset_component/opensource/component_code/vendor/huawei/extra/build/build_script/kirin_kernel_release/kernel/include/linux/fs.h"
	.file 40 "/home/jenkins1/slave_49/workspace/CHICAGO_B100_chipset_component/opensource/component_code/vendor/huawei/extra/build/build_script/kirin_kernel_release/kernel/include/linux/mm.h"
	.file 41 "/home/jenkins1/slave_49/workspace/CHICAGO_B100_chipset_component/opensource/component_code/vendor/huawei/extra/build/build_script/kirin_kernel_release/kernel/include/linux/mmzone.h"
	.file 42 "/home/jenkins1/slave_49/workspace/CHICAGO_B100_chipset_component/opensource/component_code/vendor/huawei/extra/build/build_script/kirin_kernel_release/kernel/include/linux/mutex.h"
	.file 43 "/home/jenkins1/slave_49/workspace/CHICAGO_B100_chipset_component/opensource/component_code/vendor/huawei/extra/build/build_script/kirin_kernel_release/kernel/include/linux/timer.h"
	.file 44 "/home/jenkins1/slave_49/workspace/CHICAGO_B100_chipset_component/opensource/component_code/vendor/huawei/extra/build/build_script/kirin_kernel_release/kernel/include/linux/nsproxy.h"
	.file 45 "/home/jenkins1/slave_49/workspace/CHICAGO_B100_chipset_component/opensource/component_code/vendor/huawei/extra/build/build_script/kirin_kernel_release/kernel/include/linux/workqueue.h"
	.file 46 "/home/jenkins1/slave_49/workspace/CHICAGO_B100_chipset_component/opensource/component_code/vendor/huawei/extra/build/build_script/kirin_kernel_release/kernel/include/linux/llist.h"
	.file 47 "/home/jenkins1/slave_49/workspace/CHICAGO_B100_chipset_component/opensource/component_code/vendor/huawei/extra/build/build_script/kirin_kernel_release/kernel/arch/arm64/include/asm/smp.h"
	.file 48 "/home/jenkins1/slave_49/workspace/CHICAGO_B100_chipset_component/opensource/component_code/vendor/huawei/extra/build/build_script/kirin_kernel_release/kernel/include/linux/percpu.h"
	.file 49 "/home/jenkins1/slave_49/workspace/CHICAGO_B100_chipset_component/opensource/component_code/vendor/huawei/extra/build/build_script/kirin_kernel_release/kernel/include/linux/shrinker.h"
	.file 50 "/home/jenkins1/slave_49/workspace/CHICAGO_B100_chipset_component/opensource/component_code/vendor/huawei/extra/build/build_script/kirin_kernel_release/kernel/include/uapi/linux/resource.h"
	.file 51 "/home/jenkins1/slave_49/workspace/CHICAGO_B100_chipset_component/opensource/component_code/vendor/huawei/extra/build/build_script/kirin_kernel_release/kernel/include/linux/vm_event_item.h"
	.file 52 "/home/jenkins1/slave_49/workspace/CHICAGO_B100_chipset_component/opensource/component_code/vendor/huawei/extra/build/build_script/kirin_kernel_release/kernel/include/linux/vmstat.h"
	.file 53 "/home/jenkins1/slave_49/workspace/CHICAGO_B100_chipset_component/opensource/component_code/vendor/huawei/extra/build/build_script/kirin_kernel_release/kernel/include/linux/capability.h"
	.file 54 "/home/jenkins1/slave_49/workspace/CHICAGO_B100_chipset_component/opensource/component_code/vendor/huawei/extra/build/build_script/kirin_kernel_release/kernel/include/linux/plist.h"
	.file 55 "/home/jenkins1/slave_49/workspace/CHICAGO_B100_chipset_component/opensource/component_code/vendor/huawei/extra/build/build_script/kirin_kernel_release/kernel/include/asm-generic/cputime_jiffies.h"
	.file 56 "/home/jenkins1/slave_49/workspace/CHICAGO_B100_chipset_component/opensource/component_code/vendor/huawei/extra/build/build_script/kirin_kernel_release/kernel/include/linux/uidgid.h"
	.file 57 "/home/jenkins1/slave_49/workspace/CHICAGO_B100_chipset_component/opensource/component_code/vendor/huawei/extra/build/build_script/kirin_kernel_release/kernel/include/uapi/asm-generic/signal.h"
	.file 58 "/home/jenkins1/slave_49/workspace/CHICAGO_B100_chipset_component/opensource/component_code/vendor/huawei/extra/build/build_script/kirin_kernel_release/kernel/include/uapi/asm-generic/signal-defs.h"
	.file 59 "/home/jenkins1/slave_49/workspace/CHICAGO_B100_chipset_component/opensource/component_code/vendor/huawei/extra/build/build_script/kirin_kernel_release/kernel/include/uapi/asm-generic/siginfo.h"
	.file 60 "/home/jenkins1/slave_49/workspace/CHICAGO_B100_chipset_component/opensource/component_code/vendor/huawei/extra/build/build_script/kirin_kernel_release/kernel/include/linux/signal.h"
	.file 61 "/home/jenkins1/slave_49/workspace/CHICAGO_B100_chipset_component/opensource/component_code/vendor/huawei/extra/build/build_script/kirin_kernel_release/kernel/include/linux/pid.h"
	.file 62 "/home/jenkins1/slave_49/workspace/CHICAGO_B100_chipset_component/opensource/component_code/vendor/huawei/extra/build/build_script/kirin_kernel_release/kernel/include/linux/pid_namespace.h"
	.file 63 "/home/jenkins1/slave_49/workspace/CHICAGO_B100_chipset_component/opensource/component_code/vendor/huawei/extra/build/build_script/kirin_kernel_release/kernel/include/linux/percpu_counter.h"
	.file 64 "/home/jenkins1/slave_49/workspace/CHICAGO_B100_chipset_component/opensource/component_code/vendor/huawei/extra/build/build_script/kirin_kernel_release/kernel/include/linux/seccomp.h"
	.file 65 "/home/jenkins1/slave_49/workspace/CHICAGO_B100_chipset_component/opensource/component_code/vendor/huawei/extra/build/build_script/kirin_kernel_release/kernel/include/linux/timerqueue.h"
	.file 66 "/home/jenkins1/slave_49/workspace/CHICAGO_B100_chipset_component/opensource/component_code/vendor/huawei/extra/build/build_script/kirin_kernel_release/kernel/include/linux/hrtimer.h"
	.file 67 "/home/jenkins1/slave_49/workspace/CHICAGO_B100_chipset_component/opensource/component_code/vendor/huawei/extra/build/build_script/kirin_kernel_release/kernel/include/linux/task_io_accounting.h"
	.file 68 "/home/jenkins1/slave_49/workspace/CHICAGO_B100_chipset_component/opensource/component_code/vendor/huawei/extra/build/build_script/kirin_kernel_release/kernel/include/linux/assoc_array.h"
	.file 69 "/home/jenkins1/slave_49/workspace/CHICAGO_B100_chipset_component/opensource/component_code/vendor/huawei/extra/build/build_script/kirin_kernel_release/kernel/include/linux/key.h"
	.file 70 "/home/jenkins1/slave_49/workspace/CHICAGO_B100_chipset_component/opensource/component_code/vendor/huawei/extra/build/build_script/kirin_kernel_release/kernel/include/linux/cred.h"
	.file 71 "/home/jenkins1/slave_49/workspace/CHICAGO_B100_chipset_component/opensource/component_code/vendor/huawei/extra/build/build_script/kirin_kernel_release/kernel/include/linux/idr.h"
	.file 72 "/home/jenkins1/slave_49/workspace/CHICAGO_B100_chipset_component/opensource/component_code/vendor/huawei/extra/build/build_script/kirin_kernel_release/kernel/include/linux/percpu-refcount.h"
	.file 73 "/home/jenkins1/slave_49/workspace/CHICAGO_B100_chipset_component/opensource/component_code/vendor/huawei/extra/build/build_script/kirin_kernel_release/kernel/include/linux/rcu_sync.h"
	.file 74 "/home/jenkins1/slave_49/workspace/CHICAGO_B100_chipset_component/opensource/component_code/vendor/huawei/extra/build/build_script/kirin_kernel_release/kernel/include/linux/percpu-rwsem.h"
	.file 75 "/home/jenkins1/slave_49/workspace/CHICAGO_B100_chipset_component/opensource/component_code/vendor/huawei/extra/build/build_script/kirin_kernel_release/kernel/include/linux/cgroup-defs.h"
	.file 76 "/home/jenkins1/slave_49/workspace/CHICAGO_B100_chipset_component/opensource/component_code/vendor/huawei/extra/build/build_script/kirin_kernel_release/kernel/include/linux/kernfs.h"
	.file 77 "/home/jenkins1/slave_49/workspace/CHICAGO_B100_chipset_component/opensource/component_code/vendor/huawei/extra/build/build_script/kirin_kernel_release/kernel/include/linux/seq_file.h"
	.file 78 "/home/jenkins1/slave_49/workspace/CHICAGO_B100_chipset_component/opensource/component_code/vendor/huawei/extra/build/build_script/kirin_kernel_release/kernel/include/uapi/linux/taskstats.h"
	.file 79 "/home/jenkins1/slave_49/workspace/CHICAGO_B100_chipset_component/opensource/component_code/vendor/huawei/extra/build/build_script/kirin_kernel_release/kernel/include/linux/compat.h"
	.file 80 "/home/jenkins1/slave_49/workspace/CHICAGO_B100_chipset_component/opensource/component_code/vendor/huawei/extra/build/build_script/kirin_kernel_release/kernel/include/linux/stat.h"
	.file 81 "/home/jenkins1/slave_49/workspace/CHICAGO_B100_chipset_component/opensource/component_code/vendor/huawei/extra/build/build_script/kirin_kernel_release/kernel/include/uapi/linux/elf.h"
	.file 82 "/home/jenkins1/slave_49/workspace/CHICAGO_B100_chipset_component/opensource/component_code/vendor/huawei/extra/build/build_script/kirin_kernel_release/kernel/include/linux/kobject_ns.h"
	.file 83 "/home/jenkins1/slave_49/workspace/CHICAGO_B100_chipset_component/opensource/component_code/vendor/huawei/extra/build/build_script/kirin_kernel_release/kernel/include/linux/sysfs.h"
	.file 84 "/home/jenkins1/slave_49/workspace/CHICAGO_B100_chipset_component/opensource/component_code/vendor/huawei/extra/build/build_script/kirin_kernel_release/kernel/include/linux/kobject.h"
	.file 85 "/home/jenkins1/slave_49/workspace/CHICAGO_B100_chipset_component/opensource/component_code/vendor/huawei/extra/build/build_script/kirin_kernel_release/kernel/include/linux/kref.h"
	.file 86 "/home/jenkins1/slave_49/workspace/CHICAGO_B100_chipset_component/opensource/component_code/vendor/huawei/extra/build/build_script/kirin_kernel_release/kernel/include/linux/moduleparam.h"
	.file 87 "/home/jenkins1/slave_49/workspace/CHICAGO_B100_chipset_component/opensource/component_code/vendor/huawei/extra/build/build_script/kirin_kernel_release/kernel/include/linux/module.h"
	.file 88 "/home/jenkins1/slave_49/workspace/CHICAGO_B100_chipset_component/opensource/component_code/vendor/huawei/extra/build/build_script/kirin_kernel_release/kernel/include/linux/jump_label.h"
	.file 89 "/home/jenkins1/slave_49/workspace/CHICAGO_B100_chipset_component/opensource/component_code/vendor/huawei/extra/build/build_script/kirin_kernel_release/kernel/include/linux/rbtree_latch.h"
	.file 90 "/home/jenkins1/slave_49/workspace/CHICAGO_B100_chipset_component/opensource/component_code/vendor/huawei/extra/build/build_script/kirin_kernel_release/kernel/arch/arm64/include/asm/module.h"
	.file 91 "/home/jenkins1/slave_49/workspace/CHICAGO_B100_chipset_component/opensource/component_code/vendor/huawei/extra/build/build_script/kirin_kernel_release/kernel/arch/arm64/include/asm/uaccess.h"
	.file 92 "/home/jenkins1/slave_49/workspace/CHICAGO_B100_chipset_component/opensource/component_code/vendor/huawei/extra/build/build_script/kirin_kernel_release/kernel/include/linux/tracepoint.h"
	.file 93 "/home/jenkins1/slave_49/workspace/CHICAGO_B100_chipset_component/opensource/component_code/vendor/huawei/extra/build/build_script/kirin_kernel_release/kernel/include/linux/trace_events.h"
	.file 94 "/home/jenkins1/slave_49/workspace/CHICAGO_B100_chipset_component/opensource/component_code/vendor/huawei/extra/build/build_script/kirin_kernel_release/kernel/include/linux/quota.h"
	.file 95 "/home/jenkins1/slave_49/workspace/CHICAGO_B100_chipset_component/opensource/component_code/vendor/huawei/extra/build/build_script/kirin_kernel_release/kernel/include/linux/projid.h"
	.file 96 "/home/jenkins1/slave_49/workspace/CHICAGO_B100_chipset_component/opensource/component_code/vendor/huawei/extra/build/build_script/kirin_kernel_release/kernel/include/uapi/linux/quota.h"
	.file 97 "/home/jenkins1/slave_49/workspace/CHICAGO_B100_chipset_component/opensource/component_code/vendor/huawei/extra/build/build_script/kirin_kernel_release/kernel/include/linux/path.h"
	.file 98 "/home/jenkins1/slave_49/workspace/CHICAGO_B100_chipset_component/opensource/component_code/vendor/huawei/extra/build/build_script/kirin_kernel_release/kernel/include/linux/list_bl.h"
	.file 99 "/home/jenkins1/slave_49/workspace/CHICAGO_B100_chipset_component/opensource/component_code/vendor/huawei/extra/build/build_script/kirin_kernel_release/kernel/include/linux/lockref.h"
	.file 100 "/home/jenkins1/slave_49/workspace/CHICAGO_B100_chipset_component/opensource/component_code/vendor/huawei/extra/build/build_script/kirin_kernel_release/kernel/include/linux/dcache.h"
	.file 101 "/home/jenkins1/slave_49/workspace/CHICAGO_B100_chipset_component/opensource/component_code/vendor/huawei/extra/build/build_script/kirin_kernel_release/kernel/include/linux/list_lru.h"
	.file 102 "/home/jenkins1/slave_49/workspace/CHICAGO_B100_chipset_component/opensource/component_code/vendor/huawei/extra/build/build_script/kirin_kernel_release/kernel/include/linux/radix-tree.h"
	.file 103 "/home/jenkins1/slave_49/workspace/CHICAGO_B100_chipset_component/opensource/component_code/vendor/huawei/extra/build/build_script/kirin_kernel_release/kernel/include/uapi/linux/fiemap.h"
	.file 104 "/home/jenkins1/slave_49/workspace/CHICAGO_B100_chipset_component/opensource/component_code/vendor/huawei/extra/build/build_script/kirin_kernel_release/kernel/include/linux/migrate_mode.h"
	.file 105 "/home/jenkins1/slave_49/workspace/CHICAGO_B100_chipset_component/opensource/component_code/vendor/huawei/extra/build/build_script/kirin_kernel_release/kernel/include/linux/blk_types.h"
	.file 106 "/home/jenkins1/slave_49/workspace/CHICAGO_B100_chipset_component/opensource/component_code/vendor/huawei/extra/build/build_script/kirin_kernel_release/kernel/include/linux/uio.h"
	.file 107 "/home/jenkins1/slave_49/workspace/CHICAGO_B100_chipset_component/opensource/component_code/vendor/huawei/extra/build/build_script/kirin_kernel_release/kernel/include/linux/nfs_fs_i.h"
	.file 108 "/home/jenkins1/slave_49/workspace/CHICAGO_B100_chipset_component/opensource/component_code/vendor/huawei/extra/build/build_script/kirin_kernel_release/kernel/include/linux/poll.h"
	.file 109 "/home/jenkins1/slave_49/workspace/CHICAGO_B100_chipset_component/opensource/component_code/vendor/huawei/extra/build/build_script/kirin_kernel_release/kernel/include/linux/seq_buf.h"
	.file 110 "/home/jenkins1/slave_49/workspace/CHICAGO_B100_chipset_component/opensource/component_code/vendor/huawei/extra/build/build_script/kirin_kernel_release/kernel/include/linux/trace_seq.h"
	.file 111 "/home/jenkins1/slave_49/workspace/CHICAGO_B100_chipset_component/opensource/component_code/vendor/huawei/extra/build/build_script/kirin_kernel_release/kernel/include/uapi/linux/perf_event.h"
	.file 112 "/home/jenkins1/slave_49/workspace/CHICAGO_B100_chipset_component/opensource/component_code/vendor/huawei/extra/build/build_script/kirin_kernel_release/kernel/include/asm-generic/local.h"
	.file 113 "/home/jenkins1/slave_49/workspace/CHICAGO_B100_chipset_component/opensource/component_code/vendor/huawei/extra/build/build_script/kirin_kernel_release/kernel/include/asm-generic/local64.h"
	.file 114 "/home/jenkins1/slave_49/workspace/CHICAGO_B100_chipset_component/opensource/component_code/vendor/huawei/extra/build/build_script/kirin_kernel_release/kernel/include/linux/ns_common.h"
	.file 115 "/home/jenkins1/slave_49/workspace/CHICAGO_B100_chipset_component/opensource/component_code/vendor/huawei/extra/build/build_script/kirin_kernel_release/kernel/include/uapi/linux/uio.h"
	.file 116 "/home/jenkins1/slave_49/workspace/CHICAGO_B100_chipset_component/opensource/component_code/vendor/huawei/extra/build/build_script/kirin_kernel_release/kernel/include/linux/ftrace.h"
	.file 117 "/home/jenkins1/slave_49/workspace/CHICAGO_B100_chipset_component/opensource/component_code/vendor/huawei/extra/build/build_script/kirin_kernel_release/kernel/include/linux/klist.h"
	.file 118 "/home/jenkins1/slave_49/workspace/CHICAGO_B100_chipset_component/opensource/component_code/vendor/huawei/extra/build/build_script/kirin_kernel_release/kernel/include/linux/pinctrl/devinfo.h"
	.file 119 "/home/jenkins1/slave_49/workspace/CHICAGO_B100_chipset_component/opensource/component_code/vendor/huawei/extra/build/build_script/kirin_kernel_release/kernel/include/linux/pm.h"
	.file 120 "/home/jenkins1/slave_49/workspace/CHICAGO_B100_chipset_component/opensource/component_code/vendor/huawei/extra/build/build_script/kirin_kernel_release/kernel/include/linux/device.h"
	.file 121 "/home/jenkins1/slave_49/workspace/CHICAGO_B100_chipset_component/opensource/component_code/vendor/huawei/extra/build/build_script/kirin_kernel_release/kernel/include/linux/pm_wakeup.h"
	.file 122 "/home/jenkins1/slave_49/workspace/CHICAGO_B100_chipset_component/opensource/component_code/vendor/huawei/extra/build/build_script/kirin_kernel_release/kernel/arch/arm64/include/asm/device.h"
	.file 123 "/home/jenkins1/slave_49/workspace/CHICAGO_B100_chipset_component/opensource/component_code/vendor/huawei/extra/build/build_script/kirin_kernel_release/kernel/include/linux/irq_work.h"
	.file 124 "/home/jenkins1/slave_49/workspace/CHICAGO_B100_chipset_component/opensource/component_code/vendor/huawei/extra/build/build_script/kirin_kernel_release/kernel/include/linux/jump_label_ratelimit.h"
	.file 125 "/home/jenkins1/slave_49/workspace/CHICAGO_B100_chipset_component/opensource/component_code/vendor/huawei/extra/build/build_script/kirin_kernel_release/kernel/include/linux/perf_regs.h"
	.file 126 "/home/jenkins1/slave_49/workspace/CHICAGO_B100_chipset_component/opensource/component_code/vendor/huawei/extra/build/build_script/kirin_kernel_release/kernel/include/linux/interrupt.h"
	.file 127 "/home/jenkins1/slave_49/workspace/CHICAGO_B100_chipset_component/opensource/component_code/vendor/huawei/extra/build/build_script/kirin_kernel_release/kernel/drivers/vcodec/hi_vcodec/vdec/vfmw/vfmw_v4.0/firmware/common/mem_manage.h"
	.file 128 "/home/jenkins1/slave_49/workspace/CHICAGO_B100_chipset_component/opensource/component_code/vendor/huawei/extra/build/build_script/kirin_kernel_release/kernel/drivers/vcodec/hi_vcodec/vdec/vfmw/vfmw_v4.0/firmware/driver/HiSCDV200/scd_drv.h"
	.file 129 "/home/jenkins1/slave_49/workspace/CHICAGO_B100_chipset_component/opensource/component_code/vendor/huawei/extra/build/build_script/kirin_kernel_release/kernel/drivers/vcodec/hi_vcodec/vdec/vfmw/vfmw_v4.0/firmware/common/decparam.h"
	.file 130 "/home/jenkins1/slave_49/workspace/CHICAGO_B100_chipset_component/opensource/component_code/vendor/huawei/extra/build/build_script/kirin_kernel_release/kernel/drivers/vcodec/hi_vcodec/vdec/vfmw/vfmw_v4.0/firmware/common/vdm_drv.h"
	.file 131 "/home/jenkins1/slave_49/workspace/CHICAGO_B100_chipset_component/opensource/component_code/vendor/huawei/extra/build/build_script/kirin_kernel_release/kernel/drivers/vcodec/hi_vcodec/vdec/vfmw/vfmw_v4.0/firmware/common/vdm_hal.h"
	.file 132 "/home/jenkins1/slave_49/workspace/CHICAGO_B100_chipset_component/opensource/component_code/vendor/huawei/extra/build/build_script/kirin_kernel_release/kernel/drivers/vcodec/hi_vcodec/vdec/vfmw/vfmw_v4.0/firmware/common/public.h"
	.file 133 "/home/jenkins1/slave_49/workspace/CHICAGO_B100_chipset_component/opensource/component_code/vendor/huawei/extra/build/build_script/kirin_kernel_release/kernel/drivers/vcodec/hi_vcodec/vdec/vfmw/vfmw_v4.0/firmware/common/bitstream.h"
	.file 134 "/home/jenkins1/slave_49/workspace/CHICAGO_B100_chipset_component/opensource/component_code/vendor/huawei/extra/build/build_script/kirin_kernel_release/kernel/drivers/vcodec/hi_vcodec/vdec/vfmw/vfmw_v4.0/firmware/common/syn_cmn.h"
	.file 135 "/home/jenkins1/slave_49/workspace/CHICAGO_B100_chipset_component/opensource/component_code/vendor/huawei/extra/build/build_script/kirin_kernel_release/kernel/drivers/vcodec/hi_vcodec/vdec/vfmw/vfmw_v4.0/firmware/common/syntax/mpeg2.h"
	.file 136 "/home/jenkins1/slave_49/workspace/CHICAGO_B100_chipset_component/opensource/component_code/vendor/huawei/extra/build/build_script/kirin_kernel_release/kernel/drivers/vcodec/hi_vcodec/vdec/vfmw/vfmw_v4.0/firmware/common/syntax/mpeg4.h"
	.file 137 "/home/jenkins1/slave_49/workspace/CHICAGO_B100_chipset_component/opensource/component_code/vendor/huawei/extra/build/build_script/kirin_kernel_release/kernel/drivers/vcodec/hi_vcodec/vdec/vfmw/vfmw_v4.0/firmware/common/syntax/h264.h"
	.file 138 "/home/jenkins1/slave_49/workspace/CHICAGO_B100_chipset_component/opensource/component_code/vendor/huawei/extra/build/build_script/kirin_kernel_release/kernel/drivers/vcodec/hi_vcodec/vdec/vfmw/vfmw_v4.0/firmware/common/syntax/hevc.h"
	.file 139 "/home/jenkins1/slave_49/workspace/CHICAGO_B100_chipset_component/opensource/component_code/vendor/huawei/extra/build/build_script/kirin_kernel_release/kernel/drivers/vcodec/hi_vcodec/vdec/vfmw/vfmw_v4.0/firmware/common/syntax/vc1.h"
	.file 140 "/home/jenkins1/slave_49/workspace/CHICAGO_B100_chipset_component/opensource/component_code/vendor/huawei/extra/build/build_script/kirin_kernel_release/kernel/drivers/vcodec/hi_vcodec/vdec/vfmw/vfmw_v4.0/firmware/common/syntax/real8.h"
	.file 141 "/home/jenkins1/slave_49/workspace/CHICAGO_B100_chipset_component/opensource/component_code/vendor/huawei/extra/build/build_script/kirin_kernel_release/kernel/drivers/vcodec/hi_vcodec/vdec/vfmw/vfmw_v4.0/firmware/common/syntax/real9.h"
	.file 142 "/home/jenkins1/slave_49/workspace/CHICAGO_B100_chipset_component/opensource/component_code/vendor/huawei/extra/build/build_script/kirin_kernel_release/kernel/drivers/vcodec/hi_vcodec/vdec/vfmw/vfmw_v4.0/firmware/common/syntax/divx3.h"
	.file 143 "/home/jenkins1/slave_49/workspace/CHICAGO_B100_chipset_component/opensource/component_code/vendor/huawei/extra/build/build_script/kirin_kernel_release/kernel/drivers/vcodec/hi_vcodec/vdec/vfmw/vfmw_v4.0/firmware/common/syntax/vp6.h"
	.file 144 "/home/jenkins1/slave_49/workspace/CHICAGO_B100_chipset_component/opensource/component_code/vendor/huawei/extra/build/build_script/kirin_kernel_release/kernel/drivers/vcodec/hi_vcodec/vdec/vfmw/vfmw_v4.0/firmware/common/syntax/vp8.h"
	.file 145 "/home/jenkins1/slave_49/workspace/CHICAGO_B100_chipset_component/opensource/component_code/vendor/huawei/extra/build/build_script/kirin_kernel_release/kernel/drivers/vcodec/hi_vcodec/vdec/vfmw/vfmw_v4.0/firmware/common/syntax/syntax.h"
	.file 146 "/home/jenkins1/slave_49/workspace/CHICAGO_B100_chipset_component/opensource/component_code/vendor/huawei/extra/build/build_script/kirin_kernel_release/kernel/drivers/vcodec/hi_vcodec/vdec/vfmw/vfmw_v4.0/firmware/common/fsp.h"
	.file 147 "/home/jenkins1/slave_49/workspace/CHICAGO_B100_chipset_component/opensource/component_code/vendor/huawei/extra/build/build_script/kirin_kernel_release/kernel/drivers/vcodec/hi_vcodec/vdec/vfmw/vfmw_v4.0/firmware/common/vfmw_ctrl.h"
	.file 148 "/home/jenkins1/slave_49/workspace/CHICAGO_B100_chipset_component/opensource/component_code/vendor/huawei/extra/build/build_script/kirin_kernel_release/kernel/arch/arm64/include/asm/cachetype.h"
	.file 149 "/home/jenkins1/slave_49/workspace/CHICAGO_B100_chipset_component/opensource/component_code/vendor/huawei/extra/build/build_script/kirin_kernel_release/kernel/include/linux/printk.h"
	.file 150 "/home/jenkins1/slave_49/workspace/CHICAGO_B100_chipset_component/opensource/component_code/vendor/huawei/extra/build/build_script/kirin_kernel_release/kernel/include/linux/kernel.h"
	.file 151 "/home/jenkins1/slave_49/workspace/CHICAGO_B100_chipset_component/opensource/component_code/vendor/huawei/extra/build/build_script/kirin_kernel_release/kernel/arch/arm64/include/asm/thread_info.h"
	.file 152 "/home/jenkins1/slave_49/workspace/CHICAGO_B100_chipset_component/opensource/component_code/vendor/huawei/extra/build/build_script/kirin_kernel_release/kernel/include/chipset_common/kernel_harden/kaslr.h"
	.file 153 "/home/jenkins1/slave_49/workspace/CHICAGO_B100_chipset_component/opensource/component_code/vendor/huawei/extra/build/build_script/kirin_kernel_release/kernel/arch/arm64/include/asm/hwcap.h"
	.file 154 "/home/jenkins1/slave_49/workspace/CHICAGO_B100_chipset_component/opensource/component_code/vendor/huawei/extra/build/build_script/kirin_kernel_release/kernel/arch/arm64/include/asm/cpufeature.h"
	.file 155 "/home/jenkins1/slave_49/workspace/CHICAGO_B100_chipset_component/opensource/component_code/vendor/huawei/extra/build/build_script/kirin_kernel_release/kernel/include/linux/jiffies.h"
	.file 156 "/home/jenkins1/slave_49/workspace/CHICAGO_B100_chipset_component/opensource/component_code/vendor/huawei/extra/build/build_script/kirin_kernel_release/kernel/arch/arm64/include/asm/memory.h"
	.file 157 "/home/jenkins1/slave_49/workspace/CHICAGO_B100_chipset_component/opensource/component_code/vendor/huawei/extra/build/build_script/kirin_kernel_release/kernel/include/asm-generic/percpu.h"
	.file 158 "/home/jenkins1/slave_49/workspace/CHICAGO_B100_chipset_component/opensource/component_code/vendor/huawei/extra/build/build_script/kirin_kernel_release/kernel/include/linux/debug_locks.h"
	.file 159 "/home/jenkins1/slave_49/workspace/CHICAGO_B100_chipset_component/opensource/component_code/vendor/huawei/extra/build/build_script/kirin_kernel_release/kernel/include/asm-generic/pgtable.h"
	.file 160 "/home/jenkins1/slave_49/workspace/CHICAGO_B100_chipset_component/opensource/component_code/vendor/huawei/extra/build/build_script/kirin_kernel_release/kernel/include/linux/highuid.h"
	.file 161 "/home/jenkins1/slave_49/workspace/CHICAGO_B100_chipset_component/opensource/component_code/vendor/huawei/extra/build/build_script/kirin_kernel_release/kernel/arch/arm64/include/asm/irq.h"
	.file 162 "/home/jenkins1/slave_49/workspace/CHICAGO_B100_chipset_component/opensource/component_code/vendor/huawei/extra/build/build_script/kirin_kernel_release/kernel/arch/arm64/include/asm/hardirq.h"
	.file 163 "/home/jenkins1/slave_49/workspace/CHICAGO_B100_chipset_component/opensource/component_code/vendor/huawei/extra/build/build_script/kirin_kernel_release/kernel/include/linux/cgroup.h"
	.file 164 "/home/jenkins1/slave_49/workspace/CHICAGO_B100_chipset_component/opensource/component_code/vendor/huawei/extra/build/build_script/kirin_kernel_release/kernel/include/linux/slab.h"
	.file 165 "/home/jenkins1/slave_49/workspace/CHICAGO_B100_chipset_component/opensource/component_code/vendor/huawei/extra/build/build_script/kirin_kernel_release/kernel/arch/arm64/include/asm/string.h"