	.cpu generic+fp+simd
	.file	"vp8.c"
	.text
.Ltext0:
	.cfi_sections	.debug_frame
#APP
	.irp	num,0,1,2,3,4,5,6,7,8,9,10,11,12,13,14,15,16,17,18,19,20,21,22,23,24,25,26,27,28,29,30
	.equ	.L__reg_num_x\num, \num
	.endr
	.equ	.L__reg_num_xzr, 31

	.macro	mrs_s, rt, sreg
	.inst	0xd5200000|(\sreg)|(.L__reg_num_\rt)
	.endm

	.macro	msr_s, sreg, rt
	.inst	0xd5000000|(\sreg)|(.L__reg_num_\rt)
	.endm

#NO_APP
	.align	2
	.type	VP8_init_frame.part.0, %function
VP8_init_frame.part.0:
.LFB2339:
	.file 1 "/home/jenkins1/slave_49/workspace/CHICAGO_B100_chipset_component/opensource/component_code/vendor/huawei/extra/build/build_script/kirin_kernel_release/kernel/drivers/vcodec/hi_vcodec/vdec/vfmw/vfmw_v4.0/firmware/common/syntax/vp8.c"
	.loc 1 915 0
	.cfi_startproc
.LVL0:
	stp	x29, x30, [sp, -32]!
	.cfi_def_cfa_offset 32
	.cfi_offset 29, -32
	.cfi_offset 30, -24
	.loc 1 920 0
	adrp	x1, .LANCHOR0
	add	x3, x0, 2374
	add	x1, x1, :lo12:.LANCHOR0
	.loc 1 915 0
	add	x29, sp, 0
	.cfi_def_cfa_register 29
	str	x19, [sp,16]
	.cfi_offset 19, -16
	.loc 1 915 0
	mov	x19, x0
	.loc 1 920 0
	ldp	x4, x5, [x1,16]
	ldr	w2, [x1,32]
	.loc 1 921 0
	add	x0, x0, 1318
.LVL1:
	.loc 1 920 0
	ldp	x6, x7, [x1]
	stp	x4, x5, [x3,16]
	stp	x6, x7, [x3]
	ldrh	w4, [x1,36]
	.loc 1 921 0
	add	x1, x1, 40
	.loc 1 920 0
	str	w2, [x3,32]
	.loc 1 921 0
	mov	x2, 1056
	.loc 1 920 0
	strh	w4, [x19,2410]
	.loc 1 921 0
	bl	memcpy
.LVL2:
	.loc 1 922 0
	adrp	x2, .LANCHOR1
	add	x3, x19, 1310
	add	x1, x2, :lo12:.LANCHOR1
	.loc 1 934 0
	mov	w0, 1
	.loc 1 922 0
	ldr	w2, [x2,#:lo12:.LANCHOR1]
	str	w2, [x3]
	.loc 1 923 0
	ldrh	w2, [x1,8]
	ldrb	w1, [x1,10]
	strh	w2, [x19,1314]
	strb	w1, [x19,1316]
	.loc 1 926 0
	str	xzr, [x19,22]
	.loc 1 927 0
	strb	wzr, [x19,17]
	.loc 1 930 0
	str	wzr, [x19,32]
	.loc 1 931 0
	str	wzr, [x19,36]
	.loc 1 934 0
	strb	w0, [x19,41]
	.loc 1 935 0
	strb	w0, [x19,42]
	.loc 1 936 0
	strb	wzr, [x19,43]
	.loc 1 937 0
	strb	wzr, [x19,44]
	.loc 1 942 0
	strb	wzr, [x19,48]
	.loc 1 943 0
	strb	wzr, [x19,49]
	.loc 1 945 0
	ldr	x19, [sp,16]
	.cfi_restore 19
.LVL3:
	ldp	x29, x30, [sp], 32
	.cfi_restore 30
	.cfi_restore 29
	.cfi_def_cfa 31, 0
	ret
	.cfi_endproc
.LFE2339:
	.size	VP8_init_frame.part.0, .-VP8_init_frame.part.0
	.align	2
	.global	Vp8_Vfmw_StartBoolDecode
	.type	Vp8_Vfmw_StartBoolDecode, %function
Vp8_Vfmw_StartBoolDecode:
.LFB2315:
	.loc 1 449 0
	.cfi_startproc
.LVL4:
	stp	x29, x30, [sp, -32]!
	.cfi_def_cfa_offset 32
	.cfi_offset 29, -32
	.cfi_offset 30, -24
	.loc 1 450 0
	mov	w2, 255
	.loc 1 449 0
	add	x29, sp, 0
	.cfi_def_cfa_register 29
	str	x19, [sp,16]
	.cfi_offset 19, -16
	.loc 1 449 0
	mov	x19, x0
	.loc 1 452 0
	mov	x0, x1
.LVL5:
	mov	w1, 24
.LVL6:
	.loc 1 450 0
	str	w2, [x19]
	.loc 1 451 0
	mov	w2, 16
	str	w2, [x19,8]
	.loc 1 452 0
	bl	BsGet
.LVL7:
	str	w0, [x19,4]
	.loc 1 453 0
	ldr	x19, [sp,16]
	.cfi_restore 19
.LVL8:
	ldp	x29, x30, [sp], 32
	.cfi_restore 30
	.cfi_restore 29
	.cfi_def_cfa 31, 0
	ret
	.cfi_endproc
.LFE2315:
	.size	Vp8_Vfmw_StartBoolDecode, .-Vp8_Vfmw_StartBoolDecode
	.align	2
	.global	Vp8_Vfmw_DecodeBool
	.type	Vp8_Vfmw_DecodeBool, %function
Vp8_Vfmw_DecodeBool:
.LFB2316:
	.loc 1 457 0
	.cfi_startproc
.LVL9:
	stp	x29, x30, [sp, -80]!
	.cfi_def_cfa_offset 80
	.cfi_offset 29, -80
	.cfi_offset 30, -72
	add	x29, sp, 0
	.cfi_def_cfa_register 29
	stp	x21, x22, [sp,32]
	stp	x23, x24, [sp,48]
	stp	x19, x20, [sp,16]
	stp	x25, x26, [sp,64]
	.cfi_offset 21, -48
	.cfi_offset 22, -40
	.cfi_offset 23, -32
	.cfi_offset 24, -24
	.cfi_offset 19, -64
	.cfi_offset 20, -56
	.cfi_offset 25, -16
	.cfi_offset 26, -8
	.loc 1 457 0
	uxtb	w21, w2
.LVL10:
	mov	x22, x0
	.loc 1 467 0
	ldr	w2, [x0]
	.loc 1 457 0
	mov	x23, x1
	.loc 1 468 0
	ldr	w20, [x0,4]
	.loc 1 458 0
	mov	w24, 0
.LVL11:
	.loc 1 470 0
	sub	w0, w2, #1
.LVL12:
	.loc 1 466 0
	ldr	w25, [x22,8]
	.loc 1 470 0
	mul	w21, w21, w0
.LVL13:
	lsr	w19, w21, 8
	add	w19, w19, 1
	.loc 1 471 0
	lsl	w0, w19, 16
.LVL14:
	.loc 1 474 0
	cmp	w20, w0
	bcc	.L4
	.loc 1 476 0
	sub	w19, w2, w19
	.loc 1 477 0
	sub	w20, w20, w0
	.loc 1 478 0
	mov	w24, 1
.L4:
	.loc 1 481 0
	adrp	x0, .LANCHOR0
.LVL15:
	add	x0, x0, :lo12:.LANCHOR0
	add	x0, x0, 1096
	ldrb	w0, [x0,w19,uxtw]
	.loc 1 486 0
	subs	w25, w25, w0
	.loc 1 482 0
	lsl	w21, w19, w0
	.loc 1 483 0
	lsl	w20, w20, w0
	.loc 1 486 0
	bmi	.L10
.L5:
	.loc 1 495 0
	str	w25, [x22,8]
	.loc 1 500 0
	mov	w0, w24
	.loc 1 496 0
	str	w21, [x22]
	.loc 1 497 0
	str	w20, [x22,4]
	.loc 1 500 0
	ldp	x19, x20, [sp,16]
	.cfi_remember_state
	.cfi_restore 20
	.cfi_restore 19
	ldp	x21, x22, [sp,32]
	.cfi_restore 22
	.cfi_restore 21
.LVL16:
	ldp	x23, x24, [sp,48]
	.cfi_restore 24
	.cfi_restore 23
.LVL17:
	ldp	x25, x26, [sp,64]
	.cfi_restore 26
	.cfi_restore 25
	ldp	x29, x30, [sp], 80
	.cfi_restore 30
	.cfi_restore 29
	.cfi_def_cfa 31, 0
	ret
.LVL18:
.L10:
	.cfi_restore_state
	.loc 1 488 0
	mov	w1, 8
	.loc 1 488 0 is_stmt 0 discriminator 1
	subs	w26, w1, w25
	bmi	.L5
	mov	w19, w26
.L6:
	.loc 1 491 0 is_stmt 1
	mov	x0, x23
	mov	w1, 8
	bl	BsGet
.LVL19:
	lsl	w0, w0, w19
	.loc 1 488 0 discriminator 1
	subs	w19, w19, #8
	.loc 1 491 0
	orr	w20, w20, w0
	.loc 1 488 0 discriminator 1
	bpl	.L6
	add	w25, w25, 8
	and	w19, w26, -8
	add	w25, w25, w19
	b	.L5
	.cfi_endproc
.LFE2316:
	.size	Vp8_Vfmw_DecodeBool, .-Vp8_Vfmw_DecodeBool
	.align	2
	.global	Vp8_Vfmw_DecodeValue
	.type	Vp8_Vfmw_DecodeValue, %function
Vp8_Vfmw_DecodeValue:
.LFB2317:
	.loc 1 504 0
	.cfi_startproc
.LVL20:
	stp	x29, x30, [sp, -112]!
	.cfi_def_cfa_offset 112
	.cfi_offset 29, -112
	.cfi_offset 30, -104
	add	x29, sp, 0
	.cfi_def_cfa_register 29
	stp	x21, x22, [sp,32]
	stp	x19, x20, [sp,16]
	stp	x23, x24, [sp,48]
	stp	x25, x26, [sp,64]
	stp	x27, x28, [sp,80]
	.cfi_offset 21, -80
	.cfi_offset 22, -72
	.cfi_offset 19, -96
	.cfi_offset 20, -88
	.cfi_offset 23, -64
	.cfi_offset 24, -56
	.cfi_offset 25, -48
	.cfi_offset 26, -40
	.cfi_offset 27, -32
	.cfi_offset 28, -24
	.loc 1 508 0 discriminator 1
	subs	w22, w2, #1
.LVL21:
	bmi	.L17
.LBB11:
.LBB12:
	.loc 1 481 0
	adrp	x27, .LANCHOR0
	mov	x21, x1
	mov	x23, x0
	ldr	w19, [x0,8]
	ldr	w20, [x0]
.LBE12:
.LBE11:
	.loc 1 508 0 discriminator 1
	mov	w25, 0
.LVL22:
	ldr	w28, [x0,4]
.LBB19:
.LBB13:
	.loc 1 481 0
	add	x27, x27, :lo12:.LANCHOR0
	b	.L16
.LVL23:
.L14:
.LBE13:
.LBE19:
	.loc 1 508 0 discriminator 3
	sub	w22, w22, #1
.LBB20:
.LBB14:
	.loc 1 496 0
	str	w20, [x23]
.LBE14:
.LBE20:
	.loc 1 508 0 discriminator 1
	cmn	w22, #1
.LBB21:
.LBB15:
	.loc 1 495 0
	str	w19, [x23,8]
	.loc 1 497 0
	str	w28, [x23,4]
.LBE15:
.LBE21:
	.loc 1 510 0
	orr	w25, w24, w25
	.loc 1 508 0 discriminator 1
	beq	.L12
.L16:
.LBB22:
.LBB16:
	.loc 1 470 0
	sub	w0, w20, #1
	.loc 1 474 0
	mov	w24, 0
	.loc 1 470 0
	ubfx	x0, x0, 1, 24
	add	w0, w0, 1
	.loc 1 471 0
	lsl	w1, w0, 16
.LVL24:
	.loc 1 474 0
	cmp	w1, w28
	bhi	.L13
	.loc 1 477 0
	sub	w28, w28, w1
	mov	w1, 1
.LVL25:
	.loc 1 476 0
	sub	w0, w20, w0
	lsl	w24, w1, w22
.LVL26:
.L13:
	.loc 1 481 0
	add	x1, x27, 1096
.LVL27:
	ldrb	w1, [x1,w0,uxtw]
	.loc 1 486 0
	subs	w19, w19, w1
	.loc 1 482 0
	lsl	w20, w0, w1
	.loc 1 483 0
	lsl	w28, w28, w1
	.loc 1 486 0
	bpl	.L14
	.loc 1 488 0 discriminator 1
	mov	w0, 8
	subs	w0, w0, w19
	str	w0, [x29,108]
	bmi	.L14
	mov	w26, w0
.L15:
	.loc 1 491 0
	mov	x0, x21
	mov	w1, 8
	bl	BsGet
.LVL28:
	lsl	w0, w0, w26
	.loc 1 488 0 discriminator 1
	subs	w26, w26, #8
	.loc 1 491 0
	orr	w28, w28, w0
	.loc 1 488 0 discriminator 1
	bpl	.L15
	ldr	w0, [x29,108]
	add	w19, w19, 8
.LBE16:
.LBE22:
	.loc 1 508 0 discriminator 3
	sub	w22, w22, #1
.LBB23:
.LBB17:
	.loc 1 496 0
	str	w20, [x23]
	and	w26, w0, -8
.LBE17:
.LBE23:
	.loc 1 508 0 discriminator 1
	cmn	w22, #1
	add	w19, w19, w26
.LBB24:
.LBB18:
	.loc 1 497 0
	str	w28, [x23,4]
	.loc 1 495 0
	str	w19, [x23,8]
.LBE18:
.LBE24:
	.loc 1 510 0
	orr	w25, w24, w25
	.loc 1 508 0 discriminator 1
	bne	.L16
.LVL29:
.L12:
	.loc 1 514 0
	mov	w0, w25
	ldp	x19, x20, [sp,16]
	.cfi_remember_state
	.cfi_restore 20
	.cfi_restore 19
	ldp	x21, x22, [sp,32]
	.cfi_restore 22
	.cfi_restore 21
.LVL30:
	ldp	x23, x24, [sp,48]
	.cfi_restore 24
	.cfi_restore 23
.LVL31:
	ldp	x25, x26, [sp,64]
	.cfi_restore 26
	.cfi_restore 25
.LVL32:
	ldp	x27, x28, [sp,80]
	.cfi_restore 28
	.cfi_restore 27
.LVL33:
	ldp	x29, x30, [sp], 112
	.cfi_restore 30
	.cfi_restore 29
	.cfi_def_cfa 31, 0
	ret
.LVL34:
.L17:
	.cfi_restore_state
	.loc 1 506 0
	mov	w25, 0
.LVL35:
	b	.L12
	.cfi_endproc
.LFE2317:
	.size	Vp8_Vfmw_DecodeValue, .-Vp8_Vfmw_DecodeValue
	.align	2
	.global	VP8_SetImgFormat
	.type	VP8_SetImgFormat, %function
VP8_SetImgFormat:
.LFB2318:
	.loc 1 517 0
	.cfi_startproc
.LVL36:
	stp	x29, x30, [sp, -48]!
	.cfi_def_cfa_offset 48
	.cfi_offset 29, -48
	.cfi_offset 30, -40
	add	x29, sp, 0
	.cfi_def_cfa_register 29
	stp	x19, x20, [sp,16]
	.cfi_offset 19, -32
	.cfi_offset 20, -24
	mov	x20, x0
	str	x21, [sp,32]
	.cfi_offset 21, -16
	.loc 1 524 0
	ldr	w0, [x0,8808]
.LVL37:
	ldr	w1, [x20,8176]
	bl	FSP_GetFsImagePtr
.LVL38:
	mov	x19, x0
.LVL39:
	.loc 1 525 0
	cbz	x0, .L21
	.loc 1 538 0
	ldr	w2, [x20,8184]
	mov	w3, 7200
	.loc 1 542 0
	mov	w1, 0
	.loc 1 538 0
	and	w2, w2, 3
	.loc 1 539 0
	str	w2, [x0,36]
	.loc 1 538 0
	orr	w3, w2, w3
	.loc 1 540 0
	str	w2, [x0,40]
	.loc 1 538 0
	str	w3, [x0,44]
	.loc 1 542 0
	bl	SetAspectRatio
.LVL40:
	.loc 1 543 0
	ldr	w1, [x20,5788]
	str	w1, [x19,48]
	.loc 1 544 0
	ldr	w0, [x20,5792]
	str	w0, [x19,52]
	.loc 1 545 0
	ldr	x2, [x20]
	ldr	w2, [x2,28]
	cmp	w2, 25
	beq	.L27
.L23:
	.loc 1 559 0
	lsr	w3, w1, 1
	.loc 1 560 0
	lsr	w2, w0, 1
	.loc 1 559 0
	str	w3, [x19,64]
	.loc 1 560 0
	str	w2, [x19,68]
	.loc 1 561 0
	str	w1, [x19,56]
	.loc 1 562 0
	str	w0, [x19,60]
.L21:
	.loc 1 565 0
	ldp	x19, x20, [sp,16]
	.cfi_remember_state
	.cfi_restore 20
	.cfi_restore 19
.LVL41:
	ldr	x21, [sp,32]
	.cfi_restore 21
	ldp	x29, x30, [sp], 48
	.cfi_restore 30
	.cfi_restore 29
	.cfi_def_cfa 31, 0
	ret
.LVL42:
.L27:
	.cfi_restore_state
.LBB25:
	.loc 1 547 0
	ldr	w4, [x19,76]
	.loc 1 548 0
	add	w2, w0, 15
	.loc 1 550 0
	ldr	w5, [x19,168]
	.loc 1 548 0
	lsr	w2, w2, 4
	lsl	w3, w4, 4
	.loc 1 551 0
	str	w5, [x19,136]
	.loc 1 553 0
	add	w6, w5, w4
	.loc 1 555 0
	str	w5, [x19,176]
	.loc 1 550 0
	madd	w2, w3, w2, w5
	str	w2, [x19,172]
	.loc 1 554 0
	add	w4, w2, w4
	.loc 1 552 0
	str	w2, [x19,140]
	.loc 1 553 0
	str	w6, [x19,144]
	.loc 1 554 0
	str	w4, [x19,148]
	.loc 1 556 0
	str	w2, [x19,180]
	b	.L23
.LBE25:
	.cfi_endproc
.LFE2318:
	.size	VP8_SetImgFormat, .-VP8_SetImgFormat
	.align	2
	.global	VP8DEC_VDMPostProc
	.type	VP8DEC_VDMPostProc, %function
VP8DEC_VDMPostProc:
.LFB2319:
	.loc 1 569 0
	.cfi_startproc
.LVL43:
	stp	x29, x30, [sp, -64]!
	.cfi_def_cfa_offset 64
	.cfi_offset 29, -64
	.cfi_offset 30, -56
	add	x29, sp, 0
	.cfi_def_cfa_register 29
	stp	x19, x20, [sp,16]
	.cfi_offset 19, -48
	.cfi_offset 20, -40
	mov	x20, x0
	.loc 1 578 0
	mov	w0, 13
.LVL44:
	.loc 1 569 0
	stp	x21, x22, [sp,32]
	.loc 1 579 0
	add	x19, x20, 3224
	.cfi_offset 21, -32
	.cfi_offset 22, -24
	.loc 1 569 0
	mov	w21, w1
	.loc 1 578 0
	mov	x1, x20
.LVL45:
	.loc 1 569 0
	str	x23, [sp,48]
	.cfi_offset 23, -16
	.loc 1 578 0
	bl	ReleasePacket
.LVL46:
	.loc 1 579 0
	ldr	w0, [x20,8808]
	ldr	w1, [x19,4952]
	bl	FSP_GetFsImagePtr
.LVL47:
	.loc 1 581 0
	cbz	x0, .L103
	.loc 1 587 0
	tbnz	w21, #31, .L31
	.loc 1 587 0 is_stmt 0 discriminator 1
	cmp	w21, 100
	mov	w2, 100
	csel	w2, w21, w2, le
	.loc 1 587 0 discriminator 4
	str	w2, [x0,84]
	.loc 1 588 0 is_stmt 1
	ldr	x0, [x20]
.LVL48:
	ldr	w3, [x0,4]
	cmp	w2, w3
	bhi	.L104
	.loc 1 598 0
	mov	x0, x20
	bl	VP8_SetImgFormat
.LVL49:
	.loc 1 600 0
	ldr	w0, [x19,4916]
	cmp	w0, 2
	beq	.L105
.L33:
	.loc 1 600 0 is_stmt 0 discriminator 3
	ldr	w0, [x20,3292]
	cbnz	w0, .L35
.L34:
	.loc 1 602 0 is_stmt 1
	mov	w0, -1
	str	w0, [x19,4956]
	.loc 1 603 0
	ldr	w1, [x19,4952]
	mov	w2, 0
	ldr	w0, [x20,8808]
	bl	FSP_SetDisplay
.LVL50:
	ldr	w1, [x19,4956]
.L36:
	.loc 1 610 0
	cmn	w1, #1
	beq	.L37
	.loc 1 612 0
	ldr	w0, [x20,8808]
	bl	FSP_GetFsImagePtr
.LVL51:
	mov	x22, x0
.LVL52:
	.loc 1 613 0
	cbz	x0, .L106
	.loc 1 619 0
	ldr	w0, [x20,8808]
	mov	w2, 1
	ldr	w1, [x19,4956]
	bl	FSP_SetDisplay
.LVL53:
	.loc 1 620 0
	ldr	w0, [x20,8808]
	mov	w1, 13
	mov	x2, x20
	add	x3, x20, 8192
	mov	x4, x22
	bl	InsertImgToVoQueue
.LVL54:
	.loc 1 621 0
	cmp	w0, 1
	.loc 1 620 0
	mov	w21, w0
.LVL55:
	.loc 1 621 0
	bne	.L107
.LVL56:
.L37:
	.loc 1 633 0
	ldr	w0, [x19,4920]
	add	x21, x20, 3232
.LVL57:
	.loc 1 637 0
	ldr	w1, [x19,4960]
	.loc 1 633 0
	add	w0, w0, 1
	str	w0, [x19,4920]
	.loc 1 635 0
	ldr	w22, [x19,4948]
.LVL58:
	.loc 1 637 0
	cbnz	w1, .L108
	.loc 1 639 0
	ldr	w0, [x19,4940]
.LVL59:
	cmp	w22, w0
	beq	.L43
.LVL60:
.L41:
	.loc 1 639 0 is_stmt 0 discriminator 1
	ldr	w0, [x19,4944]
	cmp	w22, w0
	beq	.L43
	.loc 1 639 0 discriminator 2
	ldr	w1, [x19,4952]
	cmp	w22, w1
	cset	w23, ne
.L42:
	.loc 1 645 0 is_stmt 1
	str	w1, [x19,4948]
	.loc 1 646 0
	mov	w2, 1
	ldr	w0, [x20,8808]
	bl	FSP_SetRef
.LVL61:
.L40:
	.loc 1 650 0
	ldrb	w0, [x21,44]
	cmp	w0, 1
	beq	.L109
	.loc 1 661 0
	cmp	w0, 2
	beq	.L110
.L46:
	.loc 1 673 0
	ldrb	w0, [x21,43]
	cmp	w0, 1
	beq	.L111
	.loc 1 684 0
	cmp	w0, 2
	beq	.L112
.L51:
	.loc 1 696 0
	ldr	w0, [x19,4960]
	cbz	w0, .L54
	.loc 1 696 0 is_stmt 0 discriminator 1
	ldrb	w0, [x21,41]
	cbz	w0, .L55
.L54:
	.loc 1 698 0 is_stmt 1
	ldr	w2, [x19,4940]
	ldr	w0, [x19,4948]
	cmp	w2, w0
	beq	.L101
	.loc 1 698 0 is_stmt 0 discriminator 1
	ldr	w0, [x19,4944]
	cmp	w2, w0
	beq	.L101
	.loc 1 698 0 discriminator 2
	ldr	w1, [x19,4952]
	cmp	w2, w1
	beq	.L57
	.loc 1 700 0 is_stmt 1
	ldr	w0, [x20,8808]
	mov	w1, w2
	mov	w2, 0
	bl	FSP_SetRef
.LVL62:
.L101:
	ldr	w1, [x19,4952]
.L57:
	.loc 1 703 0
	str	w1, [x19,4940]
	.loc 1 704 0
	mov	w2, 1
	ldr	w0, [x20,8808]
	bl	FSP_SetRef
.LVL63:
.L55:
	.loc 1 708 0
	ldr	w0, [x21,56]
	cbz	w0, .L59
	.loc 1 708 0 is_stmt 0 discriminator 1
	ldrb	w0, [x21,42]
	cbz	w0, .L60
.L59:
	.loc 1 710 0 is_stmt 1
	ldr	w2, [x19,4944]
	ldr	w0, [x19,4948]
	cmp	w2, w0
	beq	.L102
	.loc 1 710 0 is_stmt 0 discriminator 1
	ldr	w0, [x19,4940]
	cmp	w2, w0
	beq	.L102
	.loc 1 710 0 discriminator 2
	ldr	w1, [x19,4952]
	cmp	w2, w1
	beq	.L62
	.loc 1 712 0 is_stmt 1
	ldr	w0, [x20,8808]
	mov	w1, w2
	mov	w2, 0
	bl	FSP_SetRef
.LVL64:
.L102:
	ldr	w1, [x19,4952]
.L62:
	.loc 1 715 0
	str	w1, [x19,4944]
	.loc 1 716 0
	mov	w2, 1
	ldr	w0, [x20,8808]
	bl	FSP_SetRef
.LVL65:
.L60:
	.loc 1 723 0
	mov	w21, 1
	.loc 1 718 0
	cbnz	w23, .L113
.LVL66:
.L88:
	.loc 1 724 0
	mov	w0, w21
	ldr	x23, [sp,48]
	.cfi_remember_state
	.cfi_restore 23
.LVL67:
	ldp	x19, x20, [sp,16]
	.cfi_restore 20
	.cfi_restore 19
.LVL68:
	ldp	x21, x22, [sp,32]
	.cfi_restore 22
	.cfi_restore 21
.LVL69:
	ldp	x29, x30, [sp], 64
	.cfi_restore 30
	.cfi_restore 29
	.cfi_def_cfa 31, 0
	ret
.LVL70:
.L35:
	.cfi_restore_state
	.loc 1 607 0
	ldr	w1, [x19,4952]
	str	w1, [x19,4956]
	b	.L36
.LVL71:
.L108:
	.loc 1 637 0 discriminator 1
	ldrb	w0, [x21,40]
	.loc 1 575 0
	mov	w23, 0
.LVL72:
	.loc 1 637 0 discriminator 1
	cbz	w0, .L40
	.loc 1 639 0
	ldr	w0, [x19,4940]
.LVL73:
	cmp	w22, w0
	bne	.L41
.L43:
	ldr	w1, [x19,4952]
	.loc 1 575 0
	mov	w23, 0
	b	.L42
.LVL74:
.L31:
	.loc 1 587 0 discriminator 4
	str	wzr, [x0,84]
	.loc 1 598 0
	mov	x0, x20
.LVL75:
	bl	VP8_SetImgFormat
.LVL76:
	.loc 1 600 0
	ldr	w0, [x19,4916]
	cmp	w0, 2
	bne	.L33
.L105:
	.loc 1 600 0 is_stmt 0 discriminator 1
	ldr	w0, [x19,4960]
	cbnz	w0, .L34
	b	.L33
.LVL77:
.L111:
	.loc 1 675 0 is_stmt 1
	ldr	w1, [x19,4940]
	ldr	w0, [x19,4948]
	cmp	w1, w0
	beq	.L50
	.loc 1 675 0 is_stmt 0 discriminator 1
	ldr	w0, [x19,4944]
	.loc 1 675 0 discriminator 2
	cmp	w1, w0
	beq	.L50
	cmp	w22, w1
	beq	.L50
	.loc 1 677 0 is_stmt 1
	ldr	w0, [x20,8808]
	mov	w2, 0
	bl	FSP_SetRef
.LVL78:
.L50:
	.loc 1 680 0
	str	w22, [x19,4940]
	.loc 1 681 0
	mov	w1, w22
	mov	w2, 1
	.loc 1 682 0
	mov	w23, 0
	.loc 1 681 0
	ldr	w0, [x20,8808]
	bl	FSP_SetRef
.LVL79:
	b	.L51
.L109:
	.loc 1 652 0
	ldr	w1, [x19,4944]
	ldr	w0, [x19,4948]
	cmp	w1, w0
	beq	.L45
	.loc 1 652 0 is_stmt 0 discriminator 1
	ldr	w0, [x19,4940]
	.loc 1 652 0 discriminator 2
	cmp	w1, w0
	beq	.L45
	cmp	w22, w1
	beq	.L45
	.loc 1 654 0 is_stmt 1
	ldr	w0, [x20,8808]
	mov	w2, 0
	bl	FSP_SetRef
.LVL80:
.L45:
	.loc 1 657 0
	str	w22, [x19,4944]
	.loc 1 658 0
	mov	w1, w22
	mov	w2, 1
	.loc 1 659 0
	mov	w23, 0
	.loc 1 658 0
	ldr	w0, [x20,8808]
	bl	FSP_SetRef
.LVL81:
	b	.L46
.LVL82:
.L107:
	.loc 1 623 0
	ldr	w0, [x20,8808]
	ldr	x1, [x22,248]
	bl	FreeUsdByDec
.LVL83:
	.loc 1 624 0
	str	xzr, [x22,248]
	.loc 1 625 0
	ldr	x1, [x22,256]
	ldr	w0, [x20,8808]
	bl	FreeUsdByDec
.LVL84:
	.loc 1 626 0
	str	xzr, [x22,256]
	.loc 1 627 0
	mov	w2, 0
	ldr	w0, [x20,8808]
	ldr	w1, [x19,4956]
	bl	FSP_SetDisplay
.LVL85:
	.loc 1 628 0
	adrp	x1, .LC3
	mov	w0, 0
	add	x1, x1, :lo12:.LC3
	bl	dprint_linux_kernel
.LVL86:
	.loc 1 724 0
	ldr	x23, [sp,48]
	.cfi_remember_state
	.cfi_restore 23
	mov	w0, w21
.LVL87:
	ldp	x19, x20, [sp,16]
	.cfi_restore 19
	.cfi_restore 20
.LVL88:
	ldp	x21, x22, [sp,32]
	.cfi_restore 21
	.cfi_restore 22
.LVL89:
	ldp	x29, x30, [sp], 64
	.cfi_restore 29
	.cfi_restore 30
	.cfi_def_cfa 31, 0
	ret
.LVL90:
.L112:
	.cfi_restore_state
	.loc 1 686 0
	ldr	w2, [x19,4940]
	ldr	w0, [x19,4948]
	.loc 1 686 0 is_stmt 0 discriminator 1
	ldr	w1, [x19,4944]
	.loc 1 686 0
	cmp	w2, w0
	beq	.L53
	.loc 1 686 0 discriminator 1
	cmp	w2, w1
	beq	.L53
	.loc 1 688 0 is_stmt 1
	ldr	w0, [x20,8808]
	mov	w1, w2
	mov	w2, 0
	bl	FSP_SetRef
.LVL91:
	ldr	w1, [x19,4944]
.L53:
	.loc 1 691 0
	str	w1, [x19,4940]
	.loc 1 692 0
	mov	w2, 1
	ldr	w0, [x20,8808]
	bl	FSP_SetRef
.LVL92:
	b	.L51
.L110:
	.loc 1 663 0
	ldr	w2, [x19,4944]
	ldr	w0, [x19,4948]
	.loc 1 663 0 is_stmt 0 discriminator 1
	ldr	w1, [x19,4940]
	.loc 1 663 0
	cmp	w2, w0
	beq	.L48
	.loc 1 663 0 discriminator 1
	cmp	w2, w1
	beq	.L48
	.loc 1 665 0 is_stmt 1
	ldr	w0, [x20,8808]
	mov	w1, w2
	mov	w2, 0
	bl	FSP_SetRef
.LVL93:
	ldr	w1, [x19,4940]
.L48:
	.loc 1 668 0
	str	w1, [x19,4944]
	.loc 1 669 0
	mov	w2, 1
	ldr	w0, [x20,8808]
	bl	FSP_SetRef
.LVL94:
	b	.L46
.L113:
	.loc 1 720 0
	ldr	w0, [x20,8808]
	mov	w1, w22
	mov	w2, 0
	bl	FSP_SetRef
.LVL95:
	.loc 1 724 0
	ldr	x23, [sp,48]
	.cfi_remember_state
	.cfi_restore 23
.LVL96:
	mov	w0, w21
	ldp	x19, x20, [sp,16]
	.cfi_restore 19
	.cfi_restore 20
.LVL97:
	ldp	x21, x22, [sp,32]
	.cfi_restore 21
	.cfi_restore 22
.LVL98:
	ldp	x29, x30, [sp], 64
	.cfi_restore 29
	.cfi_restore 30
	.cfi_def_cfa 31, 0
	ret
.LVL99:
.L104:
	.cfi_restore_state
	.loc 1 590 0
	adrp	x1, .LC1
	mov	w0, 1
	add	x1, x1, :lo12:.LC1
	.loc 1 595 0
	mov	w21, -1
.LVL100:
	.loc 1 590 0
	bl	dprint_linux_kernel
.LVL101:
	.loc 1 593 0
	ldr	w0, [x20,8808]
	mov	w2, 1
	ldr	w1, [x19,4940]
	bl	FSP_ClearLogicFs
.LVL102:
	.loc 1 593 0 is_stmt 0 discriminator 1
	ldr	w0, [x20,8808]
	mov	w2, 1
	ldr	w1, [x19,4944]
	bl	FSP_ClearLogicFs
.LVL103:
	.loc 1 593 0 discriminator 2
	ldr	w0, [x20,8808]
	mov	w2, 1
	ldr	w1, [x19,4948]
	bl	FSP_ClearLogicFs
.LVL104:
	.loc 1 593 0
	str	wzr, [x19,4940]
	str	wzr, [x19,4944]
	str	wzr, [x19,4948]
	.loc 1 593 0 discriminator 3
	ldr	w0, [x20,8808]
	bl	FSP_GetNullLogicFs
.LVL105:
	.loc 1 594 0 is_stmt 1
	str	wzr, [x19,4920]
	.loc 1 593 0
	str	w0, [x19,4948]
	str	w0, [x19,4944]
	str	w0, [x19,4940]
	.loc 1 595 0
	b	.L88
.LVL106:
.L106:
	.loc 1 615 0
	adrp	x1, .LC2
	mov	w2, 615
	add	x1, x1, :lo12:.LC2
	mov	w0, 0
.LVL107:
	.loc 1 616 0
	mov	w21, -1
.LVL108:
	.loc 1 615 0
	bl	dprint_linux_kernel
.LVL109:
	.loc 1 616 0
	b	.L88
.LVL110:
.L103:
	.loc 1 583 0
	adrp	x1, .LC0
	.loc 1 584 0
	mov	w21, -1
.LVL111:
	.loc 1 583 0
	add	x1, x1, :lo12:.LC0
	bl	dprint_linux_kernel
.LVL112:
	.loc 1 584 0
	b	.L88
	.cfi_endproc
.LFE2319:
	.size	VP8DEC_VDMPostProc, .-VP8DEC_VDMPostProc
	.align	2
	.global	VP8DEC_Init
	.type	VP8DEC_Init, %function
VP8DEC_Init:
.LFB2320:
	.loc 1 742 0
	.cfi_startproc
.LVL113:
	stp	x29, x30, [sp, -48]!
	.cfi_def_cfa_offset 48
	.cfi_offset 29, -48
	.cfi_offset 30, -40
	.loc 1 747 0
	mov	x2, 8816
	.loc 1 742 0
	add	x29, sp, 0
	.cfi_def_cfa_register 29
	stp	x19, x20, [sp,16]
	str	x21, [sp,32]
	.cfi_offset 19, -32
	.cfi_offset 20, -24
	.cfi_offset 21, -16
	.loc 1 742 0
	mov	x19, x0
	mov	x20, x1
	.loc 1 747 0
	mov	w1, 0
.LVL114:
	.loc 1 746 0
	ldr	w21, [x0,8800]
	.loc 1 747 0
	bl	memset
.LVL115:
	.loc 1 748 0
	str	w21, [x19,8800]
	.loc 1 749 0
	add	x0, x19, 8192
	bl	ResetVoQueue
.LVL116:
	.loc 1 751 0
	str	x20, [x19]
	.loc 1 753 0
	mov	x0, x19
	bl	VCTRL_GetChanIDByCtx
.LVL117:
	.loc 1 754 0
	cmn	w0, #1
	.loc 1 753 0
	str	w0, [x19,8808]
	.loc 1 754 0
	beq	.L117
	.loc 1 762 0
	mov	w2, 1024
	str	w2, [x19,8136]
	.loc 1 763 0
	ldr	x2, [x19]
	.loc 1 764 0
	mov	w3, 3
	.loc 1 761 0
	str	wzr, [x19,8148]
	.loc 1 769 0
	mov	w0, 1
	.loc 1 763 0
	ldr	w4, [x2,12]
	str	w4, [x19,8140]
	.loc 1 764 0
	str	w3, [x19,8188]
	.loc 1 765 0
	str	w3, [x19,8152]
	.loc 1 766 0
	str	wzr, [x19,8156]
	.loc 1 767 0
	ldr	w2, [x2,40]
	str	w2, [x19,8160]
.L116:
	.loc 1 770 0
	ldp	x19, x20, [sp,16]
	.cfi_remember_state
	.cfi_restore 20
	.cfi_restore 19
.LVL118:
	ldr	x21, [sp,32]
	.cfi_restore 21
	ldp	x29, x30, [sp], 48
	.cfi_restore 30
	.cfi_restore 29
	.cfi_def_cfa 31, 0
	ret
.LVL119:
.L117:
	.cfi_restore_state
	.loc 1 756 0
	adrp	x1, .LC4
	mov	w0, 0
	add	x1, x1, :lo12:.LC4
	bl	dprint_linux_kernel
.LVL120:
	.loc 1 757 0
	mov	w0, -20
	b	.L116
	.cfi_endproc
.LFE2320:
	.size	VP8DEC_Init, .-VP8DEC_Init
	.align	2
	.global	VP8DEC_Destroy
	.type	VP8DEC_Destroy, %function
VP8DEC_Destroy:
.LFB2321:
	.loc 1 774 0
	.cfi_startproc
.LVL121:
	.loc 1 776 0
	mov	w0, 1
.LVL122:
	ret
	.cfi_endproc
.LFE2321:
	.size	VP8DEC_Destroy, .-VP8DEC_Destroy
	.align	2
	.global	VP8_setup_version
	.type	VP8_setup_version, %function
VP8_setup_version:
.LFB2322:
	.loc 1 780 0
	.cfi_startproc
.LVL123:
	.loc 1 781 0
	ldr	w1, [x0,64]
	cmp	w1, 3
	bls	.L127
.L120:
	.loc 1 813 0
	mov	w1, 0
	.loc 1 809 0
	str	wzr, [x0,76]
	.loc 1 810 0
	str	wzr, [x0,80]
	.loc 1 811 0
	str	wzr, [x0,84]
	.loc 1 812 0
	str	wzr, [x0,88]
	str	w1, [x0,92]
	.loc 1 826 0
	ret
.L127:
	.loc 1 781 0
	adrp	x2, .L122
	add	x2, x2, :lo12:.L122
	ldrb	w1, [x2,w1,uxtw]
	adr	x2, .Lrtx122
	add	x1, x2, w1, sxtb #2
	br	x1
.Lrtx122:
	.section	.rodata
	.align	0
	.align	2
.L122:
	.byte	(.L120 - .Lrtx122) / 4
	.byte	(.L123 - .Lrtx122) / 4
	.byte	(.L124 - .Lrtx122) / 4
	.byte	(.L125 - .Lrtx122) / 4
	.text
.L124:
	.loc 1 796 0
	mov	w2, 1
	.loc 1 797 0
	str	wzr, [x0,80]
	.loc 1 800 0
	mov	w1, w2
	.loc 1 796 0
	str	w2, [x0,76]
	.loc 1 798 0
	str	w2, [x0,84]
	.loc 1 799 0
	str	wzr, [x0,88]
	str	w1, [x0,92]
	.loc 1 826 0
	ret
.L123:
	.loc 1 791 0
	mov	w2, 1
	.loc 1 790 0
	str	wzr, [x0,76]
	.loc 1 794 0
	mov	w1, w2
	.loc 1 791 0
	str	w2, [x0,80]
	.loc 1 792 0
	str	w2, [x0,84]
	.loc 1 793 0
	str	wzr, [x0,88]
	str	w1, [x0,92]
	.loc 1 826 0
	ret
.L125:
	.loc 1 802 0
	mov	w2, 1
	str	w2, [x0,76]
	.loc 1 806 0
	mov	w1, w2
	.loc 1 803 0
	str	w2, [x0,80]
	.loc 1 804 0
	str	w2, [x0,84]
	.loc 1 805 0
	str	w2, [x0,88]
	str	w1, [x0,92]
	.loc 1 826 0
	ret
	.cfi_endproc
.LFE2322:
	.size	VP8_setup_version, .-VP8_setup_version
	.align	2
	.global	read_mvcontexts
	.type	read_mvcontexts, %function
read_mvcontexts:
.LFB2323:
	.loc 1 830 0
	.cfi_startproc
.LVL124:
	stp	x29, x30, [sp, -144]!
	.cfi_def_cfa_offset 144
	.cfi_offset 29, -144
	.cfi_offset 30, -136
	add	x29, sp, 0
	.cfi_def_cfa_register 29
	stp	x21, x22, [sp,32]
	.cfi_offset 21, -112
	.cfi_offset 22, -104
	mov	x22, x0
.LBB32:
	.loc 1 835 0
	adrp	x0, .LANCHOR2
.LVL125:
	add	x0, x0, :lo12:.LANCHOR2
.LBE32:
	.loc 1 830 0
	mov	x21, x1
	stp	x27, x28, [sp,80]
	.cfi_offset 27, -64
	.cfi_offset 28, -56
.LBB61:
.LBB33:
.LBB34:
.LBB35:
.LBB36:
.LBB37:
	.loc 1 481 0
	adrp	x28, .LANCHOR0
.LBE37:
.LBE36:
.LBE35:
.LBE34:
.LBE33:
	.loc 1 835 0
	str	x0, [x29,96]
.LBE61:
	.loc 1 830 0
	stp	x19, x20, [sp,16]
.LBB62:
.LBB58:
.LBB55:
.LBB52:
.LBB45:
.LBB38:
	.loc 1 481 0
	add	x0, x28, :lo12:.LANCHOR0
.LBE38:
.LBE45:
.LBE52:
.LBE55:
.LBE58:
.LBE62:
	.loc 1 830 0
	str	x2, [x29,104]
	stp	x23, x24, [sp,48]
	stp	x25, x26, [sp,64]
	.cfi_offset 19, -128
	.cfi_offset 20, -120
	.cfi_offset 23, -96
	.cfi_offset 24, -88
	.cfi_offset 25, -80
	.cfi_offset 26, -72
	.loc 1 831 0
	str	wzr, [x29,128]
.LBB63:
.LBB59:
.LBB56:
.LBB53:
.LBB46:
.LBB39:
	.loc 1 481 0
	str	x0, [x29,136]
.LVL126:
.L136:
.LBE39:
.LBE46:
.LBE53:
.LBE56:
.LBE59:
	.loc 1 835 0
	ldr	w2, [x29,128]
.LVL127:
	.loc 1 836 0
	mov	x27, 0
	ldr	x3, [x29,104]
.LVL128:
	.loc 1 835 0
	sxtw	x1, w2
.LVL129:
	lsl	x0, x1, 4
	add	x0, x0, x1, lsl 2
	sub	x0, x0, x1
	.loc 1 836 0
	mov	w1, w2
	mov	w2, 19
	smaddl	x1, w1, w2, x3
.LVL130:
	str	x1, [x29,112]
	.loc 1 835 0
	ldr	x1, [x29,96]
.LVL131:
	add	x0, x1, x0
.LVL132:
	str	x0, [x29,120]
	b	.L135
.LVL133:
.L129:
	add	x27, x27, 1
	.loc 1 848 0
	cmp	x27, 19
	beq	.L147
.LVL134:
.L135:
	.loc 1 841 0
	ldr	x0, [x29,120]
	mov	x1, x21
.LVL135:
	ldrb	w2, [x0,x27]
	mov	x0, x22
.LVL136:
	bl	Vp8_Vfmw_DecodeBool
.LVL137:
	cbz	w0, .L129
	ldr	w19, [x22,8]
	mov	w25, 0
	ldr	w20, [x22]
	mov	w23, 6
	ldr	w28, [x22,4]
.LVL138:
	b	.L133
.LVL139:
.L131:
.LBB60:
.LBB57:
.LBB54:
	.loc 1 508 0 discriminator 3
	sub	w23, w23, #1
.LBB47:
.LBB40:
	.loc 1 495 0
	str	w19, [x22,8]
	.loc 1 496 0
	str	w20, [x22]
.LBE40:
.LBE47:
	.loc 1 508 0 discriminator 1
	cmn	w23, #1
.LBB48:
.LBB41:
	.loc 1 497 0
	str	w28, [x22,4]
.LBE41:
.LBE48:
	.loc 1 510 0
	orr	w25, w24, w25
	.loc 1 508 0 discriminator 1
	beq	.L148
.L133:
.LBB49:
.LBB42:
	.loc 1 470 0
	sub	w0, w20, #1
	.loc 1 474 0
	mov	w24, 0
	.loc 1 470 0
	ubfx	x0, x0, 1, 24
	add	w0, w0, 1
	.loc 1 471 0
	lsl	w1, w0, 16
.LVL140:
	.loc 1 474 0
	cmp	w1, w28
	bhi	.L130
	.loc 1 477 0
	sub	w28, w28, w1
	mov	w1, 1
.LVL141:
	.loc 1 476 0
	sub	w0, w20, w0
	lsl	w24, w1, w23
.LVL142:
.L130:
	.loc 1 481 0
	ldr	x1, [x29,136]
.LVL143:
	add	x1, x1, 1096
	ldrb	w1, [x1,w0,uxtw]
	.loc 1 486 0
	subs	w19, w19, w1
	.loc 1 482 0
	lsl	w20, w0, w1
	.loc 1 483 0
	lsl	w28, w28, w1
	.loc 1 486 0
	bpl	.L131
	.loc 1 488 0 discriminator 1
	mov	w0, 8
	subs	w0, w0, w19
	str	w0, [x29,132]
	bmi	.L131
	mov	w26, w0
.L132:
	.loc 1 491 0
	mov	x0, x21
	mov	w1, 8
	bl	BsGet
.LVL144:
	lsl	w0, w0, w26
	.loc 1 488 0 discriminator 1
	subs	w26, w26, #8
	.loc 1 491 0
	orr	w28, w28, w0
	.loc 1 488 0 discriminator 1
	bpl	.L132
	ldr	w0, [x29,132]
	add	w19, w19, 8
.LBE42:
.LBE49:
	.loc 1 508 0 discriminator 3
	sub	w23, w23, #1
.LBB50:
.LBB43:
	.loc 1 496 0
	str	w20, [x22]
	and	w26, w0, -8
.LBE43:
.LBE50:
	.loc 1 508 0 discriminator 1
	cmn	w23, #1
	add	w19, w19, w26
.LBB51:
.LBB44:
	.loc 1 497 0
	str	w28, [x22,4]
	.loc 1 495 0
	str	w19, [x22,8]
.LBE44:
.LBE51:
	.loc 1 510 0
	orr	w25, w24, w25
	.loc 1 508 0 discriminator 1
	bne	.L133
.L148:
.LBE54:
.LBE57:
	.loc 1 845 0 discriminator 1
	ubfiz	w1, w25, 1, 7
	cmp	w25, wzr
	.loc 1 845 0 is_stmt 0 discriminator 2
	mov	w0, 1
	.loc 1 845 0 discriminator 1
	csel	w0, w1, w0, ne
	.loc 1 845 0 discriminator 4
	ldr	x1, [x29,112]
.LVL145:
	strb	w0, [x1,x27]
	add	x27, x27, 1
.LBE60:
	.loc 1 848 0 is_stmt 1
	cmp	x27, 19
	bne	.L135
.L147:
.LBE63:
	.loc 1 850 0
	ldr	w0, [x29,128]
	cbz	w0, .L139
	.loc 1 851 0
	ldp	x19, x20, [sp,16]
	.cfi_remember_state
	.cfi_restore 20
	.cfi_restore 19
	ldp	x21, x22, [sp,32]
	.cfi_restore 22
	.cfi_restore 21
.LVL146:
	ldp	x23, x24, [sp,48]
	.cfi_restore 24
	.cfi_restore 23
.LVL147:
	ldp	x25, x26, [sp,64]
	.cfi_restore 26
	.cfi_restore 25
.LVL148:
	ldp	x27, x28, [sp,80]
	.cfi_restore 28
	.cfi_restore 27
.LVL149:
	ldp	x29, x30, [sp], 144
	.cfi_restore 30
	.cfi_restore 29
	.cfi_def_cfa 31, 0
	ret
.LVL150:
.L139:
	.cfi_restore_state
	mov	w0, 1
	str	w0, [x29,128]
	b	.L136
	.cfi_endproc
.LFE2323:
	.size	read_mvcontexts, .-read_mvcontexts
	.align	2
	.global	VP8_mb_mode_mv_init
	.type	VP8_mb_mode_mv_init, %function
VP8_mb_mode_mv_init:
.LFB2324:
	.loc 1 855 0
	.cfi_startproc
.LVL151:
	stp	x29, x30, [sp, -128]!
	.cfi_def_cfa_offset 128
	.cfi_offset 29, -128
	.cfi_offset 30, -120
	add	x29, sp, 0
	.cfi_def_cfa_register 29
	stp	x19, x20, [sp,16]
	stp	x21, x22, [sp,32]
	stp	x23, x24, [sp,48]
	stp	x25, x26, [sp,64]
	stp	x27, x28, [sp,80]
	.cfi_offset 19, -112
	.cfi_offset 20, -104
	.cfi_offset 21, -96
	.cfi_offset 22, -88
	.cfi_offset 23, -80
	.cfi_offset 24, -72
	.cfi_offset 25, -64
	.cfi_offset 26, -56
	.cfi_offset 27, -48
	.cfi_offset 28, -40
	.loc 1 859 0
	ldr	w19, [x0,56]
	cbnz	w19, .L177
	.loc 1 892 0
	ldp	x19, x20, [sp,16]
	.cfi_remember_state
	.cfi_restore 20
	.cfi_restore 19
	ldp	x21, x22, [sp,32]
	.cfi_restore 22
	.cfi_restore 21
	ldp	x23, x24, [sp,48]
	.cfi_restore 24
	.cfi_restore 23
	ldp	x25, x26, [sp,64]
	.cfi_restore 26
	.cfi_restore 25
	ldp	x27, x28, [sp,80]
	.cfi_restore 28
	.cfi_restore 27
	ldp	x29, x30, [sp], 128
	.cfi_restore 30
	.cfi_restore 29
	.cfi_def_cfa 31, 0
	ret
.L177:
	.cfi_restore_state
	mov	x20, x2
	mov	x21, x1
	str	x0, [x29,112]
	mov	w22, 0
.LVL152:
	mov	w19, 7
.LVL153:
.L151:
.LBB78:
.LBB79:
	.loc 1 510 0
	mov	x0, x21
.LVL154:
	mov	x1, x20
	mov	w2, -128
	bl	Vp8_Vfmw_DecodeBool
.LVL155:
	lsl	w0, w0, w19
	.loc 1 508 0 discriminator 3
	sub	w19, w19, #1
	.loc 1 510 0
	orr	w22, w0, w22
	.loc 1 508 0 discriminator 1
	cmn	w19, #1
	bne	.L151
.LBE79:
.LBE78:
	.loc 1 864 0
	ldr	x0, [x29,112]
.LVL156:
.LBB80:
.LBB81:
	.loc 1 508 0
	mov	w19, 7
.LVL157:
.LBE81:
.LBE80:
	.loc 1 864 0
	strb	w22, [x0,50]
.LBB83:
.LBB82:
	.loc 1 506 0
	mov	w22, 0
.LVL158:
.L152:
	.loc 1 510 0
	mov	x0, x21
.LVL159:
	mov	x1, x20
	mov	w2, -128
	bl	Vp8_Vfmw_DecodeBool
.LVL160:
	lsl	w0, w0, w19
	.loc 1 508 0 discriminator 3
	sub	w19, w19, #1
	.loc 1 510 0
	orr	w22, w0, w22
	.loc 1 508 0 discriminator 1
	cmn	w19, #1
	bne	.L152
.LBE82:
.LBE83:
	.loc 1 865 0
	ldr	x0, [x29,112]
.LVL161:
.LBB84:
.LBB85:
	.loc 1 508 0
	mov	w19, 7
.LVL162:
.LBE85:
.LBE84:
	.loc 1 865 0
	strb	w22, [x0,51]
.LBB87:
.LBB86:
	.loc 1 506 0
	mov	w22, 0
.LVL163:
.L153:
	.loc 1 510 0
	mov	x0, x21
.LVL164:
	mov	x1, x20
	mov	w2, -128
	bl	Vp8_Vfmw_DecodeBool
.LVL165:
	lsl	w0, w0, w19
	.loc 1 508 0 discriminator 3
	sub	w19, w19, #1
	.loc 1 510 0
	orr	w22, w0, w22
	.loc 1 508 0 discriminator 1
	cmn	w19, #1
	bne	.L153
.LBE86:
.LBE87:
	.loc 1 866 0
	ldr	x0, [x29,112]
.LVL166:
	.loc 1 868 0
	mov	x1, x20
	mov	w2, -128
	.loc 1 866 0
	strb	w22, [x0,52]
	.loc 1 868 0
	mov	x0, x21
.LVL167:
	bl	Vp8_Vfmw_DecodeBool
.LVL168:
	.loc 1 869 0
	cmp	w0, 1
	beq	.L154
.LVL169:
.L159:
	.loc 1 880 0
	mov	x0, x21
	mov	x1, x20
	mov	w2, -128
	bl	Vp8_Vfmw_DecodeBool
.LVL170:
	cbz	w0, .L156
	ldr	x0, [x29,112]
.LVL171:
.LBB88:
.LBB89:
.LBB90:
.LBB91:
.LBB92:
	.loc 1 481 0
	adrp	x27, .LANCHOR0
	add	x27, x27, :lo12:.LANCHOR0
	add	x1, x0, 1314
	add	x0, x0, 1317
.LVL172:
	str	x1, [x29,104]
	str	x0, [x29,96]
.LVL173:
.L164:
	ldr	w19, [x21,8]
.LVL174:
.LBE92:
.LBE91:
	.loc 1 506 0
	mov	w25, 0
	ldr	w22, [x21]
.LVL175:
	.loc 1 508 0
	mov	w23, 7
	ldr	w28, [x21,4]
.LVL176:
	b	.L163
.LVL177:
.L161:
	.loc 1 508 0 is_stmt 0 discriminator 3
	sub	w23, w23, #1
.LBB98:
.LBB93:
	.loc 1 495 0 is_stmt 1
	str	w19, [x21,8]
	.loc 1 496 0
	str	w22, [x21]
.LBE93:
.LBE98:
	.loc 1 508 0 discriminator 1
	cmn	w23, #1
.LBB99:
.LBB94:
	.loc 1 497 0
	str	w28, [x21,4]
.LBE94:
.LBE99:
	.loc 1 510 0
	orr	w25, w24, w25
	.loc 1 508 0 discriminator 1
	beq	.L178
.L163:
.LBB100:
.LBB95:
	.loc 1 470 0
	sub	w0, w22, #1
	.loc 1 474 0
	mov	w24, 0
	.loc 1 470 0
	ubfx	x0, x0, 1, 24
	add	w0, w0, 1
	.loc 1 471 0
	lsl	w1, w0, 16
.LVL178:
	.loc 1 474 0
	cmp	w1, w28
	bhi	.L160
	.loc 1 477 0
	sub	w28, w28, w1
	mov	w1, 1
.LVL179:
	.loc 1 476 0
	sub	w0, w22, w0
	lsl	w24, w1, w23
.LVL180:
.L160:
	.loc 1 481 0
	add	x1, x27, 1096
.LVL181:
	ldrb	w1, [x1,w0,uxtw]
	.loc 1 486 0
	subs	w19, w19, w1
	.loc 1 482 0
	lsl	w22, w0, w1
	.loc 1 483 0
	lsl	w28, w28, w1
	.loc 1 486 0
	bpl	.L161
	.loc 1 488 0 discriminator 1
	mov	w0, 8
	subs	w0, w0, w19
	str	w0, [x29,124]
	bmi	.L161
	mov	w26, w0
.L162:
	.loc 1 491 0
	mov	x0, x20
	mov	w1, 8
	bl	BsGet
.LVL182:
	lsl	w0, w0, w26
	.loc 1 488 0 discriminator 1
	subs	w26, w26, #8
	.loc 1 491 0
	orr	w28, w28, w0
	.loc 1 488 0 discriminator 1
	bpl	.L162
	ldr	w0, [x29,124]
	add	w19, w19, 8
.LBE95:
.LBE100:
	.loc 1 508 0 discriminator 3
	sub	w23, w23, #1
.LBB101:
.LBB96:
	.loc 1 496 0
	str	w22, [x21]
	and	w26, w0, -8
.LBE96:
.LBE101:
	.loc 1 508 0 discriminator 1
	cmn	w23, #1
	add	w19, w19, w26
.LBB102:
.LBB97:
	.loc 1 497 0
	str	w28, [x21,4]
	.loc 1 495 0
	str	w19, [x21,8]
.LBE97:
.LBE102:
	.loc 1 510 0
	orr	w25, w24, w25
	.loc 1 508 0 discriminator 1
	bne	.L163
.L178:
.LBE90:
.LBE89:
	.loc 1 886 0
	ldr	x0, [x29,104]
	.loc 1 888 0 discriminator 1
	ldr	x1, [x29,96]
	.loc 1 886 0
	strb	w25, [x0],1
	str	x0, [x29,104]
	.loc 1 888 0 discriminator 1
	cmp	x0, x1
	bne	.L164
.LVL183:
.L156:
.LBE88:
	.loc 1 891 0
	ldr	x2, [x29,112]
.LVL184:
	mov	x0, x21
	mov	x1, x20
	add	x2, x2, 2374
.LVL185:
	bl	read_mvcontexts
.LVL186:
	.loc 1 892 0
	ldp	x19, x20, [sp,16]
	.cfi_remember_state
	.cfi_restore 19
	.cfi_restore 20
.LVL187:
	ldp	x21, x22, [sp,32]
	.cfi_restore 21
	.cfi_restore 22
.LVL188:
	ldp	x23, x24, [sp,48]
	.cfi_restore 23
	.cfi_restore 24
.LVL189:
	ldp	x25, x26, [sp,64]
	.cfi_restore 25
	.cfi_restore 26
.LVL190:
	ldp	x27, x28, [sp,80]
	.cfi_restore 27
	.cfi_restore 28
.LVL191:
	ldp	x29, x30, [sp], 128
	.cfi_restore 29
	.cfi_restore 30
	.cfi_def_cfa 31, 0
	ret
.LVL192:
.L154:
	.cfi_restore_state
	ldr	x0, [x29,112]
.LVL193:
	add	x23, x0, 1310
	add	x24, x0, 1314
.LVL194:
.L158:
.LBB103:
.LBB104:
.LBB105:
	.loc 1 506 0
	mov	w22, 0
.LVL195:
	.loc 1 508 0
	mov	w19, 7
.LVL196:
.L157:
	.loc 1 510 0
	mov	x0, x21
.LVL197:
	mov	x1, x20
	mov	w2, -128
	bl	Vp8_Vfmw_DecodeBool
.LVL198:
	lsl	w0, w0, w19
	.loc 1 508 0 discriminator 3
	sub	w19, w19, #1
	.loc 1 510 0
	orr	w22, w0, w22
	.loc 1 508 0 discriminator 1
	cmn	w19, #1
	bne	.L157
.LBE105:
.LBE104:
	.loc 1 875 0
	strb	w22, [x23],1
	.loc 1 877 0 discriminator 1
	cmp	x23, x24
	bne	.L158
	b	.L159
.LBE103:
	.cfi_endproc
.LFE2324:
	.size	VP8_mb_mode_mv_init, .-VP8_mb_mode_mv_init
	.align	2
	.global	get_delta_q
	.type	get_delta_q, %function
get_delta_q:
.LFB2325:
	.loc 1 896 0
	.cfi_startproc
.LVL199:
	stp	x29, x30, [sp, -112]!
	.cfi_def_cfa_offset 112
	.cfi_offset 29, -112
	.cfi_offset 30, -104
	add	x29, sp, 0
	.cfi_def_cfa_register 29
	stp	x21, x22, [sp,32]
	stp	x25, x26, [sp,64]
	str	w2, [x29,104]
	.loc 1 899 0
	mov	w2, -128
.LVL200:
	.loc 1 896 0
	stp	x19, x20, [sp,16]
	stp	x23, x24, [sp,48]
	stp	x27, x28, [sp,80]
	.cfi_offset 21, -80
	.cfi_offset 22, -72
	.cfi_offset 25, -48
	.cfi_offset 26, -40
	.cfi_offset 19, -96
	.cfi_offset 20, -88
	.cfi_offset 23, -64
	.cfi_offset 24, -56
	.cfi_offset 27, -32
	.cfi_offset 28, -24
	.loc 1 896 0
	mov	x22, x0
	mov	x21, x1
	str	x3, [x29,96]
	.loc 1 897 0
	mov	w25, 0
	.loc 1 899 0
	bl	Vp8_Vfmw_DecodeBool
.LVL201:
	cbnz	w0, .L191
.LVL202:
.L180:
	.loc 1 908 0
	ldr	w0, [x29,104]
.LVL203:
	cmp	w25, w0
	beq	.L185
	.loc 1 909 0
	ldr	x1, [x29,96]
.LVL204:
	mov	w0, 1
.LVL205:
	str	w0, [x1]
.LVL206:
.L185:
	.loc 1 912 0
	mov	w0, w25
.LVL207:
	ldp	x19, x20, [sp,16]
	.cfi_remember_state
	.cfi_restore 20
	.cfi_restore 19
	ldp	x21, x22, [sp,32]
	.cfi_restore 22
	.cfi_restore 21
.LVL208:
	ldp	x23, x24, [sp,48]
	.cfi_restore 24
	.cfi_restore 23
.LVL209:
	ldp	x25, x26, [sp,64]
	.cfi_restore 26
	.cfi_restore 25
	ldp	x27, x28, [sp,80]
	.cfi_restore 28
	.cfi_restore 27
.LVL210:
	ldp	x29, x30, [sp], 112
	.cfi_restore 30
	.cfi_restore 29
	.cfi_def_cfa 31, 0
	ret
.LVL211:
.L191:
	.cfi_restore_state
.LBB110:
.LBB111:
.LBB112:
.LBB113:
	.loc 1 481 0
	adrp	x27, .LANCHOR0
	ldr	w19, [x22,8]
	ldr	w20, [x22]
.LBE113:
.LBE112:
.LBE111:
.LBE110:
	.loc 1 899 0
	mov	w23, 3
.LVL212:
	ldr	w28, [x22,4]
.LBB127:
.LBB126:
.LBB120:
.LBB114:
	.loc 1 481 0
	add	x27, x27, :lo12:.LANCHOR0
	b	.L184
.LVL213:
.L182:
.LBE114:
.LBE120:
	.loc 1 508 0 discriminator 3
	sub	w23, w23, #1
.LBB121:
.LBB115:
	.loc 1 495 0
	str	w19, [x22,8]
	.loc 1 496 0
	str	w20, [x22]
.LBE115:
.LBE121:
	.loc 1 508 0 discriminator 1
	cmn	w23, #1
.LBB122:
.LBB116:
	.loc 1 497 0
	str	w28, [x22,4]
.LBE116:
.LBE122:
	.loc 1 510 0
	orr	w25, w24, w25
	.loc 1 508 0 discriminator 1
	beq	.L192
.L184:
.LBB123:
.LBB117:
	.loc 1 470 0
	sub	w0, w20, #1
	.loc 1 474 0
	mov	w24, 0
	.loc 1 470 0
	ubfx	x0, x0, 1, 24
	add	w0, w0, 1
	.loc 1 471 0
	lsl	w1, w0, 16
.LVL214:
	.loc 1 474 0
	cmp	w1, w28
	bhi	.L181
	.loc 1 477 0
	sub	w28, w28, w1
	mov	w1, 1
.LVL215:
	.loc 1 476 0
	sub	w0, w20, w0
	lsl	w24, w1, w23
.LVL216:
.L181:
	.loc 1 481 0
	add	x1, x27, 1096
.LVL217:
	ldrb	w1, [x1,w0,uxtw]
	.loc 1 486 0
	subs	w19, w19, w1
	.loc 1 482 0
	lsl	w20, w0, w1
	.loc 1 483 0
	lsl	w28, w28, w1
	.loc 1 486 0
	bpl	.L182
	.loc 1 488 0 discriminator 1
	mov	w0, 8
	subs	w0, w0, w19
	str	w0, [x29,108]
	bmi	.L182
	mov	w26, w0
.L183:
	.loc 1 491 0
	mov	x0, x21
	mov	w1, 8
	bl	BsGet
.LVL218:
	lsl	w0, w0, w26
	.loc 1 488 0 discriminator 1
	subs	w26, w26, #8
	.loc 1 491 0
	orr	w28, w28, w0
	.loc 1 488 0 discriminator 1
	bpl	.L183
	ldr	w0, [x29,108]
	add	w19, w19, 8
.LBE117:
.LBE123:
	.loc 1 508 0 discriminator 3
	sub	w23, w23, #1
.LBB124:
.LBB118:
	.loc 1 496 0
	str	w20, [x22]
	and	w26, w0, -8
.LBE118:
.LBE124:
	.loc 1 508 0 discriminator 1
	cmn	w23, #1
	add	w19, w19, w26
.LBB125:
.LBB119:
	.loc 1 497 0
	str	w28, [x22,4]
	.loc 1 495 0
	str	w19, [x22,8]
.LBE119:
.LBE125:
	.loc 1 510 0
	orr	w25, w24, w25
	.loc 1 508 0 discriminator 1
	bne	.L184
.L192:
.LBE126:
.LBE127:
	.loc 1 903 0
	mov	x1, x21
	mov	x0, x22
	mov	w2, -128
	bl	Vp8_Vfmw_DecodeBool
.LVL219:
	cmp	w0, wzr
	cset	w0, ne
	neg	w1, w0
	eor	w25, w1, w25
	add	w25, w25, w0
	b	.L180
	.cfi_endproc
.LFE2325:
	.size	get_delta_q, .-get_delta_q
	.align	2
	.global	VP8_init_frame
	.type	VP8_init_frame, %function
VP8_init_frame:
.LFB2326:
	.loc 1 916 0
	.cfi_startproc
.LVL220:
	stp	x29, x30, [sp, -16]!
	.cfi_def_cfa_offset 16
	.cfi_offset 29, -16
	.cfi_offset 30, -8
	add	x29, sp, 0
	.cfi_def_cfa_register 29
	.loc 1 917 0
	ldr	w1, [x0,56]
	cbnz	w1, .L193
	bl	VP8_init_frame.part.0
.LVL221:
.L193:
	.loc 1 945 0
	ldp	x29, x30, [sp], 16
	.cfi_restore 30
	.cfi_restore 29
	.cfi_def_cfa 31, 0
	ret
	.cfi_endproc
.LFE2326:
	.size	VP8_init_frame, .-VP8_init_frame
	.align	2
	.global	VP8_GetPictureHeader
	.type	VP8_GetPictureHeader, %function
VP8_GetPictureHeader:
.LFB2327:
	.loc 1 948 0
	.cfi_startproc
.LVL222:
	stp	x29, x30, [sp, -208]!
	.cfi_def_cfa_offset 208
	.cfi_offset 29, -208
	.cfi_offset 30, -200
	add	x29, sp, 0
	.cfi_def_cfa_register 29
	stp	x19, x20, [sp,16]
	.cfi_offset 19, -192
	.cfi_offset 20, -184
	mov	x19, x1
	.loc 1 957 0
	mov	w1, 8
.LVL223:
	.loc 1 948 0
	str	x2, [x29,168]
	adrp	x2, __stack_chk_guard
.LVL224:
	stp	x21, x22, [sp,32]
	stp	x23, x24, [sp,48]
	ldr	x3, [x2,#:lo12:__stack_chk_guard]
	.loc 1 961 0
	add	x2, x19, 2460
	.loc 1 948 0
	str	x3, [x29,200]
	.loc 1 954 0
	mov	w3, 7
	str	w3, [x29,192]
	mov	w3, 6
	.cfi_offset 21, -176
	.cfi_offset 22, -168
	.cfi_offset 23, -160
	.cfi_offset 24, -152
	.loc 1 961 0
	mov	x24, x2
	str	x2, [x29,136]
	.loc 1 948 0
	mov	x22, x0
	.loc 1 954 0
	str	w3, [x29,196]
	.loc 1 948 0
	stp	x25, x26, [sp,64]
	stp	x27, x28, [sp,80]
	.cfi_offset 25, -144
	.cfi_offset 26, -136
	.cfi_offset 27, -128
	.cfi_offset 28, -120
	.loc 1 957 0
	bl	BsGet
.LVL225:
	mov	w20, w0
	.loc 1 958 0
	mov	w1, 8
	mov	x0, x22
	.loc 1 957 0
	uxtb	w21, w20
	.loc 1 958 0
	bl	BsGet
.LVL226:
	mov	w23, w0
	.loc 1 959 0
	mov	w1, 8
	mov	x0, x22
	.loc 1 964 0
	ubfiz	w23, w23, 8, 8
	.loc 1 959 0
	bl	BsGet
.LVL227:
	.loc 1 964 0
	ubfiz	w0, w0, 16, 8
	and	w1, w20, 255
	orr	w0, w23, w0
	.loc 1 961 0
	and	w20, w20, 1
	.loc 1 964 0
	orr	w0, w0, w1
	.loc 1 961 0
	str	w20, [x24,56]
	.loc 1 964 0
	asr	w0, w0, 5
	.loc 1 966 0
	ldr	x2, [x29,168]
.LVL228:
	.loc 1 962 0
	ubfx	x1, x21, 1, 3
	.loc 1 961 0
	str	w20, [x19,4960]
	.loc 1 963 0
	ubfx	x21, x21, 4, 1
	.loc 1 962 0
	str	w1, [x24,64]
	.loc 1 966 0
	cmp	w0, w2
	.loc 1 963 0
	str	w21, [x24,60]
	.loc 1 964 0
	str	w0, [x24,68]
	.loc 1 966 0
	bhi	.L300
	.loc 1 972 0
	ldr	x20, [x29,136]
	mov	x0, x20
	bl	VP8_setup_version
.LVL229:
	.loc 1 974 0
	ldr	w0, [x20,56]
	cbz	w0, .L301
.LVL230:
.L199:
	.loc 1 950 0
	add	x21, x19, 2600
.LVL231:
.LBB149:
.LBB150:
	.loc 1 450 0
	mov	w0, 255
	str	w0, [x19,2600]
	.loc 1 451 0
	mov	w2, 16
	.loc 1 452 0
	mov	x0, x22
	mov	w1, 24
	.loc 1 451 0
	str	w2, [x21,8]
	.loc 1 452 0
	bl	BsGet
.LVL232:
	str	w0, [x21,4]
.LBE150:
.LBE149:
	.loc 1 1029 0
	ldr	x0, [x29,136]
	ldr	w0, [x0,56]
	cbz	w0, .L302
	.loc 1 1036 0
	mov	x1, x22
	mov	x0, x21
	mov	w2, -128
	bl	Vp8_Vfmw_DecodeBool
.LVL233:
	uxtb	w0, w0
	ldr	x1, [x29,136]
	strb	w0, [x1,14]
	.loc 1 1038 0
	cbnz	w0, .L208
.LVL234:
.L214:
	.loc 1 1096 0
	mov	x1, x22
	mov	x0, x21
	mov	w2, -128
.LBB151:
.LBB152:
	.loc 1 506 0
	mov	w23, 0
.LVL235:
	.loc 1 508 0
	mov	w20, 5
.LVL236:
.LBE152:
.LBE151:
	.loc 1 1096 0
	bl	Vp8_Vfmw_DecodeBool
.LVL237:
	ldr	x1, [x29,136]
	str	w0, [x1,136]
.L209:
.LBB154:
.LBB153:
	.loc 1 510 0
	mov	x0, x21
	mov	x1, x22
	mov	w2, -128
	bl	Vp8_Vfmw_DecodeBool
.LVL238:
	lsl	w0, w0, w20
	.loc 1 508 0 discriminator 3
	sub	w20, w20, #1
	.loc 1 510 0
	orr	w23, w0, w23
	.loc 1 508 0 discriminator 1
	cmn	w20, #1
	bne	.L209
.LBE153:
.LBE154:
	.loc 1 1097 0
	ldr	x0, [x29,136]
.LBB155:
.LBB156:
	.loc 1 508 0
	mov	w20, 2
.LVL239:
.LBE156:
.LBE155:
	.loc 1 1097 0
	strb	w23, [x0,10]
.LBB158:
.LBB157:
	.loc 1 506 0
	mov	w23, 0
.LVL240:
.L217:
	.loc 1 510 0
	mov	x0, x21
	mov	x1, x22
	mov	w2, -128
	bl	Vp8_Vfmw_DecodeBool
.LVL241:
	lsl	w0, w0, w20
	.loc 1 508 0 discriminator 3
	sub	w20, w20, #1
	.loc 1 510 0
	orr	w23, w0, w23
	.loc 1 508 0 discriminator 1
	cmn	w20, #1
	bne	.L217
.LBE157:
.LBE158:
	.loc 1 1098 0
	ldr	x20, [x29,136]
.LVL242:
	.loc 1 1102 0
	mov	x0, x21
	mov	x1, x22
	mov	w2, -128
	.loc 1 1098 0
	strb	w23, [x20,11]
	.loc 1 1101 0
	strb	wzr, [x20,1]
	.loc 1 1102 0
	bl	Vp8_Vfmw_DecodeBool
.LVL243:
	uxtb	w0, w0
	strb	w0, [x20,2]
	.loc 1 1104 0
	cbnz	w0, .L218
.L220:
.LBB159:
.LBB160:
	.loc 1 510 0
	mov	w2, -128
	mov	x1, x22
	mov	x0, x21
.LBE160:
.LBE159:
.LBB162:
.LBB163:
.LBB164:
	.loc 1 506 0
	mov	w23, 0
.LVL244:
	.loc 1 508 0
	mov	w20, 6
.LVL245:
.LBE164:
.LBE163:
.LBE162:
.LBB169:
.LBB161:
	.loc 1 510 0
	bl	Vp8_Vfmw_DecodeBool
.LVL246:
	mov	w24, w0
	mov	x1, x22
	mov	x0, x21
	mov	w2, -128
	bl	Vp8_Vfmw_DecodeBool
.LVL247:
	orr	w0, w0, w24, lsl 1
.LBE161:
.LBE169:
	.loc 1 1145 0
	ldr	x1, [x29,136]
	strb	w0, [x1,13]
.L219:
.LBB170:
.LBB167:
.LBB165:
	.loc 1 510 0
	mov	x0, x21
	mov	x1, x22
	mov	w2, -128
	bl	Vp8_Vfmw_DecodeBool
.LVL248:
	lsl	w0, w0, w20
	.loc 1 508 0 discriminator 3
	sub	w20, w20, #1
	.loc 1 510 0
	orr	w23, w0, w23
	.loc 1 508 0 discriminator 1
	cmn	w20, #1
	bne	.L219
.LBE165:
.LBE167:
	.loc 1 1153 0
	add	x20, x29, 208
.LVL249:
	.loc 1 1154 0
	ldr	x24, [x29,136]
	mov	x1, x22
	mov	x0, x21
	.loc 1 1153 0
	str	wzr, [x20,-20]!
.LVL250:
	.loc 1 1154 0
	ldrsb	w2, [x24,5]
	mov	x3, x20
	.loc 1 1152 0
	strb	w23, [x24,3]
	.loc 1 1154 0
	bl	get_delta_q
.LVL251:
	strb	w0, [x24,5]
	.loc 1 1155 0
	ldrsb	w2, [x24,6]
	mov	x1, x22
	mov	x3, x20
	mov	x0, x21
	bl	get_delta_q
.LVL252:
	strb	w0, [x24,6]
	.loc 1 1156 0
	ldrsb	w2, [x24,7]
	mov	x1, x22
	mov	x3, x20
	mov	x0, x21
	bl	get_delta_q
.LVL253:
	strb	w0, [x24,7]
	.loc 1 1157 0
	ldrsb	w2, [x24,8]
	mov	x1, x22
	mov	x3, x20
	mov	x0, x21
	bl	get_delta_q
.LVL254:
	strb	w0, [x24,8]
	.loc 1 1158 0
	ldrsb	w2, [x24,9]
	mov	x1, x22
	mov	x0, x21
	mov	x3, x20
	bl	get_delta_q
.LVL255:
	strb	w0, [x24,9]
.LBE170:
	.loc 1 1165 0
	ldr	w1, [x24,56]
	cbnz	w1, .L303
	.loc 1 1186 0
	mov	x1, x22
	mov	x0, x21
	mov	w2, -128
	bl	Vp8_Vfmw_DecodeBool
.LVL256:
	uxtb	w0, w0
	ldr	x1, [x29,136]
	strb	w0, [x1,45]
	.loc 1 1187 0
	cbz	w0, .L304
.L232:
	.loc 1 1192 0
	ldr	x1, [x29,136]
	ldr	w0, [x1,56]
	cbnz	w0, .L233
.L310:
	.loc 1 1194 0
	mov	w0, 1
	strb	w0, [x1,40]
.L234:
	add	x0, x19, 297
	str	x0, [x29,112]
	adrp	x0, .LANCHOR2
.LBB171:
.LBB172:
.LBB173:
	.loc 1 481 0
	adrp	x27, .LANCHOR0
	add	x0, x0, :lo12:.LANCHOR2
	add	x0, x0, 40
	str	x0, [x29,104]
	add	x0, x19, 1353
	str	x0, [x29,96]
	add	x0, x27, :lo12:.LANCHOR0
	str	x0, [x29,168]
.LVL257:
.L235:
	ldr	x0, [x29,112]
	sub	x0, x0, #264
	str	x0, [x29,128]
.LBE173:
.LBE172:
.LBB176:
.LBB177:
.LBB178:
.LBB179:
	.loc 1 488 0 discriminator 1
	ldr	x0, [x29,104]
	str	x0, [x29,120]
.L249:
	ldr	x0, [x29,128]
	sub	x0, x0, #33
	str	x0, [x29,144]
	ldr	x0, [x29,120]
	str	x0, [x29,160]
.L247:
.LBE179:
.LBE178:
.LBE177:
.LBE176:
.LBE171:
.LBB194:
.LBB168:
.LBB166:
	.loc 1 508 0
	mov	x24, 0
	b	.L244
.LVL258:
.L237:
.LBE166:
.LBE168:
.LBE194:
.LBB195:
.LBB191:
.LBB174:
	.loc 1 496 0
	str	w19, [x21]
	.loc 1 495 0
	str	w20, [x21,8]
	.loc 1 497 0
	str	w26, [x21,4]
.LBE174:
.LBE191:
	.loc 1 1214 0
	cbnz	w23, .L305
.L239:
	add	x24, x24, 1
.LBE195:
	.loc 1 1210 0 discriminator 1
	cmp	x24, 11
	beq	.L306
.LVL259:
.L244:
.LBB196:
.LBB192:
.LBB175:
	.loc 1 470 0
	ldr	x0, [x29,160]
	.loc 1 458 0
	mov	w23, 0
.LVL260:
	.loc 1 467 0
	ldr	w1, [x21]
	.loc 1 468 0
	ldr	w25, [x21,4]
	.loc 1 470 0
	ldrb	w26, [x0,x24]
.LVL261:
	sub	w19, w1, #1
.LVL262:
	.loc 1 466 0
	ldr	w20, [x21,8]
	.loc 1 470 0
	mul	w19, w26, w19
	lsr	w19, w19, 8
	add	w19, w19, 1
	.loc 1 471 0
	lsl	w0, w19, 16
.LVL263:
	.loc 1 474 0
	cmp	w25, w0
	bcc	.L236
	.loc 1 476 0
	sub	w19, w1, w19
	.loc 1 477 0
	sub	w25, w25, w0
	.loc 1 478 0
	mov	w23, 1
.L236:
	.loc 1 481 0
	ldr	x0, [x29,168]
.LVL264:
	add	x0, x0, 1096
	ldrb	w26, [x0,w19,uxtw]
	.loc 1 486 0
	subs	w20, w20, w26
	.loc 1 482 0
	lsl	w19, w19, w26
	.loc 1 483 0
	lsl	w26, w25, w26
	.loc 1 486 0
	bpl	.L237
	.loc 1 488 0 discriminator 1
	mov	w0, 8
	subs	w25, w0, w20
	bmi	.L237
	mov	w28, w25
.LVL265:
.L238:
	.loc 1 491 0
	mov	x0, x22
	mov	w1, 8
	bl	BsGet
.LVL266:
	lsl	w0, w0, w28
	.loc 1 488 0 discriminator 1
	subs	w28, w28, #8
	.loc 1 491 0
	orr	w26, w26, w0
	.loc 1 488 0 discriminator 1
	bpl	.L238
	add	w20, w20, 8
	and	w25, w25, -8
	add	w20, w20, w25
	.loc 1 496 0
	str	w19, [x21]
	.loc 1 495 0
	str	w20, [x21,8]
	.loc 1 497 0
	str	w26, [x21,4]
.LBE175:
.LBE192:
	.loc 1 1214 0
	cbz	w23, .L239
.LVL267:
.L305:
	mov	w28, w26
	mov	w23, 7
.LVL268:
	mov	w26, 0
.LVL269:
	b	.L243
.L241:
.LBB193:
.LBB190:
	.loc 1 508 0 discriminator 3
	sub	w23, w23, #1
.LBB185:
.LBB180:
	.loc 1 495 0
	str	w20, [x21,8]
	.loc 1 496 0
	str	w19, [x21]
.LBE180:
.LBE185:
	.loc 1 508 0 discriminator 1
	cmn	w23, #1
.LBB186:
.LBB181:
	.loc 1 497 0
	str	w28, [x21,4]
.LBE181:
.LBE186:
	.loc 1 510 0
	orr	w26, w25, w26
	.loc 1 508 0 discriminator 1
	beq	.L307
.L243:
.LBB187:
.LBB182:
	.loc 1 470 0
	sub	w0, w19, #1
	.loc 1 474 0
	mov	w25, 0
	.loc 1 470 0
	ubfx	x0, x0, 1, 24
	add	w0, w0, 1
	.loc 1 471 0
	lsl	w1, w0, 16
.LVL270:
	.loc 1 474 0
	cmp	w1, w28
	bhi	.L240
	.loc 1 477 0
	sub	w28, w28, w1
	mov	w1, 1
.LVL271:
	.loc 1 476 0
	sub	w0, w19, w0
	lsl	w25, w1, w23
.LVL272:
.L240:
	.loc 1 481 0
	ldr	x1, [x29,168]
.LVL273:
	add	x1, x1, 1096
	ldrb	w1, [x1,w0,uxtw]
	.loc 1 486 0
	subs	w20, w20, w1
	.loc 1 482 0
	lsl	w19, w0, w1
	.loc 1 483 0
	lsl	w28, w28, w1
	.loc 1 486 0
	bpl	.L241
	.loc 1 488 0 discriminator 1
	mov	w0, 8
	subs	w0, w0, w20
	str	w0, [x29,156]
	bmi	.L241
	mov	w27, w0
.L242:
	.loc 1 491 0
	mov	x0, x22
	mov	w1, 8
	bl	BsGet
.LVL274:
	lsl	w0, w0, w27
	.loc 1 488 0 discriminator 1
	subs	w27, w27, #8
	.loc 1 491 0
	orr	w28, w28, w0
	.loc 1 488 0 discriminator 1
	bpl	.L242
	ldr	w0, [x29,156]
	add	w20, w20, 8
.LBE182:
.LBE187:
	.loc 1 508 0 discriminator 3
	sub	w23, w23, #1
.LBB188:
.LBB183:
	.loc 1 496 0
	str	w19, [x21]
	and	w0, w0, -8
.LBE183:
.LBE188:
	.loc 1 508 0 discriminator 1
	cmn	w23, #1
	add	w20, w20, w0
.LBB189:
.LBB184:
	.loc 1 497 0
	str	w28, [x21,4]
	.loc 1 495 0
	str	w20, [x21,8]
.LBE184:
.LBE189:
	.loc 1 510 0
	orr	w26, w25, w26
	.loc 1 508 0 discriminator 1
	bne	.L243
.L307:
	ldr	x0, [x29,144]
	add	x0, x0, x24
	add	x24, x24, 1
.LBE190:
.LBE193:
.LBE196:
	.loc 1 1210 0 discriminator 1
	cmp	x24, 11
.LBB197:
	.loc 1 1216 0
	strb	w26, [x0,3778]
.LBE197:
	.loc 1 1210 0 discriminator 1
	bne	.L244
.LVL275:
.L306:
	ldr	x1, [x29,160]
	ldr	x0, [x29,144]
	add	x1, x1, 11
	str	x1, [x29,160]
	.loc 1 1208 0 discriminator 1
	ldr	x1, [x29,128]
	add	x0, x0, 11
	str	x0, [x29,144]
	cmp	x1, x0
	bne	.L247
	ldr	x1, [x29,120]
	ldr	x0, [x29,128]
	add	x1, x1, 33
	str	x1, [x29,120]
	.loc 1 1206 0 discriminator 1
	ldr	x1, [x29,112]
	add	x0, x0, 33
	str	x0, [x29,128]
	cmp	x0, x1
	bne	.L249
	ldr	x1, [x29,104]
	ldr	x0, [x29,128]
	add	x1, x1, 264
	str	x1, [x29,104]
	.loc 1 1204 0 discriminator 1
	ldr	x1, [x29,96]
	add	x0, x0, 264
	str	x0, [x29,112]
	cmp	x0, x1
	bne	.L235
	.loc 1 1225 0
	mov	x1, x22
	mov	x0, x21
	mov	w2, -128
	bl	Vp8_Vfmw_DecodeBool
.LVL276:
	ldr	x1, [x29,136]
	str	w0, [x1,72]
	.loc 1 1227 0
	cbnz	w0, .L308
	.loc 1 1233 0
	ldr	x0, [x29,136]
	strb	wzr, [x0,53]
.L251:
	.loc 1 1235 0
	ldr	x19, [x29,136]
	mov	x1, x21
	mov	x2, x22
	mov	x0, x19
	bl	VP8_mb_mode_mv_init
.LVL277:
	.loc 1 1238 0
	ldr	w0, [x19,56]
	cbz	w0, .L252
	.loc 1 1239 0
	ldr	x0, [x29,136]
	ldr	w1, [x0,40]
	.loc 1 1244 0
	mov	w0, 1
	.loc 1 1239 0
	tst	w1, 16776960
	beq	.L197
.L252:
	.loc 1 1241 0
	ldr	x2, [x29,136]
	.loc 1 1244 0
	mov	w0, 1
	.loc 1 1241 0
	ldrb	w1, [x2,3]
	strb	w1, [x2,4]
	.loc 1 1245 0
	adrp	x1, __stack_chk_guard
	ldr	x2, [x29,200]
	ldr	x1, [x1,#:lo12:__stack_chk_guard]
	cmp	x2, x1
	beq	.L253
.LVL278:
.L309:
	bl	__stack_chk_fail
.LVL279:
.L301:
	.loc 1 977 0
	mov	w1, 8
	mov	x0, x22
	bl	BsGet
.LVL280:
	mov	w21, w0
	.loc 1 978 0
	mov	w1, 8
	mov	x0, x22
	bl	BsGet
.LVL281:
	mov	w20, w0
	.loc 1 979 0
	mov	w1, 8
	mov	x0, x22
	bl	BsGet
.LVL282:
	mov	w4, w0
	.loc 1 982 0
	uxtb	w1, w20
	uxtb	w0, w21
	cmp	w1, 1
	cset	w1, ne
	cmp	w0, 157
	cset	w0, ne
	.loc 1 982 0 is_stmt 0 discriminator 1
	orr	w0, w1, w0
	cbnz	w0, .L258
	uxtb	w0, w4
	cmp	w0, 42
	beq	.L200
.L258:
	.loc 1 984 0 is_stmt 1
	adrp	x1, .LC6
	mov	w0, 1
	add	x1, x1, :lo12:.LC6
	uxtb	w2, w21
	uxtb	w3, w20
	uxtb	w4, w4
	bl	dprint_linux_kernel
.LVL283:
	.loc 1 986 0
	mov	w0, 0
.LVL284:
.L197:
	.loc 1 1245 0
	adrp	x1, __stack_chk_guard
	ldr	x2, [x29,200]
	ldr	x1, [x1,#:lo12:__stack_chk_guard]
	cmp	x2, x1
	bne	.L309
.L253:
	ldp	x19, x20, [sp,16]
	.cfi_remember_state
	.cfi_restore 20
	.cfi_restore 19
.LVL285:
	ldp	x21, x22, [sp,32]
	.cfi_restore 22
	.cfi_restore 21
.LVL286:
	ldp	x23, x24, [sp,48]
	.cfi_restore 24
	.cfi_restore 23
.LVL287:
	ldp	x25, x26, [sp,64]
	.cfi_restore 26
	.cfi_restore 25
.LVL288:
	ldp	x27, x28, [sp,80]
	.cfi_restore 28
	.cfi_restore 27
.LVL289:
	ldp	x29, x30, [sp], 208
	.cfi_restore 30
	.cfi_restore 29
	.cfi_def_cfa 31, 0
	ret
.LVL290:
.L302:
	.cfi_restore_state
	.loc 1 1031 0
	mov	x1, x22
	mov	w2, -128
	mov	x0, x21
	bl	Vp8_Vfmw_DecodeBool
.LVL291:
	ldr	x20, [x29,136]
.LVL292:
	.loc 1 1032 0
	mov	x1, x22
	mov	w2, -128
	.loc 1 1031 0
	str	w0, [x20,128]
	.loc 1 1032 0
	mov	x0, x21
	bl	Vp8_Vfmw_DecodeBool
.LVL293:
	str	w0, [x20,132]
	.loc 1 1036 0
	mov	x1, x22
	mov	x0, x21
	mov	w2, -128
	bl	Vp8_Vfmw_DecodeBool
.LVL294:
	uxtb	w0, w0
	ldr	x1, [x29,136]
	strb	w0, [x1,14]
	.loc 1 1038 0
	cbz	w0, .L214
	b	.L208
.LVL295:
.L233:
	.loc 1 1198 0
	mov	x1, x22
	mov	x0, x21
	mov	w2, -128
	bl	Vp8_Vfmw_DecodeBool
.LVL296:
	ldr	x1, [x29,136]
	strb	w0, [x1,40]
	b	.L234
.L304:
	.loc 1 1189 0
	add	x1, x19, 3761
	add	x0, x19, 2612
	mov	x2, 1149
	bl	memcpy
.LVL297:
	.loc 1 1192 0
	ldr	x1, [x29,136]
	ldr	w0, [x1,56]
	cbz	w0, .L310
	b	.L233
.L303:
	.loc 1 1168 0
	mov	x1, x22
	mov	w2, -128
	mov	x0, x21
	bl	Vp8_Vfmw_DecodeBool
.LVL298:
	ldr	x20, [x29,136]
	.loc 1 1169 0
	mov	x1, x22
	mov	w2, -128
	.loc 1 1168 0
	strb	w0, [x20,41]
	.loc 1 1169 0
	mov	x0, x21
	bl	Vp8_Vfmw_DecodeBool
.LVL299:
	.loc 1 1172 0
	strb	wzr, [x20,43]
	.loc 1 1174 0
	ldrb	w2, [x20,41]
	.loc 1 1169 0
	uxtb	w1, w0
	strb	w1, [x20,42]
	.loc 1 1174 0
	cbnz	w2, .L230
	.loc 1 1175 0
	mov	x1, x22
	mov	w2, 2
	mov	x0, x21
	bl	Vp8_Vfmw_DecodeValue
.LVL300:
	ldr	x2, [x29,136]
	ldrb	w1, [x2,42]
	strb	w0, [x2,43]
.L230:
	.loc 1 1177 0
	ldr	x0, [x29,136]
	strb	wzr, [x0,44]
	.loc 1 1179 0
	cbnz	w1, .L231
	.loc 1 1180 0
	mov	x1, x22
	mov	x0, x21
	mov	w2, 2
	bl	Vp8_Vfmw_DecodeValue
.LVL301:
	ldr	x1, [x29,136]
	strb	w0, [x1,44]
.L231:
	.loc 1 1182 0
	mov	x1, x22
	mov	w2, -128
	mov	x0, x21
	bl	Vp8_Vfmw_DecodeBool
.LVL302:
	ldr	x20, [x29,136]
	.loc 1 1183 0
	mov	x1, x22
	mov	w2, -128
	.loc 1 1182 0
	strb	w0, [x20,48]
	.loc 1 1183 0
	mov	x0, x21
	bl	Vp8_Vfmw_DecodeBool
.LVL303:
	strb	w0, [x20,49]
	.loc 1 1186 0
	mov	x1, x22
	mov	x0, x21
	mov	w2, -128
	bl	Vp8_Vfmw_DecodeBool
.LVL304:
	uxtb	w0, w0
	ldr	x1, [x29,136]
	strb	w0, [x1,45]
	.loc 1 1187 0
	cbnz	w0, .L232
	b	.L304
.LVL305:
.L218:
	.loc 1 1107 0
	mov	x1, x22
	mov	x0, x21
	mov	w2, -128
	bl	Vp8_Vfmw_DecodeBool
.LVL306:
	uxtb	w0, w0
	ldr	x1, [x29,136]
	strb	w0, [x1,1]
	.loc 1 1109 0
	cbz	w0, .L220
	add	x23, x19, 2492
.LVL307:
	add	x20, x19, 2496
	b	.L224
.L222:
	add	x23, x23, 1
	.loc 1 1112 0 discriminator 1
	cmp	x23, x20
	beq	.L311
.L224:
	.loc 1 1114 0
	mov	x1, x22
	mov	x0, x21
	mov	w2, -128
	bl	Vp8_Vfmw_DecodeBool
.LVL308:
	uxtb	w0, w0
	ldr	x1, [x29,136]
	.loc 1 1115 0
	cmp	w0, 1
	.loc 1 1114 0
	strb	w0, [x1,30]
	.loc 1 1115 0
	bne	.L222
	.loc 1 1118 0
	mov	x1, x22
	mov	w2, 6
	mov	x0, x21
	bl	Vp8_Vfmw_DecodeValue
.LVL309:
	strb	w0, [x23]
	.loc 1 1119 0
	mov	x1, x22
	mov	x0, x21
	mov	w2, -128
	bl	Vp8_Vfmw_DecodeBool
.LVL310:
	uxtb	w0, w0
	ldr	x1, [x29,136]
	.loc 1 1120 0
	cmp	w0, 1
	.loc 1 1119 0
	strb	w0, [x1,12]
	.loc 1 1120 0
	bne	.L222
	.loc 1 1122 0
	ldrb	w0, [x23]
	add	x23, x23, 1
	neg	w0, w0
	strb	w0, [x23,-1]
	.loc 1 1112 0 discriminator 1
	cmp	x23, x20
	bne	.L224
.L311:
	add	x23, x19, 2500
	b	.L228
.L226:
	add	x20, x20, 1
	.loc 1 1128 0 discriminator 1
	cmp	x20, x23
	beq	.L220
.L228:
	.loc 1 1130 0
	mov	x1, x22
	mov	x0, x21
	mov	w2, -128
	bl	Vp8_Vfmw_DecodeBool
.LVL311:
	uxtb	w0, w0
	ldr	x1, [x29,136]
	.loc 1 1131 0
	cmp	w0, 1
	.loc 1 1130 0
	strb	w0, [x1,31]
	.loc 1 1131 0
	bne	.L226
	.loc 1 1134 0
	mov	x1, x22
	mov	w2, 6
	mov	x0, x21
	bl	Vp8_Vfmw_DecodeValue
.LVL312:
	strb	w0, [x20]
	.loc 1 1136 0
	mov	x1, x22
	mov	x0, x21
	mov	w2, -128
	bl	Vp8_Vfmw_DecodeBool
.LVL313:
	cbz	w0, .L226
	.loc 1 1138 0
	ldrb	w0, [x20]
	neg	w0, w0
	strb	w0, [x20]
	b	.L226
.LVL314:
.L208:
	.loc 1 1041 0
	mov	x1, x22
	mov	w2, -128
	mov	x0, x21
	bl	Vp8_Vfmw_DecodeBool
.LVL315:
	ldr	x20, [x29,136]
.LVL316:
	.loc 1 1042 0
	mov	x1, x22
	mov	w2, -128
	.loc 1 1041 0
	strb	w0, [x20,15]
	.loc 1 1042 0
	mov	x0, x21
	bl	Vp8_Vfmw_DecodeBool
.LVL317:
	uxtb	w0, w0
	strb	w0, [x20,16]
	.loc 1 1044 0
	cbnz	w0, .L312
.LVL318:
.L210:
	.loc 1 1077 0
	ldr	x0, [x29,136]
	ldrb	w0, [x0,15]
	cbz	w0, .L214
	.loc 1 1080 0
	add	x0, x19, 2478
	mov	w1, -1
	mov	x20, x0
	strh	w1, [x19,2478]
	add	x23, x19, 2481
	strb	w1, [x19,2480]
.L216:
	.loc 1 1086 0
	mov	x1, x22
	mov	x0, x21
	mov	w2, -128
	bl	Vp8_Vfmw_DecodeBool
.LVL319:
	uxtb	w0, w0
	ldr	x1, [x29,136]
	.loc 1 1087 0
	cmp	w0, 1
	.loc 1 1086 0
	strb	w0, [x1,21]
	.loc 1 1087 0
	bne	.L215
	.loc 1 1089 0
	mov	x0, x21
	mov	x1, x22
	mov	w2, 8
	bl	Vp8_Vfmw_DecodeValue
.LVL320:
	strb	w0, [x20]
.L215:
	add	x20, x20, 1
	.loc 1 1083 0 discriminator 1
	cmp	x20, x23
	bne	.L216
	b	.L214
.LVL321:
.L300:
	.loc 1 968 0
	adrp	x1, .LC5
	mov	w0, 1
	add	x1, x1, :lo12:.LC5
	bl	dprint_linux_kernel
.LVL322:
	.loc 1 969 0
	mov	w0, 0
	b	.L197
.L200:
	.loc 1 989 0
	mov	w1, 8
	mov	x0, x22
	bl	BsGet
.LVL323:
	mov	w23, w0
	.loc 1 990 0
	mov	w1, 8
	mov	x0, x22
	bl	BsGet
.LVL324:
	mov	w21, w0
	.loc 1 991 0
	mov	w1, 8
	mov	x0, x22
	bl	BsGet
.LVL325:
	mov	w20, w0
	.loc 1 992 0
	mov	w1, 8
	mov	x0, x22
	.loc 1 997 0
	and	w20, w20, 255
	.loc 1 992 0
	bl	BsGet
.LVL326:
	.loc 1 997 0
	ubfiz	w3, w0, 8, 6
	.loc 1 994 0
	ubfiz	w1, w21, 8, 6
	and	w2, w23, 255
	orr	w2, w1, w2
	.loc 1 997 0
	orr	w3, w3, w20
	.loc 1 1002 0
	cmp	w2, 32
	.loc 1 995 0
	add	w4, w2, 15
	.loc 1 998 0
	add	w20, w3, 15
	.loc 1 994 0
	ldr	x7, [x29,136]
	.loc 1 995 0
	lsr	w4, w4, 4
	.loc 1 1002 0
	cset	w6, ls
	.loc 1 998 0
	lsr	w20, w20, 4
	.loc 1 1002 0 discriminator 1
	cmp	w3, 32
	cset	w1, ls
	.loc 1 1003 0
	cmp	w4, 512
	orr	w1, w6, w1
	cset	w6, hi
	.loc 1 1000 0
	mul	w5, w20, w4
	.loc 1 996 0
	ubfx	x21, x21, 6, 2
	.loc 1 999 0
	ubfx	x0, x0, 6, 2
	.loc 1 994 0
	str	w2, [x7,104]
	.loc 1 1003 0 discriminator 1
	orr	w1, w6, w1
	.loc 1 995 0
	str	w4, [x7,96]
	.loc 1 996 0
	str	w21, [x7,112]
	.loc 1 997 0
	str	w3, [x7,108]
	.loc 1 998 0
	str	w20, [x7,100]
	.loc 1 999 0
	str	w0, [x7,116]
	.loc 1 1000 0
	str	w5, [x7,120]
	.loc 1 1003 0 discriminator 1
	cbnz	w1, .L259
	cmp	w20, 512
	bhi	.L259
	.loc 1 1010 0
	ldr	w20, [x19,116]
	.loc 1 1011 0
	ldr	w21, [x19,112]
.LVL327:
	.loc 1 1014 0
	cmp	w3, w20
	bne	.L260
.LVL328:
	cmp	w2, w21
	beq	.L204
.L260:
	.loc 1 1016 0
	adrp	x1, .LC8
	mov	w0, 22
	add	x1, x1, :lo12:.LC8
	bl	dprint_linux_kernel
.LVL329:
	.loc 1 1017 0
	ldr	x1, [x29,136]
	mov	w0, 22
	mov	w2, w21
	mov	w3, w20
	ldr	w4, [x1,96]
	ldr	w5, [x1,100]
	adrp	x1, .LC9
	add	x1, x1, :lo12:.LC9
	bl	dprint_linux_kernel
.LVL330:
.L204:
.LBB198:
.LBB199:
	.loc 1 917 0
	ldr	x1, [x29,136]
	ldr	w0, [x1,56]
	cbnz	w0, .L199
	mov	x0, x1
	bl	VP8_init_frame.part.0
.LVL331:
	b	.L199
.LVL332:
.L259:
.LBE199:
.LBE198:
	.loc 1 1005 0
	adrp	x1, .LC7
	mov	w0, 1
	add	x1, x1, :lo12:.LC7
	bl	dprint_linux_kernel
.LVL333:
	.loc 1 1006 0
	mov	w0, 0
	b	.L197
.LVL334:
.L308:
	.loc 1 1229 0
	mov	x1, x22
	mov	x0, x21
	mov	w2, 8
	bl	Vp8_Vfmw_DecodeValue
.LVL335:
	ldr	x1, [x29,136]
	strb	w0, [x1,53]
	b	.L251
.LVL336:
.L312:
	.loc 1 1046 0
	mov	x1, x22
	mov	w2, -128
	mov	x0, x21
	mov	x20, x19
	.loc 1 1048 0
	mov	x23, 0
	.loc 1 1046 0
	bl	Vp8_Vfmw_DecodeBool
.LVL337:
	ldr	x2, [x29,136]
	.loc 1 1048 0
	add	x1, x19, 2482
	.loc 1 1046 0
	strb	w0, [x2,17]
	.loc 1 1048 0
	str	xzr, [x1]
.LVL338:
.L211:
	add	x25, x20, 4
	b	.L213
.L212:
.LBB200:
	.loc 1 1072 0
	strb	w26, [x20,2482]
	add	x20, x20, 1
.LBE200:
	.loc 1 1053 0 discriminator 1
	cmp	x25, x20
	beq	.L313
.L213:
.LBB201:
	.loc 1 1057 0
	mov	x1, x22
	mov	x0, x21
	mov	w2, -128
	.loc 1 1069 0
	mov	w26, 0
	.loc 1 1057 0
	bl	Vp8_Vfmw_DecodeBool
.LVL339:
	uxtb	w0, w0
	ldr	x1, [x29,136]
	.loc 1 1058 0
	cmp	w0, 1
	.loc 1 1057 0
	strb	w0, [x1]
	.loc 1 1058 0
	bne	.L212
	.loc 1 1061 0
	add	x2, x29, 192
	mov	x1, x22
	mov	x0, x21
	ldr	w2, [x2,x23]
	bl	Vp8_Vfmw_DecodeValue
.LVL340:
	mov	w24, w0
	.loc 1 1062 0
	mov	x1, x22
	mov	x0, x21
	mov	w2, -128
	.loc 1 1061 0
	sxtb	w26, w24
	.loc 1 1062 0
	bl	Vp8_Vfmw_DecodeBool
.LVL341:
	cbz	w0, .L212
	.loc 1 1064 0
	neg	w0, w24
	add	x20, x20, 1
	sxtb	w26, w0
	.loc 1 1072 0
	strb	w26, [x20,2481]
.LBE201:
	.loc 1 1053 0 discriminator 1
	cmp	x25, x20
	bne	.L213
.L313:
	add	x23, x23, 4
	.loc 1 1051 0 discriminator 1
	cmp	x23, 8
	bne	.L211
	b	.L210
	.cfi_endproc
.LFE2327:
	.size	VP8_GetPictureHeader, .-VP8_GetPictureHeader
	.align	2
	.global	VP8_ArrangeVHBMem
	.type	VP8_ArrangeVHBMem, %function
VP8_ArrangeVHBMem:
.LFB2328:
	.loc 1 1249 0
	.cfi_startproc
.LVL342:
	stp	x29, x30, [sp, -80]!
	.cfi_def_cfa_offset 80
	.cfi_offset 29, -80
	.cfi_offset 30, -72
	add	x29, sp, 0
	.cfi_def_cfa_register 29
	stp	x19, x20, [sp,16]
	.cfi_offset 19, -64
	.cfi_offset 20, -56
	.loc 1 1249 0
	mov	x19, x0
	.loc 1 1258 0
	add	x0, x0, 4096
.LVL343:
	add	x0, x0, 1588
	.loc 1 1249 0
	adrp	x20, __stack_chk_guard
	.loc 1 1258 0
	ldr	w3, [x0,108]
	.loc 1 1249 0
	ldr	x1, [x20,#:lo12:__stack_chk_guard]
	str	x1, [x29,72]
	.loc 1 1258 0
	cmp	w3, 31
	ldr	w2, [x0,104]
	bls	.L316
	.loc 1 1258 0 is_stmt 0 discriminator 1
	cmp	w2, 31
	bls	.L316
	.loc 1 1264 0 is_stmt 1
	ldr	x1, [x19]
	ldr	w0, [x1,772]
	cbnz	w0, .L319
	.loc 1 1264 0 is_stmt 0 discriminator 1
	ldr	w0, [x1,28]
	cmp	w0, 25
	beq	.L351
.L320:
	.loc 1 1328 0 is_stmt 1
	stp	xzr, xzr, [x29,48]
	.loc 1 1329 0
	str	w2, [x29,52]
	.loc 1 1333 0
	cmp	w0, 24
	.loc 1 1330 0
	str	w3, [x29,56]
	.loc 1 1331 0
	str	w2, [x29,60]
	.loc 1 1332 0
	str	w3, [x29,64]
	.loc 1 1333 0
	beq	.L352
	.loc 1 1300 0
	mov	w3, 4
.LVL344:
	mov	w1, 5
	.loc 1 1299 0
	mov	w0, w3
.LVL345:
.L327:
	.loc 1 1333 0 discriminator 1
	strb	w0, [x29,49]
	.loc 1 1335 0 discriminator 1
	sxtb	w3, w3
.LVL346:
	.loc 1 1337 0
	ldr	w0, [x19,8808]
.LVL347:
	.loc 1 1334 0
	strb	w1, [x29,50]
	.loc 1 1337 0
	add	x1, x29, 48
	.loc 1 1335 0 discriminator 4
	strb	w3, [x29,51]
	.loc 1 1337 0
	bl	FSP_ConfigInstance
.LVL348:
	cbnz	w0, .L333
.L354:
.LBB202:
	.loc 1 1340 0
	ldr	x2, [x19]
	add	x3, x29, 44
	ldr	w0, [x19,8808]
	ldr	w1, [x2,20]
	ldr	w2, [x2,24]
	bl	FSP_PartitionFsMemory
.LVL349:
	.loc 1 1342 0
	cbnz	w0, .L347
.LBE202:
	.loc 1 1354 0
	mov	w0, 1
	str	w0, [x19,8148]
	.loc 1 1356 0
	b	.L318
.L316:
	.loc 1 1260 0
	adrp	x1, .LC10
	mov	w0, 0
	add	x1, x1, :lo12:.LC10
	bl	dprint_linux_kernel
.LVL350:
	.loc 1 1261 0
	mov	w0, 0
.L318:
	.loc 1 1357 0
	ldr	x2, [x29,72]
	ldr	x1, [x20,#:lo12:__stack_chk_guard]
	cmp	x2, x1
	bne	.L353
	ldp	x19, x20, [sp,16]
	.cfi_remember_state
	.cfi_restore 20
	.cfi_restore 19
.LVL351:
	ldp	x29, x30, [sp], 80
	.cfi_restore 30
	.cfi_restore 29
	.cfi_def_cfa 31, 0
	ret
.LVL352:
.L319:
	.cfi_restore_state
	.loc 1 1295 0
	ldr	w0, [x1,28]
	cmp	w0, 25
	bne	.L320
	.loc 1 1305 0
	ldr	w4, [x1,732]
	ldr	w5, [x1,736]
	cmp	w2, w4
	bhi	.L330
	.loc 1 1305 0 is_stmt 0 discriminator 1
	cmp	w3, w5
	bhi	.L330
	.loc 1 1316 0 is_stmt 1
	ldr	w6, [x1,760]
	.loc 1 1313 0
	mov	w5, w3
	.loc 1 1315 0
	ldr	w0, [x1,756]
	.loc 1 1318 0
	mov	w3, 1
.LVL353:
	.loc 1 1312 0
	mov	w4, w2
	.loc 1 1315 0
	add	w0, w0, w3
.LVL354:
	.loc 1 1316 0
	cbnz	w6, .L348
.LVL355:
.L332:
	.loc 1 1328 0
	stp	xzr, xzr, [x29,48]
	ldrsb	w1, [x1,780]
	.loc 1 1329 0
	str	w4, [x29,52]
	.loc 1 1330 0
	str	w5, [x29,56]
	.loc 1 1331 0
	str	w4, [x29,60]
	.loc 1 1332 0
	str	w5, [x29,64]
	b	.L327
.LVL356:
.L352:
	.loc 1 1334 0
	mov	w0, 5
	strb	w0, [x29,50]
	.loc 1 1337 0
	ldr	w0, [x19,8808]
	.loc 1 1335 0 discriminator 2
	mov	w3, 1
	.loc 1 1337 0
	add	x1, x29, 48
	.loc 1 1335 0 discriminator 4
	strb	w3, [x29,51]
	.loc 1 1337 0
	bl	FSP_ConfigInstance
.LVL357:
	cbz	w0, .L354
.L333:
	.loc 1 1350 0
	adrp	x1, .LC12
	mov	w0, 0
	add	x1, x1, :lo12:.LC12
	bl	dprint_linux_kernel
.LVL358:
.L347:
	.loc 1 1351 0
	mov	w0, 0
	b	.L318
.L351:
	.loc 1 1266 0
	ldr	w4, [x1,732]
	ldr	w5, [x1,736]
	cmp	w2, w4
	bhi	.L330
	.loc 1 1266 0 is_stmt 0 discriminator 1
	cmp	w3, w5
	bhi	.L330
	.loc 1 1278 0 is_stmt 1
	ldr	w0, [x19,8148]
	cmp	w0, 1
	beq	.L318
	.loc 1 1284 0
	ldr	w2, [x1,760]
	.loc 1 1286 0
	mov	w3, 1
.LVL359:
	.loc 1 1283 0
	ldr	w0, [x1,756]
	add	w0, w0, w3
.LVL360:
	.loc 1 1284 0
	cbz	w2, .L332
.L348:
	.loc 1 1323 0
	cmp	w0, 17
	mov	w3, 17
	csel	w3, w0, w3, le
.LVL361:
	b	.L332
.LVL362:
.L330:
	.loc 1 1307 0
	adrp	x1, .LC11
	mov	w0, 0
	add	x1, x1, :lo12:.LC11
	bl	dprint_linux_kernel
.LVL363:
	.loc 1 1310 0
	mov	w0, 0
	b	.L318
.L353:
	.loc 1 1357 0
	bl	__stack_chk_fail
.LVL364:
	.cfi_endproc
.LFE2328:
	.size	VP8_ArrangeVHBMem, .-VP8_ArrangeVHBMem
	.align	2
	.global	VP8_DecodeDecide
	.type	VP8_DecodeDecide, %function
VP8_DecodeDecide:
.LFB2329:
	.loc 1 1360 0
	.cfi_startproc
.LVL365:
	stp	x29, x30, [sp, -32]!
	.cfi_def_cfa_offset 32
	.cfi_offset 29, -32
	.cfi_offset 30, -24
	add	x29, sp, 0
	.cfi_def_cfa_register 29
	stp	x19, x20, [sp,16]
	.cfi_offset 19, -16
	.cfi_offset 20, -8
	.loc 1 1369 0
	add	x19, x0, 3224
	.loc 1 1360 0
	mov	x20, x0
	.loc 1 1369 0
	ldr	w0, [x19,4924]
.LVL366:
	cbz	w0, .L384
	.loc 1 1376 0
	ldr	w0, [x19,4916]
	sub	w0, w0, #2
	cmp	w0, 1
	.loc 1 1377 0
	ldr	x0, [x20]
	ldr	w2, [x0,12]
	.loc 1 1376 0
	bls	.L385
.L359:
	.loc 1 1385 0
	str	w2, [x19,4916]
	.loc 1 1386 0
	cmp	w2, 4
	bls	.L386
	.loc 1 1411 0
	adrp	x1, .LC18
	mov	w0, 1
	add	x1, x1, :lo12:.LC18
	bl	dprint_linux_kernel
.LVL367:
.L365:
	.loc 1 1443 0
	mov	w0, 0
.LVL368:
.L377:
	.loc 1 1445 0
	ldp	x19, x20, [sp,16]
	.cfi_remember_state
	.cfi_restore 20
	.cfi_restore 19
.LVL369:
	ldp	x29, x30, [sp], 32
	.cfi_restore 30
	.cfi_restore 29
	.cfi_def_cfa 31, 0
	ret
.LVL370:
.L386:
	.cfi_restore_state
	.loc 1 1386 0
	adrp	x0, .L363
	add	x0, x0, :lo12:.L363
	ldrb	w0, [x0,w2,uxtw]
	adr	x1, .Lrtx363
	add	x0, x1, w0, sxtb #2
	br	x0
.Lrtx363:
	.section	.rodata
	.align	0
	.align	2
.L363:
	.byte	(.L362 - .Lrtx363) / 4
	.byte	(.L362 - .Lrtx363) / 4
	.byte	(.L364 - .Lrtx363) / 4
	.byte	(.L365 - .Lrtx363) / 4
	.byte	(.L362 - .Lrtx363) / 4
	.text
.L385:
	.loc 1 1376 0 discriminator 1
	cmp	w2, 1
	bls	.L372
	cmp	w2, 4
	bne	.L359
.L372:
	.loc 1 1381 0
	adrp	x1, .LC14
	mov	w0, 2
	add	x1, x1, :lo12:.LC14
	bl	dprint_linux_kernel
.LVL371:
	.loc 1 1382 0
	ldr	w0, [x20,8808]
	mov	w2, 1
	ldr	w1, [x19,4940]
	bl	FSP_ClearLogicFs
.LVL372:
	.loc 1 1382 0 is_stmt 0 discriminator 1
	ldr	w0, [x20,8808]
	mov	w2, 1
	ldr	w1, [x19,4944]
	bl	FSP_ClearLogicFs
.LVL373:
	.loc 1 1382 0 discriminator 2
	ldr	w0, [x20,8808]
	mov	w2, 1
	ldr	w1, [x19,4948]
	bl	FSP_ClearLogicFs
.LVL374:
	.loc 1 1382 0
	str	wzr, [x19,4940]
	str	wzr, [x19,4944]
	str	wzr, [x19,4948]
	.loc 1 1382 0 discriminator 3
	ldr	w0, [x20,8808]
	bl	FSP_GetNullLogicFs
.LVL375:
	.loc 1 1383 0 is_stmt 1
	str	wzr, [x19,4920]
	.loc 1 1382 0
	str	w0, [x19,4948]
	str	w0, [x19,4944]
	str	w0, [x19,4940]
	ldr	x0, [x20]
	ldr	w2, [x0,12]
	b	.L359
.L384:
	.loc 1 1371 0
	adrp	x1, .LC13
	mov	w0, 1
	add	x1, x1, :lo12:.LC13
	bl	dprint_linux_kernel
.LVL376:
	.loc 1 1372 0
	mov	w0, 0
	.loc 1 1445 0
	ldp	x19, x20, [sp,16]
	.cfi_remember_state
	.cfi_restore 19
	.cfi_restore 20
.LVL377:
	ldp	x29, x30, [sp], 32
	.cfi_restore 29
	.cfi_restore 30
	.cfi_def_cfa 31, 0
	ret
.LVL378:
.L364:
	.cfi_restore_state
	.loc 1 1392 0
	ldr	w2, [x19,4960]
	cbnz	w2, .L387
.L366:
	.loc 1 1418 0
	ldr	w1, [x19,4948]
	ldr	w0, [x20,8808]
	bl	FSP_GetFsImagePtr
.LVL379:
	mov	x1, x0
.LVL380:
	.loc 1 1419 0
	cbz	x0, .L388
	.loc 1 1424 0
	ldr	w2, [x19,4960]
	.loc 1 1438 0
	mov	w0, 1
	.loc 1 1424 0
	cbz	w2, .L377
	.loc 1 1426 0 discriminator 1
	ldr	x3, [x20]
	ldr	w2, [x1,84]
	ldr	w3, [x3,4]
	cmp	w2, w3
	bls	.L377
	.loc 1 1428 0
	adrp	x1, .LC20
.LVL381:
	add	x1, x1, :lo12:.LC20
	bl	dprint_linux_kernel
.LVL382:
	.loc 1 1429 0
	mov	w0, 0
	.loc 1 1445 0
	ldp	x19, x20, [sp,16]
	.cfi_remember_state
	.cfi_restore 19
	.cfi_restore 20
.LVL383:
	ldp	x29, x30, [sp], 32
	.cfi_restore 29
	.cfi_restore 30
	.cfi_def_cfa 31, 0
	ret
.LVL384:
.L362:
	.cfi_restore_state
	.loc 1 1401 0
	ldr	w0, [x19,4960]
	cbz	w0, .L366
	.loc 1 1401 0 is_stmt 0 discriminator 1
	ldr	w0, [x19,4920]
	cbnz	w0, .L366
	.loc 1 1403 0 is_stmt 1 discriminator 4
	adrp	x1, .LC16
	adrp	x2, .LC17
	add	x1, x1, :lo12:.LC16
	add	x2, x2, :lo12:.LC17
	mov	w3, 0
	mov	w0, 18
	bl	dprint_linux_kernel
.LVL385:
	b	.L365
.L387:
	.loc 1 1395 0
	adrp	x1, .LC15
	mov	w0, 18
	add	x1, x1, :lo12:.LC15
	bl	dprint_linux_kernel
.LVL386:
	b	.L365
.LVL387:
.L388:
	.loc 1 1421 0
	adrp	x2, .LANCHOR2
	adrp	x1, .LC19
	add	x2, x2, :lo12:.LANCHOR2
	mov	w0, 22
.LVL388:
	add	x1, x1, :lo12:.LC19
	add	x2, x2, 1096
	mov	w3, 1421
	bl	dprint_linux_kernel
.LVL389:
	.loc 1 1422 0
	mov	w0, 0
	b	.L377
	.cfi_endproc
.LFE2329:
	.size	VP8_DecodeDecide, .-VP8_DecodeDecide
	.align	2
	.global	VP8_GetImageBuffer
	.type	VP8_GetImageBuffer, %function
VP8_GetImageBuffer:
.LFB2330:
	.loc 1 1449 0
	.cfi_startproc
.LVL390:
	stp	x29, x30, [sp, -32]!
	.cfi_def_cfa_offset 32
	.cfi_offset 29, -32
	.cfi_offset 30, -24
	.loc 1 1455 0
	mov	w1, 1
	.loc 1 1449 0
	add	x29, sp, 0
	.cfi_def_cfa_register 29
	stp	x19, x20, [sp,16]
	.cfi_offset 19, -16
	.cfi_offset 20, -8
	.loc 1 1455 0
	add	x20, x0, 3224
	.loc 1 1449 0
	mov	x19, x0
	.loc 1 1455 0
	ldr	w0, [x0,8808]
.LVL391:
	bl	FSP_NewLogicFs
.LVL392:
	mov	w1, w0
	str	w0, [x20,4952]
	.loc 1 1456 0
	tbnz	w1, #31, .L396
	.loc 1 1471 0
	ldr	w0, [x19,8808]
	bl	FSP_GetLogicFs
.LVL393:
	mov	x19, x0
.LVL394:
	.loc 1 1472 0
	cbz	x0, .L397
	.loc 1 1478 0
	ldr	w2, [x20,4952]
	adrp	x1, .LC23
	mov	w0, 18
	add	x1, x1, :lo12:.LC23
	bl	dprint_linux_kernel
.LVL395:
	.loc 1 1479 0
	ldr	x0, [x19,296]
	cbz	x0, .L395
	.loc 1 1479 0 is_stmt 0 discriminator 1
	ldr	x1, [x19,304]
	cbz	x1, .L395
	.loc 1 1479 0 discriminator 2
	ldr	x4, [x19,312]
	cbz	x4, .L395
	.loc 1 1481 0 is_stmt 1
	ldr	w2, [x0,12]
	mov	w0, 18
	ldr	w3, [x1,12]
	adrp	x1, .LC24
	ldr	w4, [x4,12]
	add	x1, x1, :lo12:.LC24
	bl	dprint_linux_kernel
.LVL396:
	.loc 1 1488 0
	mov	w0, 1
.L391:
	.loc 1 1490 0
	ldp	x19, x20, [sp,16]
	.cfi_remember_state
	.cfi_restore 20
	.cfi_restore 19
.LVL397:
	ldp	x29, x30, [sp], 32
	.cfi_restore 30
	.cfi_restore 29
	.cfi_def_cfa 31, 0
	ret
.LVL398:
.L395:
	.cfi_restore_state
	.loc 1 1485 0
	mov	w0, 0
	.loc 1 1490 0
	ldp	x19, x20, [sp,16]
	.cfi_remember_state
	.cfi_restore 19
	.cfi_restore 20
.LVL399:
	ldp	x29, x30, [sp], 32
	.cfi_restore 29
	.cfi_restore 30
	.cfi_def_cfa 31, 0
	ret
.LVL400:
.L396:
	.cfi_restore_state
	.loc 1 1459 0
	adrp	x1, .LC21
	mov	w0, 0
	add	x1, x1, :lo12:.LC21
	bl	dprint_linux_kernel
.LVL401:
	.loc 1 1460 0
	ldr	w0, [x19,8808]
	mov	w2, 1
	ldr	w1, [x20,4940]
	bl	FSP_ClearLogicFs
.LVL402:
	.loc 1 1460 0 is_stmt 0 discriminator 1
	ldr	w0, [x19,8808]
	mov	w2, 1
	ldr	w1, [x20,4944]
	bl	FSP_ClearLogicFs
.LVL403:
	.loc 1 1460 0 discriminator 2
	ldr	w1, [x20,4948]
	mov	w2, 1
	ldr	w0, [x19,8808]
	bl	FSP_ClearLogicFs
.LVL404:
	.loc 1 1460 0
	str	wzr, [x20,4940]
	str	wzr, [x20,4944]
	str	wzr, [x20,4948]
	.loc 1 1460 0 discriminator 3
	ldr	w0, [x19,8808]
	bl	FSP_GetNullLogicFs
.LVL405:
	.loc 1 1461 0 is_stmt 1
	str	wzr, [x20,4920]
	.loc 1 1460 0
	str	w0, [x20,4948]
	.loc 1 1466 0
	add	x1, x19, 8192
	.loc 1 1460 0
	str	w0, [x20,4944]
	str	w0, [x20,4940]
	.loc 1 1466 0
	ldr	w0, [x19,8808]
	bl	FSP_ClearNotInVoQueue
.LVL406:
	.loc 1 1468 0
	mov	w0, 0
	.loc 1 1490 0
	ldp	x19, x20, [sp,16]
	.cfi_remember_state
	.cfi_restore 19
	.cfi_restore 20
.LVL407:
	ldp	x29, x30, [sp], 32
	.cfi_restore 29
	.cfi_restore 30
	.cfi_def_cfa 31, 0
	ret
.LVL408:
.L397:
	.cfi_restore_state
	.loc 1 1474 0
	adrp	x1, .LC22
	mov	w0, 22
.LVL409:
	add	x1, x1, :lo12:.LC22
	mov	w2, 1474
	bl	dprint_linux_kernel
.LVL410:
	.loc 1 1475 0
	mov	w0, 0
	b	.L391
	.cfi_endproc
.LFE2330:
	.size	VP8_GetImageBuffer, .-VP8_GetImageBuffer
	.align	2
	.global	VP8_Set_DecParam
	.type	VP8_Set_DecParam, %function
VP8_Set_DecParam:
.LFB2331:
	.loc 1 1494 0
	.cfi_startproc
.LVL411:
	stp	x29, x30, [sp, -176]!
	.cfi_def_cfa_offset 176
	.cfi_offset 29, -176
	.cfi_offset 30, -168
	.loc 1 1515 0
	mov	x2, 3144
	mov	w1, 0
	.loc 1 1494 0
	add	x29, sp, 0
	.cfi_def_cfa_register 29
	stp	x19, x20, [sp,16]
	.cfi_offset 19, -160
	.cfi_offset 20, -152
	adrp	x20, __stack_chk_guard
	.loc 1 1496 0
	add	x19, x0, 16
	.loc 1 1494 0
	stp	x21, x22, [sp,32]
	.cfi_offset 21, -144
	.cfi_offset 22, -136
	mov	x21, x0
	str	x27, [sp,80]
	ldr	x3, [x20,#:lo12:__stack_chk_guard]
	.loc 1 1515 0
	mov	x0, x19
.LVL412:
	.loc 1 1494 0
	stp	x25, x26, [sp,64]
	stp	x23, x24, [sp,48]
	.cfi_offset 27, -96
	.cfi_offset 25, -112
	.cfi_offset 26, -104
	.cfi_offset 23, -128
	.cfi_offset 24, -120
	.loc 1 1494 0
	str	x3, [x29,168]
	.loc 1 1517 0
	add	x24, x21, 4096
	.loc 1 1499 0
	ldr	x23, [x21,3176]
.LVL413:
	.loc 1 1515 0
	bl	memset
.LVL414:
	.loc 1 1517 0
	add	x0, x24, 1588
	.loc 1 1518 0
	add	x22, x21, 3224
	.loc 1 1517 0
	ldr	w1, [x0,56]
	str	w1, [x19,2796]
	.loc 1 1518 0
	ldr	w1, [x22,4964]
	str	w1, [x19,2800]
	.loc 1 1520 0
	ldr	w1, [x0,96]
	str	w1, [x19,2784]
	.loc 1 1521 0
	ldr	w1, [x0,100]
	str	w1, [x19,2788]
	.loc 1 1523 0
	ldr	w1, [x0,84]
	str	w1, [x19,2804]
	.loc 1 1524 0
	ldr	w1, [x0,88]
	str	w1, [x19,2808]
	.loc 1 1526 0
	ldrb	w1, [x0,53]
	strb	w1, [x19,2752]
	.loc 1 1527 0
	ldr	w1, [x0,72]
	strb	w1, [x19,2753]
	.loc 1 1528 0
	ldrb	w1, [x0,13]
	strb	w1, [x19,2754]
	.loc 1 1530 0
	ldrb	w1, [x0,14]
	strb	w1, [x19,2755]
	.loc 1 1531 0
	ldrb	w1, [x0,15]
	strb	w1, [x19,2756]
	.loc 1 1532 0
	ldrb	w1, [x0,17]
	strb	w1, [x19,2757]
	.loc 1 1533 0
	ldrb	w1, [x0,2]
	strb	w1, [x19,2758]
	.loc 1 1535 0
	ldr	w1, [x0,136]
	strb	w1, [x19,2760]
	.loc 1 1536 0
	ldrb	w1, [x0,10]
	strb	w1, [x19,2762]
	.loc 1 1537 0
	ldrb	w1, [x0,11]
	strb	w1, [x19,2763]
	.loc 1 1538 0
	ldr	w1, [x22,4928]
	strb	w1, [x19,2761]
	.loc 1 1539 0
	ldr	w1, [x22,4932]
	strb	w1, [x19,2764]
	.loc 1 1541 0
	ldrb	w1, [x0,3]
	strb	w1, [x19,2759]
	.loc 1 1542 0
	ldrsb	x1, [x0,5]
	lsr	w2, w1, 31
	strb	w2, [x19,2765]
	.loc 1 1543 0
	eor	x2, x1, x1, asr 63
	sub	x1, x2, x1, asr 63
	strb	w1, [x19,2766]
	.loc 1 1544 0
	ldrsb	x1, [x0,6]
	lsr	w2, w1, 31
	strb	w2, [x19,2767]
	.loc 1 1545 0
	eor	x2, x1, x1, asr 63
	sub	x1, x2, x1, asr 63
	strb	w1, [x19,2768]
	.loc 1 1546 0
	ldrsb	x1, [x0,7]
	lsr	w2, w1, 31
	strb	w2, [x19,2769]
	.loc 1 1547 0
	eor	x2, x1, x1, asr 63
	sub	x1, x2, x1, asr 63
	strb	w1, [x19,2770]
	.loc 1 1548 0
	ldrsb	x1, [x0,8]
	lsr	w2, w1, 31
	strb	w2, [x19,2771]
	.loc 1 1549 0
	eor	x2, x1, x1, asr 63
	sub	x1, x2, x1, asr 63
	strb	w1, [x19,2772]
	.loc 1 1550 0
	ldrsb	x1, [x0,9]
	lsr	w2, w1, 31
	strb	w2, [x19,2773]
	.loc 1 1551 0
	eor	x2, x1, x1, asr 63
	sub	x1, x2, x1, asr 63
	strb	w1, [x19,2774]
	.loc 1 1553 0
	ldrb	w1, [x0,50]
	strb	w1, [x19,2775]
	.loc 1 1554 0
	ldrb	w1, [x0,51]
	strb	w1, [x19,2776]
	.loc 1 1555 0
	ldrb	w1, [x0,52]
	strb	w1, [x19,2777]
	.loc 1 1557 0
	ldr	w1, [x0,144]
	str	w1, [x19,2780]
	.loc 1 1558 0
	ldr	w1, [x0,140]
	strb	w1, [x19,2778]
	.loc 1 1559 0
	ldr	w0, [x0,148]
	strb	w0, [x19,2779]
	.loc 1 1561 0
	ldr	w0, [x22,4936]
	str	w0, [x19,3136]
	.loc 1 1563 0
	ldr	w0, [x21,8808]
	ldr	w1, [x22,4952]
	bl	FSP_GetLogicFs
.LVL415:
	mov	x25, x0
.LVL416:
	.loc 1 1564 0
	ldr	w1, [x22,4940]
	ldr	w0, [x21,8808]
	bl	FSP_GetLogicFs
.LVL417:
	mov	x26, x0
.LVL418:
	.loc 1 1565 0
	ldr	w1, [x22,4944]
	ldr	w0, [x21,8808]
	bl	FSP_GetLogicFs
.LVL419:
	mov	x27, x0
.LVL420:
	.loc 1 1566 0
	ldr	w1, [x22,4948]
	ldr	w0, [x21,8808]
	bl	FSP_GetLogicFs
.LVL421:
	.loc 1 1567 0
	cbz	x25, .L399
	cbz	x26, .L399
	.loc 1 1567 0 is_stmt 0 discriminator 1
	cbz	x27, .L399
.LVL422:
	cbz	x0, .L399
	.loc 1 1572 0 is_stmt 1
	ldr	x1, [x25,296]
	cbz	x1, .L470
	.loc 1 1577 0
	ldr	w1, [x1,12]
	str	w1, [x19,3116]
	.loc 1 1578 0
	ldr	w1, [x25,320]
	str	w1, [x19,3132]
	.loc 1 1579 0
	ldr	x1, [x26,296]
	cbz	x1, .L471
.L466:
	.loc 1 1579 0 is_stmt 0 discriminator 2
	ldr	w1, [x1,12]
	.loc 1 1579 0 discriminator 4
	str	w1, [x19,3124]
	.loc 1 1580 0 is_stmt 1
	ldr	x1, [x27,296]
	cbz	x1, .L472
.L467:
	.loc 1 1580 0 is_stmt 0 discriminator 2
	ldr	w1, [x1,12]
	.loc 1 1580 0 discriminator 4
	str	w1, [x19,3120]
	.loc 1 1581 0 is_stmt 1
	ldr	x0, [x0,296]
.LVL423:
	cbz	x0, .L473
.L468:
	.loc 1 1581 0 is_stmt 0 discriminator 2
	ldr	w0, [x0,12]
	.loc 1 1623 0 is_stmt 1
	add	x3, x21, 720
	.loc 1 1581 0 discriminator 4
	str	w0, [x19,3128]
	.loc 1 1587 0
	add	x0, x24, 1588
	.loc 1 1635 0
	add	x2, x21, 736
	.loc 1 1649 0
	add	x1, x21, 752
	.loc 1 1582 0
	ldr	x4, [x25,304]
	.loc 1 1661 0
	add	x25, x21, 768
.LVL424:
	add	x8, x24, 2906
	.loc 1 1672 0
	mov	w7, 1152
	.loc 1 1582 0
	ldr	w4, [x4,20]
	str	w4, [x22,4912]
	.loc 1 1583 0
	str	w4, [x19,2792]
	.loc 1 1587 0
	ldrsb	w4, [x0,22]
	str	w4, [x19,3036]
	.loc 1 1588 0
	ldrsb	w4, [x0,26]
	str	w4, [x19,3052]
	.loc 1 1589 0
	ldrsb	w4, [x0,32]
	str	w4, [x19,3068]
	.loc 1 1590 0
	ldrsb	w4, [x0,36]
	str	w4, [x19,3084]
	.loc 1 1591 0
	ldrb	w4, [x0,46]
	str	w4, [x19,3100]
	.loc 1 1587 0
	ldrsb	w4, [x0,23]
	str	w4, [x21,3056]
	.loc 1 1588 0
	ldrsb	w4, [x0,27]
	str	w4, [x21,3072]
	.loc 1 1589 0
	ldrsb	w4, [x0,33]
	str	w4, [x21,3088]
	.loc 1 1590 0
	ldrsb	w4, [x0,37]
	str	w4, [x21,3104]
	.loc 1 1591 0
	ldrb	w4, [x0,47]
	str	w4, [x21,3120]
	.loc 1 1587 0
	ldrsb	w4, [x0,24]
	str	w4, [x21,3060]
	.loc 1 1588 0
	ldrsb	w4, [x0,28]
	str	w4, [x21,3076]
	.loc 1 1589 0
	ldrsb	w4, [x0,34]
	str	w4, [x21,3092]
	.loc 1 1590 0
	ldrsb	w4, [x0,38]
	str	w4, [x21,3108]
	.loc 1 1591 0
	ldrb	w4, [x0,48]
	str	w4, [x21,3124]
	.loc 1 1587 0
	ldrsb	w4, [x0,25]
	str	w4, [x21,3064]
	.loc 1 1588 0
	ldrsb	w4, [x0,29]
	str	w4, [x21,3080]
	.loc 1 1589 0
	ldrsb	w4, [x0,35]
	str	w4, [x21,3096]
	.loc 1 1590 0
	ldrsb	w4, [x0,39]
	str	w4, [x21,3112]
	.loc 1 1591 0
	ldrb	w4, [x0,49]
	str	w4, [x21,3128]
	.loc 1 1597 0
	stp	xzr, xzr, [x21,16]
	.loc 1 1598 0
	ldrb	w4, [x0,53]
	strb	w4, [x21,16]
	.loc 1 1599 0
	ldrb	w4, [x0,18]
	strb	w4, [x21,17]
	.loc 1 1600 0
	ldrb	w4, [x0,19]
	strb	w4, [x21,18]
	.loc 1 1601 0
	ldrb	w4, [x0,20]
	strb	w4, [x21,19]
	.loc 1 1602 0
	ldrb	w4, [x0,50]
	strb	w4, [x21,20]
	.loc 1 1603 0
	ldrb	w4, [x0,51]
	strb	w4, [x21,21]
	.loc 1 1604 0
	ldrb	w4, [x0,52]
	strb	w4, [x21,22]
	.loc 1 1607 0
	stp	xzr, xzr, [x21,32]
	.loc 1 1608 0
	ldrb	w4, [x0,1310]
	strb	w4, [x21,32]
	.loc 1 1609 0
	ldrb	w4, [x0,1311]
	strb	w4, [x21,33]
	.loc 1 1610 0
	ldrb	w4, [x0,1312]
	strb	w4, [x21,34]
	.loc 1 1611 0
	ldrb	w4, [x0,1313]
	strb	w4, [x21,35]
	.loc 1 1612 0
	ldrb	w4, [x0,1314]
	strb	w4, [x21,36]
	.loc 1 1613 0
	ldrb	w4, [x0,1315]
	strb	w4, [x21,37]
	.loc 1 1614 0
	ldrb	w4, [x0,1316]
	strb	w4, [x21,38]
	.loc 1 1617 0
	stp	xzr, xzr, [x21,48]
	.loc 1 1620 0
	stp	xzr, xzr, [x21,64]
	.loc 1 1623 0
	stp	xzr, xzr, [x3]
	.loc 1 1624 0
	ldrb	w3, [x0,2375]
	strb	w3, [x21,720]
	.loc 1 1625 0
	ldrb	w4, [x0,2374]
	strb	w4, [x21,721]
	.loc 1 1626 0
	ldrb	w4, [x0,2376]
	strb	w4, [x21,722]
	.loc 1 1627 0
	ldrb	w4, [x0,2377]
	strb	w4, [x21,723]
	.loc 1 1628 0
	ldrb	w4, [x0,2378]
	strb	w4, [x21,724]
	.loc 1 1629 0
	ldrb	w4, [x0,2379]
	strb	w4, [x21,725]
	.loc 1 1630 0
	ldrb	w4, [x0,2380]
	strb	w4, [x21,726]
	.loc 1 1631 0
	ldrb	w4, [x0,2381]
	strb	w4, [x21,727]
	.loc 1 1632 0
	ldrb	w4, [x0,2382]
	strb	w4, [x21,728]
	.loc 1 1635 0
	stp	xzr, xzr, [x2]
	.loc 1 1636 0
	strb	w3, [x21,736]
	.loc 1 1637 0
	ldrb	w2, [x0,2383]
	strb	w2, [x21,737]
	.loc 1 1638 0
	ldrb	w2, [x0,2384]
	strb	w2, [x21,738]
	.loc 1 1639 0
	ldrb	w2, [x0,2385]
	strb	w2, [x21,739]
	.loc 1 1640 0
	ldrb	w2, [x0,2386]
	strb	w2, [x21,740]
	.loc 1 1641 0
	ldrb	w2, [x0,2387]
	strb	w2, [x21,741]
	.loc 1 1642 0
	ldrb	w2, [x0,2388]
	strb	w2, [x21,742]
	.loc 1 1643 0
	ldrb	w2, [x0,2389]
	strb	w2, [x21,743]
	.loc 1 1644 0
	ldrb	w2, [x0,2390]
	strb	w2, [x21,744]
	.loc 1 1645 0
	ldrb	w2, [x0,2391]
	strb	w2, [x21,745]
	.loc 1 1646 0
	ldrb	w2, [x0,2392]
	strb	w2, [x21,746]
	.loc 1 1649 0
	stp	xzr, xzr, [x1]
	.loc 1 1650 0
	ldrb	w2, [x0,2394]
	strb	w2, [x21,752]
	.loc 1 1651 0
	ldrb	w1, [x0,2393]
	strb	w1, [x21,753]
	.loc 1 1652 0
	ldrb	w1, [x0,2395]
	strb	w1, [x21,754]
	.loc 1 1653 0
	ldrb	w1, [x0,2396]
	strb	w1, [x21,755]
	.loc 1 1654 0
	ldrb	w1, [x0,2397]
	strb	w1, [x21,756]
	.loc 1 1655 0
	ldrb	w1, [x0,2398]
	strb	w1, [x21,757]
	.loc 1 1656 0
	ldrb	w1, [x0,2399]
	strb	w1, [x21,758]
	.loc 1 1657 0
	ldrb	w1, [x0,2400]
	strb	w1, [x21,759]
	.loc 1 1658 0
	ldrb	w1, [x0,2401]
	strb	w1, [x21,760]
	.loc 1 1661 0
	stp	xzr, xzr, [x25]
	.loc 1 1662 0
	strb	w2, [x21,768]
	.loc 1 1663 0
	ldrb	w1, [x0,2402]
	strb	w1, [x21,769]
	.loc 1 1664 0
	ldrb	w1, [x0,2403]
	strb	w1, [x21,770]
	.loc 1 1665 0
	ldrb	w1, [x0,2404]
	strb	w1, [x21,771]
	.loc 1 1666 0
	ldrb	w1, [x0,2405]
	strb	w1, [x21,772]
	.loc 1 1667 0
	ldrb	w1, [x0,2406]
	strb	w1, [x21,773]
	.loc 1 1668 0
	ldrb	w1, [x0,2407]
	strb	w1, [x21,774]
	.loc 1 1669 0
	ldrb	w1, [x0,2408]
	strb	w1, [x21,775]
	.loc 1 1670 0
	ldrb	w1, [x0,2409]
	strb	w1, [x21,776]
	.loc 1 1671 0
	ldrb	w1, [x0,2410]
	strb	w1, [x21,777]
	.loc 1 1672 0
	ldrb	w0, [x0,2411]
	strb	w0, [x21,778]
.L410:
	sub	w1, w7, #384
	.loc 1 1494 0
	mov	x6, x8
.L414:
	add	w5, w1, 48
	mov	x0, x6
.L411:
	.loc 1 1682 0
	sxtw	x3, w1
	add	x0, x0, 11
	add	x2, x19, x3
	add	w1, w1, 16
	.loc 1 1678 0 discriminator 1
	cmp	w1, w5
	.loc 1 1683 0
	stp	xzr, xzr, [x2]
	.loc 1 1684 0
	ldr	x4, [x0,-11]
	str	x4, [x19,x3]
	ldrh	w3, [x0,-3]
	strh	w3, [x2,8]
	ldrb	w3, [x0,-1]
	strb	w3, [x2,10]
	.loc 1 1678 0 discriminator 1
	bne	.L411
	.loc 1 1676 0 discriminator 1
	cmp	w7, w1
	add	x6, x6, 33
	bne	.L414
	add	w7, w7, 384
	add	x8, x8, 264
	.loc 1 1674 0 discriminator 1
	cmp	w7, 2688
	bne	.L410
	.loc 1 1689 0
	ldr	w0, [x24,1644]
	cbz	w0, .L440
	mov	x26, 3
.LVL425:
	.loc 1 1689 0 is_stmt 0 discriminator 2
	mov	w25, w26
.LVL426:
.L415:
	.loc 1 1691 0 is_stmt 1
	ldr	w1, [x23,8]
	.loc 1 1692 0
	add	x27, x24, 1588
.LVL427:
	.loc 1 1497 0
	add	x24, x21, 3184
.LVL428:
	.loc 1 1691 0
	and	w1, w1, -16
	.loc 1 1692 0
	mov	x0, x24
	.loc 1 1691 0
	sub	w1, w1, #16
	str	w1, [x19,2812]
	.loc 1 1693 0
	ldr	w22, [x27,68]
	.loc 1 1692 0
	bl	BsPos
.LVL429:
	.loc 1 1693 0
	add	w22, w25, w22
	lsl	w22, w22, 3
	sub	w0, w22, w0
	.loc 1 1692 0
	str	w0, [x19,2816]
	.loc 1 1695 0
	mov	x0, x24
	ldr	w22, [x23,8]
	bl	BsPos
.LVL430:
	mov	w5, w0
	cmp	w5, wzr
	add	w6, w5, 7
	csel	w5, w6, w5, lt
	and	w22, w22, 15
	.loc 1 1696 0
	mov	x0, x24
	add	w22, w22, 16
	.loc 1 1695 0
	add	w22, w22, w5, asr 3
.LVL431:
	.loc 1 1696 0
	bl	BsPos
.LVL432:
	asr	w3, w0, 31
	lsr	w3, w3, 29
	ubfiz	w1, w22, 3, 4
	add	w7, w0, w3
	.loc 1 1699 0
	str	wzr, [x19,2828]
	.loc 1 1696 0
	and	w4, w7, 7
	.loc 1 1700 0
	str	wzr, [x19,2832]
	.loc 1 1696 0
	sub	w3, w4, w3
	.loc 1 1701 0
	str	wzr, [x19,2836]
	.loc 1 1696 0
	add	w1, w1, w3
	.loc 1 1697 0
	and	w2, w22, -16
	.loc 1 1696 0
	str	w1, [x19,2820]
	.loc 1 1712 0
	mov	w3, 1
	.loc 1 1697 0
	str	w2, [x19,2824]
	.loc 1 1712 0
	ldrb	w0, [x27,13]
	.loc 1 1705 0
	ldr	w5, [x27,68]
	.loc 1 1704 0
	add	x26, x26, x5, uxtw
	.loc 1 1712 0
	lsl	w0, w3, w0
	.loc 1 1704 0
	ldr	x9, [x23]
	.loc 1 1706 0
	ldr	w8, [x23,12]
	and	w7, w0, 255
	.loc 1 1715 0
	uxtb	w2, w0
	.loc 1 1713 0
	str	w7, [x19,2840]
	.loc 1 1715 0
	cmp	w2, w3
	.loc 1 1704 0
	add	x1, x9, x26
	.loc 1 1706 0
	sub	w8, w8, w25
	.loc 1 1715 0
	bls	.L441
	.loc 1 1717 0
	sub	w2, w7, #1
	add	w3, w2, w2, lsl 1
	add	x24, x1, x3, sxtw
.LVL433:
.L416:
	.loc 1 1720 0 discriminator 1
	cbz	w7, .L438
	.loc 1 1728 0
	mov	w0, 1
	.loc 1 1722 0
	subs	w4, w7, #1
	.loc 1 1728 0
	sub	w22, w0, w7
.LVL434:
	add	w22, w22, w22, lsl 1
	sub	w6, w22, w5
	add	w6, w6, w8
	.loc 1 1722 0
	beq	.L474
	.loc 1 1724 0
	ldrb	w2, [x1,1]
	ldrb	w3, [x9,x26]
	ldrb	w0, [x1,2]
	add	w3, w3, w2, lsl 8
	add	w3, w3, w0, lsl 16
.L419:
	.loc 1 1731 0
	str	w3, [x29,136]
	.loc 1 1720 0 discriminator 1
	cmp	w7, 1
	.loc 1 1732 0
	add	x2, x1, 3
	.loc 1 1733 0
	add	x3, x24, x3, uxtw
	.loc 1 1720 0 discriminator 1
	beq	.L420
	.loc 1 1722 0
	cmp	w4, 1
	.loc 1 1728 0
	sub	x0, x2, x3
	add	w0, w6, w0
	.loc 1 1722 0
	ble	.L422
	.loc 1 1724 0
	ldrb	w0, [x1,4]
	ldrb	w8, [x1,3]
	ldrb	w2, [x1,5]
	add	w0, w8, w0, lsl 8
	add	w0, w0, w2, lsl 16
.L422:
	.loc 1 1731 0
	str	w0, [x29,140]
	.loc 1 1720 0 discriminator 1
	cmp	w7, 2
	.loc 1 1732 0
	add	x2, x1, 6
	.loc 1 1733 0
	add	x3, x3, x0, uxtw
	.loc 1 1720 0 discriminator 1
	beq	.L420
	.loc 1 1722 0
	cmp	w4, 2
	.loc 1 1728 0
	sub	x0, x2, x3
	add	w0, w6, w0
	.loc 1 1722 0
	ble	.L424
	.loc 1 1724 0
	ldrb	w0, [x1,7]
	ldrb	w8, [x1,6]
	ldrb	w2, [x1,8]
	add	w0, w8, w0, lsl 8
	add	w0, w0, w2, lsl 16
.L424:
	.loc 1 1731 0
	str	w0, [x29,144]
	.loc 1 1720 0 discriminator 1
	cmp	w7, 3
	.loc 1 1732 0
	add	x2, x1, 9
	.loc 1 1733 0
	add	x3, x3, x0, uxtw
	.loc 1 1720 0 discriminator 1
	beq	.L420
	.loc 1 1722 0
	cmp	w4, 3
	.loc 1 1728 0
	sub	x0, x2, x3
	add	w0, w6, w0
	.loc 1 1722 0
	ble	.L426
	.loc 1 1724 0
	ldrb	w0, [x1,10]
	ldrb	w8, [x1,9]
	ldrb	w2, [x1,11]
	add	w0, w8, w0, lsl 8
	add	w0, w0, w2, lsl 16
.L426:
	.loc 1 1731 0
	str	w0, [x29,148]
	.loc 1 1720 0 discriminator 1
	cmp	w7, 4
	.loc 1 1732 0
	add	x2, x1, 12
	.loc 1 1733 0
	add	x3, x3, x0, uxtw
	.loc 1 1720 0 discriminator 1
	beq	.L420
	.loc 1 1722 0
	cmp	w4, 4
	.loc 1 1728 0
	sub	x0, x2, x3
	add	w0, w6, w0
	.loc 1 1722 0
	ble	.L428
	.loc 1 1724 0
	ldrb	w0, [x1,13]
	ldrb	w8, [x1,12]
	ldrb	w2, [x1,14]
	add	w0, w8, w0, lsl 8
	add	w0, w0, w2, lsl 16
.L428:
	.loc 1 1731 0
	str	w0, [x29,152]
	.loc 1 1720 0 discriminator 1
	cmp	w7, 5
	.loc 1 1732 0
	add	x2, x1, 15
	.loc 1 1733 0
	add	x3, x3, x0, uxtw
	.loc 1 1720 0 discriminator 1
	beq	.L420
	.loc 1 1722 0
	cmp	w4, 5
	.loc 1 1728 0
	sub	x0, x2, x3
	add	w0, w6, w0
	.loc 1 1722 0
	ble	.L430
	.loc 1 1724 0
	ldrb	w0, [x1,16]
	ldrb	w8, [x1,15]
	ldrb	w2, [x1,17]
	add	w0, w8, w0, lsl 8
	add	w0, w0, w2, lsl 16
.L430:
	.loc 1 1731 0
	str	w0, [x29,156]
	.loc 1 1720 0 discriminator 1
	cmp	w7, 6
	.loc 1 1732 0
	add	x2, x1, 18
	.loc 1 1733 0
	add	x0, x3, x0, uxtw
	.loc 1 1720 0 discriminator 1
	beq	.L420
	.loc 1 1722 0
	cmp	w4, 6
	.loc 1 1728 0
	sub	x2, x2, x0
	add	w2, w6, w2
	.loc 1 1722 0
	ble	.L432
	.loc 1 1724 0
	ldrb	w2, [x1,19]
	ldrb	w8, [x1,18]
	ldrb	w3, [x1,20]
	add	w2, w8, w2, lsl 8
	add	w2, w2, w3, lsl 16
.L432:
	.loc 1 1731 0
	str	w2, [x29,160]
	.loc 1 1720 0 discriminator 1
	cmp	w7, 7
	.loc 1 1732 0
	add	x3, x1, 21
	.loc 1 1733 0
	add	x2, x0, x2, uxtw
	.loc 1 1720 0 discriminator 1
	beq	.L420
	.loc 1 1722 0
	cmp	w4, 7
	ble	.L433
	.loc 1 1724 0
	ldrb	w2, [x1,22]
	ldrb	w6, [x1,21]
	ldrb	w0, [x1,23]
	add	w6, w6, w2, lsl 8
	add	w6, w6, w0, lsl 16
.L434:
	.loc 1 1731 0
	str	w6, [x29,164]
.L420:
	.loc 1 1738 0
	ldr	w1, [x23,8]
	.loc 1 1744 0
	add	w4, w4, w4, lsl 1
	add	x0, x21, 2860
	add	x2, x29, 104
	.loc 1 1738 0
	and	w1, w1, 15
	add	x6, x29, 132
	add	w5, w1, w5
	.loc 1 1744 0
	mov	w3, 0
.LVL435:
	add	w5, w5, w4
	add	w25, w5, w25
.LVL436:
.L437:
	.loc 1 1742 0
	cbz	w3, .L475
	.loc 1 1748 0
	ldr	w4, [x6]
	ldr	w1, [x2,-4]
	add	w1, w4, w1
	str	w1, [x2]
.L436:
	.loc 1 1751 0
	ldr	w5, [x6,4]!
	.loc 1 1753 0
	and	w4, w1, -16
	.loc 1 1754 0
	str	wzr, [x0,96]
	.loc 1 1752 0
	ubfiz	w1, w1, 3, 4
	.loc 1 1755 0
	str	wzr, [x0,128]
	.loc 1 1751 0
	lsl	w5, w5, 3
	.loc 1 1752 0
	str	w1, [x0,32]
	.loc 1 1753 0
	add	w4, w4, 16
	.loc 1 1751 0
	str	w5, [x0]
	add	x0, x0, 4
	.loc 1 1753 0
	str	w4, [x0,60]
	.loc 1 1740 0 discriminator 2
	add	w3, w3, 1
	.loc 1 1740 0 is_stmt 0 discriminator 1
	cmp	w3, w7
	add	x2, x2, 4
	.loc 1 1756 0 is_stmt 1
	str	wzr, [x0,156]
	.loc 1 1740 0 discriminator 1
	bne	.L437
.LVL437:
.L438:
	.loc 1 1760 0
	ldr	x1, [x21]
	.loc 1 1762 0
	mov	w0, 1
	.loc 1 1759 0
	str	x19, [x21,8]
	.loc 1 1760 0
	ldr	w1, [x1,676]
	str	w1, [x19,3140]
	.loc 1 1762 0
	b	.L402
.LVL438:
.L399:
	.loc 1 1569 0
	adrp	x1, .LC25
	mov	w0, 1
.LVL439:
	add	x1, x1, :lo12:.LC25
	bl	dprint_linux_kernel
.LVL440:
	.loc 1 1570 0
	mov	w0, 0
.LVL441:
.L402:
	.loc 1 1763 0
	ldr	x2, [x29,168]
	ldr	x1, [x20,#:lo12:__stack_chk_guard]
	cmp	x2, x1
	bne	.L476
	ldp	x19, x20, [sp,16]
	.cfi_remember_state
	.cfi_restore 20
	.cfi_restore 19
	ldp	x21, x22, [sp,32]
	.cfi_restore 22
	.cfi_restore 21
.LVL442:
	ldp	x23, x24, [sp,48]
	.cfi_restore 24
	.cfi_restore 23
.LVL443:
	ldp	x25, x26, [sp,64]
	.cfi_restore 26
	.cfi_restore 25
.LVL444:
	ldr	x27, [sp,80]
	.cfi_restore 27
.LVL445:
	ldp	x29, x30, [sp], 176
	.cfi_restore 30
	.cfi_restore 29
	.cfi_def_cfa 31, 0
	ret
.LVL446:
.L440:
	.cfi_restore_state
	mov	x26, 10
.LVL447:
	.loc 1 1689 0 discriminator 1
	mov	w25, w26
.LVL448:
	b	.L415
.LVL449:
.L441:
	.loc 1 1711 0
	mov	x24, x1
.LVL450:
	b	.L416
.LVL451:
.L473:
	.loc 1 1581 0 discriminator 2
	ldr	x0, [x25,296]
	b	.L468
.LVL452:
.L472:
	.loc 1 1580 0 discriminator 2
	ldr	x1, [x25,296]
	b	.L467
.L471:
	.loc 1 1579 0 discriminator 2
	ldr	x1, [x25,296]
	b	.L466
.L470:
	.loc 1 1574 0
	adrp	x1, .LC26
	mov	w0, 1
.LVL453:
	add	x1, x1, :lo12:.LC26
	bl	dprint_linux_kernel
.LVL454:
	.loc 1 1575 0
	mov	w0, 0
	b	.L402
.LVL455:
.L474:
	.loc 1 1728 0
	sub	x3, x1, x24
	add	w3, w6, w3
	b	.L419
.L433:
	sub	x2, x3, x2
	add	w6, w6, w2
	b	.L434
.LVL456:
.L475:
	.loc 1 1744 0
	str	w25, [x29,104]
	ldr	w1, [x2]
	b	.L436
.LVL457:
.L476:
	.loc 1 1763 0
	bl	__stack_chk_fail
.LVL458:
	.cfi_endproc
.LFE2331:
	.size	VP8_Set_DecParam, .-VP8_Set_DecParam
	.align	2
	.global	VP8_Update_PictHeader
	.type	VP8_Update_PictHeader, %function
VP8_Update_PictHeader:
.LFB2332:
	.loc 1 1767 0
	.cfi_startproc
.LVL459:
	stp	x29, x30, [sp, -48]!
	.cfi_def_cfa_offset 48
	.cfi_offset 29, -48
	.cfi_offset 30, -40
	add	x29, sp, 0
	.cfi_def_cfa_register 29
	stp	x19, x20, [sp,16]
	.cfi_offset 19, -32
	.cfi_offset 20, -24
	.loc 1 1769 0
	add	x20, x0, 2460
	.loc 1 1767 0
	str	x21, [sp,32]
	.cfi_offset 21, -16
	.loc 1 1767 0
	mov	x19, x0
	.loc 1 1768 0
	add	x21, x0, 8
.LVL460:
	.loc 1 1771 0
	ldrb	w0, [x20,45]
.LVL461:
	cbnz	w0, .L478
	.loc 1 1773 0
	add	x0, x19, 3761
	add	x1, x19, 2612
	mov	x2, 1149
	bl	memcpy
.LVL462:
.L478:
	.loc 1 1777 0
	mov	x1, x20
	mov	x0, x21
	mov	x2, 2452
	bl	memcpy
.LVL463:
	.loc 1 1779 0
	ldr	w0, [x20,56]
	str	w0, [x19,4964]
	.loc 1 1780 0
	ldr	w0, [x20,136]
	str	w0, [x19,4928]
	.loc 1 1781 0
	ldrb	w0, [x20,11]
	str	w0, [x19,4932]
	.loc 1 1783 0
	ldrb	w0, [x20,40]
	strb	w0, [x19]
	.loc 1 1784 0
	ldp	x19, x20, [sp,16]
	.cfi_restore 20
	.cfi_restore 19
.LVL464:
	ldr	x21, [sp,32]
	.cfi_restore 21
.LVL465:
	ldp	x29, x30, [sp], 48
	.cfi_restore 30
	.cfi_restore 29
	.cfi_def_cfa 31, 0
	ret
	.cfi_endproc
.LFE2332:
	.size	VP8_Update_PictHeader, .-VP8_Update_PictHeader
	.align	2
	.global	VP8DEC_Decode
	.type	VP8DEC_Decode, %function
VP8DEC_Decode:
.LFB2333:
	.loc 1 1788 0
	.cfi_startproc
.LVL466:
	stp	x29, x30, [sp, -80]!
	.cfi_def_cfa_offset 80
	.cfi_offset 29, -80
	.cfi_offset 30, -72
	add	x29, sp, 0
	.cfi_def_cfa_register 29
	stp	x19, x20, [sp,16]
	stp	x21, x22, [sp,32]
	.cfi_offset 19, -64
	.cfi_offset 20, -56
	.cfi_offset 21, -48
	.cfi_offset 22, -40
	.loc 1 1788 0
	mov	x19, x0
	adrp	x22, __stack_chk_guard
	.loc 1 1797 0
	ldr	x0, [x1,64]
.LVL467:
	.loc 1 1791 0
	str	wzr, [x29,52]
.LVL468:
	.loc 1 1797 0
	str	x0, [x19,3160]
	.loc 1 1788 0
	ldr	x2, [x22,#:lo12:__stack_chk_guard]
	.loc 1 1798 0
	ldr	w3, [x1,4]
	str	w3, [x19,3168]
	.loc 1 1788 0
	str	x2, [x29,72]
	.loc 1 1799 0
	ldr	w2, [x1,8]
	.loc 1 1791 0
	str	wzr, [x29,56]
.LVL469:
	str	wzr, [x29,60]
.LVL470:
	.loc 1 1801 0
	cmp	w2, 2
	.loc 1 1799 0
	str	w2, [x19,3172]
	.loc 1 1801 0
	ble	.L510
	.loc 1 1789 0
	add	x21, x19, 3184
.LVL471:
	.loc 1 1807 0
	mov	x1, x0
.LVL472:
	mov	x0, x21
	.loc 1 1790 0
	add	x20, x19, 3224
	.loc 1 1807 0
	bl	BsInit
.LVL473:
	.loc 1 1808 0
	add	x1, x19, 3160
	.loc 1 1811 0
	ldr	w2, [x19,3172]
	.loc 1 1808 0
	str	x1, [x19,3176]
	.loc 1 1811 0
	mov	x0, x21
	mov	x1, x20
	bl	VP8_GetPictureHeader
.LVL474:
	.loc 1 1812 0
	cmp	w0, 1
	bne	.L511
	.loc 1 1819 0
	ldr	w0, [x20,4924]
	cbnz	w0, .L512
.L483:
	.loc 1 1823 0
	adrp	x0, g_event_report
	ldr	x4, [x0,#:lo12:g_event_report]
	cbz	x4, .L485
.LBB203:
	.loc 1 1823 0 is_stmt 0 discriminator 1
	ldr	w8, [x19,3328]
	mov	w1, 2
	ldr	w7, [x19,3332]
	add	x2, x29, 64
	ldr	w6, [x19,5780]
	mov	w3, 8
	ldr	w5, [x19,5784]
	ldr	w0, [x19,8808]
	strh	w8, [x29,64]
	strh	w7, [x29,66]
	strh	w6, [x29,68]
	strh	w5, [x29,70]
	blr	x4
.LVL475:
.L485:
.LBE203:
	.loc 1 1826 0 is_stmt 1
	ldr	w0, [x19,8808]
	add	x1, x29, 52
	add	x2, x29, 56
	add	x3, x29, 60
	bl	VCTRL_GetChanImgNum
.LVL476:
	.loc 1 1828 0
	ldr	x0, [x19]
	ldr	w0, [x0,772]
	cmp	w0, 1
	beq	.L513
.L486:
	.loc 1 1844 0
	ldr	w0, [x19,8808]
	mov	w2, 1
	ldr	w1, [x20,4940]
	.loc 1 1846 0
	add	x21, x19, 8192
.LVL477:
	.loc 1 1844 0
	bl	FSP_ClearLogicFs
.LVL478:
	.loc 1 1844 0 is_stmt 0 discriminator 1
	ldr	w0, [x19,8808]
	mov	w2, 1
	ldr	w1, [x20,4944]
	bl	FSP_ClearLogicFs
.LVL479:
	.loc 1 1844 0 discriminator 2
	ldr	w1, [x20,4948]
	mov	w2, 1
	ldr	w0, [x19,8808]
	bl	FSP_ClearLogicFs
.LVL480:
	.loc 1 1844 0
	str	wzr, [x20,4940]
	str	wzr, [x20,4944]
	str	wzr, [x20,4948]
	.loc 1 1844 0 discriminator 3
	ldr	w0, [x19,8808]
	bl	FSP_GetNullLogicFs
.LVL481:
	.loc 1 1845 0 is_stmt 1
	str	wzr, [x20,4920]
	.loc 1 1844 0
	str	w0, [x20,4948]
	.loc 1 1846 0
	mov	x1, x21
	.loc 1 1844 0
	str	w0, [x20,4944]
	str	w0, [x20,4940]
	.loc 1 1846 0
	ldr	w0, [x19,8808]
	bl	FSP_ClearNotInVoQueue
.LVL482:
	.loc 1 1848 0
	add	x0, x19, 4096
	add	x0, x0, 1588
	ldr	w2, [x0,96]
	ldr	w3, [x0,100]
	cmp	w2, 512
	bhi	.L488
	.loc 1 1848 0 is_stmt 0 discriminator 1
	cmp	w3, 512
	bhi	.L488
	.loc 1 1857 0 is_stmt 1
	ldr	x0, [x19]
	ldr	w1, [x0,772]
	cbnz	w1, .L490
	.loc 1 1857 0 is_stmt 0 discriminator 1
	ldr	w0, [x0,28]
	cmp	w0, 25
	beq	.L514
.L490:
	.loc 1 1867 0 is_stmt 1
	mov	x0, x21
	bl	ResetVoQueue
.LVL483:
.L491:
	.loc 1 1870 0
	mov	x0, x19
	bl	VP8_ArrangeVHBMem
.LVL484:
	.loc 1 1871 0
	cmp	w0, 1
	bne	.L515
.LVL485:
.L484:
	.loc 1 1878 0
	mov	x0, x19
	bl	VP8_DecodeDecide
.LVL486:
	.loc 1 1879 0
	cmp	w0, 1
	.loc 1 1878 0
	mov	w21, w0
.LVL487:
	.loc 1 1879 0
	beq	.L492
	.loc 1 1881 0
	adrp	x1, .LC31
	mov	w0, 1
	add	x1, x1, :lo12:.LC31
	bl	dprint_linux_kernel
.LVL488:
	.loc 1 1882 0
	mov	w0, 0
	b	.L481
.LVL489:
.L511:
	.loc 1 1814 0
	adrp	x1, .LC28
	mov	w0, 2
	add	x1, x1, :lo12:.LC28
	bl	dprint_linux_kernel
.LVL490:
	.loc 1 1815 0
	mov	w0, 0
.L481:
	.loc 1 1935 0
	ldr	x2, [x29,72]
	ldr	x1, [x22,#:lo12:__stack_chk_guard]
	cmp	x2, x1
	bne	.L516
	ldp	x19, x20, [sp,16]
	.cfi_remember_state
	.cfi_restore 20
	.cfi_restore 19
.LVL491:
	ldp	x21, x22, [sp,32]
	.cfi_restore 22
	.cfi_restore 21
.LVL492:
	ldp	x29, x30, [sp], 80
	.cfi_restore 30
	.cfi_restore 29
	.cfi_def_cfa 31, 0
	ret
.LVL493:
.L510:
	.cfi_restore_state
	.loc 1 1803 0
	adrp	x1, .LC27
.LVL494:
	mov	w0, 1
	add	x1, x1, :lo12:.LC27
	bl	dprint_linux_kernel
.LVL495:
	.loc 1 1804 0
	mov	w0, 0
	b	.L481
.LVL496:
.L512:
	.loc 1 1819 0 discriminator 1
	ldr	w3, [x19,3328]
	.loc 1 1820 0
	add	x0, x19, 4096
	.loc 1 1819 0 discriminator 1
	ldr	w2, [x19,5780]
	.loc 1 1820 0
	add	x0, x0, 1588
	.loc 1 1819 0 discriminator 1
	cmp	w3, w2
	bne	.L483
	.loc 1 1820 0
	ldr	w1, [x19,3332]
	ldr	w0, [x0,100]
	cmp	w1, w0
	bne	.L483
	b	.L484
.L513:
	.loc 1 1831 0
	ldr	w0, [x29,60]
.LVL497:
	cmp	w0, wzr
	ble	.L486
	.loc 1 1833 0
	mov	w0, -2
	b	.L481
.LVL498:
.L488:
	.loc 1 1851 0
	adrp	x1, .LC29
	mov	w0, 18
	add	x1, x1, :lo12:.LC29
	bl	dprint_linux_kernel
.LVL499:
	.loc 1 1854 0
	mov	w0, 0
	b	.L481
.L515:
	.loc 1 1873 0
	adrp	x1, .LC30
	mov	w0, 1
	add	x1, x1, :lo12:.LC30
	bl	dprint_linux_kernel
.LVL500:
	.loc 1 1874 0
	mov	w0, 0
	b	.L481
.L492:
	.loc 1 1885 0
	mov	x0, x19
	bl	VP8_GetImageBuffer
.LVL501:
	.loc 1 1886 0
	cmp	w0, 1
	beq	.L493
	.loc 1 1888 0
	adrp	x1, .LC32
	mov	w0, w21
	add	x1, x1, :lo12:.LC32
	bl	dprint_linux_kernel
.LVL502:
	.loc 1 1889 0
	mov	w0, 0
	b	.L481
.L514:
	.loc 1 1859 0
	ldr	w0, [x20,4924]
	cbnz	w0, .L491
	b	.L490
.L493:
	.loc 1 1892 0
	ldr	w0, [x19,8808]
	ldr	w1, [x20,4952]
	bl	FSP_GetFsImagePtr
.LVL503:
	mov	x3, x0
.LVL504:
	.loc 1 1893 0
	cbz	x0, .L517
	.loc 1 1899 0
	ldr	x2, [x19]
	.loc 1 1908 0
	mov	x4, -1
	.loc 1 1909 0
	adrp	x1, .LC33
	mov	w0, 29
	add	x1, x1, :lo12:.LC33
	.loc 1 1899 0
	ldr	x2, [x2,48]
	str	x2, [x3,224]
	.loc 1 1900 0
	ldr	x2, [x19]
	ldr	x2, [x2,64]
	str	x2, [x3,232]
	.loc 1 1901 0
	ldr	x2, [x19]
	ldr	x2, [x2,80]
	str	x2, [x3,240]
	.loc 1 1902 0
	ldr	x2, [x19]
	ldr	w2, [x2,96]
	str	w2, [x3,8]
	.loc 1 1903 0
	ldr	x2, [x19]
	ldr	w2, [x2,100]
	str	w2, [x3,12]
	.loc 1 1904 0
	ldr	x2, [x19]
	ldr	w2, [x2,104]
	str	w2, [x3,16]
	.loc 1 1905 0
	ldr	x2, [x19]
	ldr	w2, [x2,120]
	str	w2, [x3,20]
	.loc 1 1907 0
	str	wzr, [x3,32]
	.loc 1 1908 0
	ldr	x2, [x19]
	str	x4, [x2,48]
	.loc 1 1909 0
	ldr	x2, [x3,224]
	ldr	x3, [x3,232]
.LVL505:
	bl	dprint_linux_kernel
.LVL506:
	.loc 1 1912 0
	ldr	w0, [x20,4960]
	cbnz	w0, .L495
	.loc 1 1914 0
	ldr	w1, [x20,4944]
	ldr	w0, [x20,4952]
	cmp	w1, w0
	beq	.L496
	.loc 1 1916 0
	ldr	w0, [x19,8808]
	mov	w2, 0
	bl	FSP_SetRef
.LVL507:
	ldr	w0, [x20,4952]
.L496:
	.loc 1 1918 0
	ldr	w1, [x20,4948]
	cmp	w1, w0
	beq	.L497
	.loc 1 1920 0
	ldr	w0, [x19,8808]
	mov	w2, 0
	bl	FSP_SetRef
.LVL508:
	ldr	w0, [x20,4952]
.L497:
	.loc 1 1922 0
	ldr	w1, [x20,4940]
	cmp	w1, w0
	beq	.L498
	.loc 1 1924 0
	ldr	w0, [x19,8808]
	mov	w2, 0
	bl	FSP_SetRef
.LVL509:
.L498:
	.loc 1 1926 0
	str	wzr, [x20,4920]
.L495:
	.loc 1 1930 0
	mov	x0, x19
	bl	VP8_Set_DecParam
.LVL510:
	.loc 1 1932 0
	mov	x0, x20
	bl	VP8_Update_PictHeader
.LVL511:
	.loc 1 1934 0
	mov	w0, 0
	b	.L481
.LVL512:
.L517:
	.loc 1 1895 0
	adrp	x1, .LC22
	mov	w0, 22
.LVL513:
	add	x1, x1, :lo12:.LC22
	mov	w2, 1895
	bl	dprint_linux_kernel
.LVL514:
	.loc 1 1896 0
	mov	w0, 0
	b	.L481
.LVL515:
.L516:
	.loc 1 1935 0
	bl	__stack_chk_fail
.LVL516:
	.cfi_endproc
.LFE2333:
	.size	VP8DEC_Decode, .-VP8DEC_Decode
	.align	2
	.global	VP8DEC_RecycleImage
	.type	VP8DEC_RecycleImage, %function
VP8DEC_RecycleImage:
.LFB2334:
	.loc 1 1940 0
	.cfi_startproc
.LVL517:
	stp	x29, x30, [sp, -32]!
	.cfi_def_cfa_offset 32
	.cfi_offset 29, -32
	.cfi_offset 30, -24
	add	x29, sp, 0
	.cfi_def_cfa_register 29
	stp	x19, x20, [sp,16]
	.cfi_offset 19, -16
	.cfi_offset 20, -8
	.loc 1 1943 0
	cbz	x0, .L520
	mov	x19, x0
	.loc 1 1948 0
	ldr	w0, [x0,8808]
.LVL518:
	mov	w2, 0
	mov	w20, w1
	bl	FSP_SetDisplay
.LVL519:
	.loc 1 1949 0
	ldr	w0, [x19,8808]
	mov	w1, w20
	bl	FSP_GetFsImagePtr
.LVL520:
	mov	x20, x0
.LVL521:
	.loc 1 1950 0
	cbz	x0, .L521
	.loc 1 1952 0
	ldr	w0, [x19,8808]
	ldr	x1, [x20,248]
	bl	FreeUsdByDec
.LVL522:
	.loc 1 1953 0
	str	xzr, [x20,248]
	.loc 1 1954 0
	ldr	x1, [x20,256]
	ldr	w0, [x19,8808]
	bl	FreeUsdByDec
.LVL523:
	.loc 1 1955 0
	str	xzr, [x20,256]
	.loc 1 1958 0
	mov	w0, 1
	.loc 1 1959 0
	ldp	x19, x20, [sp,16]
	.cfi_remember_state
	.cfi_restore 20
	.cfi_restore 19
.LVL524:
	ldp	x29, x30, [sp], 32
	.cfi_restore 30
	.cfi_restore 29
	.cfi_def_cfa 31, 0
	ret
.LVL525:
.L520:
	.cfi_restore_state
	.loc 1 1945 0
	mov	w0, 0
.LVL526:
	.loc 1 1959 0
	ldp	x19, x20, [sp,16]
	.cfi_remember_state
	.cfi_restore 19
	.cfi_restore 20
	ldp	x29, x30, [sp], 32
	.cfi_restore 29
	.cfi_restore 30
	.cfi_def_cfa 31, 0
	ret
.LVL527:
.L521:
	.cfi_restore_state
	.loc 1 1958 0
	mov	w0, 1
.LVL528:
	.loc 1 1959 0
	ldp	x19, x20, [sp,16]
	.cfi_restore 19
	.cfi_restore 20
.LVL529:
	ldp	x29, x30, [sp], 32
	.cfi_restore 29
	.cfi_restore 30
	.cfi_def_cfa 31, 0
	ret
	.cfi_endproc
.LFE2334:
	.size	VP8DEC_RecycleImage, .-VP8DEC_RecycleImage
	.align	2
	.global	VP8DEC_GetRemainImg
	.type	VP8DEC_GetRemainImg, %function
VP8DEC_GetRemainImg:
.LFB2335:
	.loc 1 1964 0
	.cfi_startproc
.LVL530:
	stp	x29, x30, [sp, -16]!
	.cfi_def_cfa_offset 16
	.cfi_offset 29, -16
	.cfi_offset 30, -8
	.loc 1 1967 0
	add	x0, x0, 8192
.LVL531:
	.loc 1 1964 0
	add	x29, sp, 0
	.cfi_def_cfa_register 29
	.loc 1 1967 0
	bl	GetVoLastImageID
.LVL532:
	.loc 1 1970 0
	ldp	x29, x30, [sp], 16
	.cfi_restore 30
	.cfi_restore 29
	.cfi_def_cfa 31, 0
	ret
	.cfi_endproc
.LFE2335:
	.size	VP8DEC_GetRemainImg, .-VP8DEC_GetRemainImg
	.align	2
	.global	VP8DEC_GetImageBuffer
	.type	VP8DEC_GetImageBuffer, %function
VP8DEC_GetImageBuffer:
.LFB2336:
	.loc 1 1973 0
	.cfi_startproc
.LVL533:
	stp	x29, x30, [sp, -32]!
	.cfi_def_cfa_offset 32
	.cfi_offset 29, -32
	.cfi_offset 30, -24
	add	x29, sp, 0
	.cfi_def_cfa_register 29
	stp	x19, x20, [sp,16]
	.cfi_offset 19, -16
	.cfi_offset 20, -8
	.loc 1 1973 0
	mov	x20, x0
	.loc 1 1975 0
	ldr	w0, [x0,8808]
.LVL534:
	bl	FSP_IsNewFsAvalible
.LVL535:
	cmp	w0, 1
	mov	w19, w0
	beq	.L524
	.loc 1 1979 0
	ldr	w0, [x20,8808]
	.loc 1 1984 0
	mov	w19, 0
	.loc 1 1979 0
	bl	FSP_IsNewFsAvalible
.LVL536:
	cmn	w0, #1
	beq	.L529
.L524:
	.loc 1 1985 0
	mov	w0, w19
	ldp	x19, x20, [sp,16]
	.cfi_remember_state
	.cfi_restore 20
	.cfi_restore 19
.LVL537:
	ldp	x29, x30, [sp], 32
	.cfi_restore 30
	.cfi_restore 29
	.cfi_def_cfa 31, 0
	ret
.LVL538:
.L529:
	.cfi_restore_state
	.loc 1 1981 0
	ldr	w0, [x20,8808]
	add	x1, x20, 8192
	bl	FSP_ClearNotInVoQueue
.LVL539:
	.loc 1 1985 0
	mov	w0, w19
	ldp	x19, x20, [sp,16]
	.cfi_restore 19
	.cfi_restore 20
.LVL540:
	ldp	x29, x30, [sp], 32
	.cfi_restore 29
	.cfi_restore 30
	.cfi_def_cfa 31, 0
	ret
	.cfi_endproc
.LFE2336:
	.size	VP8DEC_GetImageBuffer, .-VP8DEC_GetImageBuffer
	.align	2
	.global	VP8DEC_GetImageWidth
	.type	VP8DEC_GetImageWidth, %function
VP8DEC_GetImageWidth:
.LFB2337:
	.loc 1 1988 0
	.cfi_startproc
.LVL541:
	.loc 1 1994 0
	ldr	w0, [x0,5788]
.LVL542:
	ret
	.cfi_endproc
.LFE2337:
	.size	VP8DEC_GetImageWidth, .-VP8DEC_GetImageWidth
	.align	2
	.global	VP8DEC_GetImageHeight
	.type	VP8DEC_GetImageHeight, %function
VP8DEC_GetImageHeight:
.LFB2338:
	.loc 1 1997 0
	.cfi_startproc
.LVL543:
	.loc 1 2003 0
	ldr	w0, [x0,5792]
.LVL544:
	ret
	.cfi_endproc
.LFE2338:
	.size	VP8DEC_GetImageHeight, .-VP8DEC_GetImageHeight
	.global	default_uv_mode_prob
	.global	default_ymode_prob
	.global	VP8_VFMWBITREADER_NORM
	.global	vp8_mv_update_probs
	.global	vp8_default_mv_context
	.global	vp8_coef_update_probs
	.global	default_coef_probs
	.section	.rodata
	.align	3
.LANCHOR0 = . + 0
	.type	vp8_default_mv_context, %object
	.size	vp8_default_mv_context, 38
vp8_default_mv_context:
	.byte	-94
	.byte	-128
	.byte	-31
	.byte	-110
	.byte	-84
	.byte	-109
	.byte	-42
	.byte	39
	.byte	-100
	.byte	-128
	.byte	-127
	.byte	-124
	.byte	75
	.byte	-111
	.byte	-78
	.byte	-50
	.byte	-17
	.byte	-2
	.byte	-2
	.byte	-92
	.byte	-128
	.byte	-52
	.byte	-86
	.byte	119
	.byte	-21
	.byte	-116
	.byte	-26
	.byte	-28
	.byte	-128
	.byte	-126
	.byte	-126
	.byte	74
	.byte	-108
	.byte	-76
	.byte	-53
	.byte	-20
	.byte	-2
	.byte	-2
	.zero	2
	.type	default_coef_probs, %object
	.size	default_coef_probs, 1056
default_coef_probs:
	.byte	-128
	.byte	-128
	.byte	-128
	.byte	-128
	.byte	-128
	.byte	-128
	.byte	-128
	.byte	-128
	.byte	-128
	.byte	-128
	.byte	-128
	.byte	-128
	.byte	-128
	.byte	-128
	.byte	-128
	.byte	-128
	.byte	-128
	.byte	-128
	.byte	-128
	.byte	-128
	.byte	-128
	.byte	-128
	.byte	-128
	.byte	-128
	.byte	-128
	.byte	-128
	.byte	-128
	.byte	-128
	.byte	-128
	.byte	-128
	.byte	-128
	.byte	-128
	.byte	-128
	.byte	-3
	.byte	-120
	.byte	-2
	.byte	-1
	.byte	-28
	.byte	-37
	.byte	-128
	.byte	-128
	.byte	-128
	.byte	-128
	.byte	-128
	.byte	-67
	.byte	-127
	.byte	-14
	.byte	-1
	.byte	-29
	.byte	-43
	.byte	-1
	.byte	-37
	.byte	-128
	.byte	-128
	.byte	-128
	.byte	106
	.byte	126
	.byte	-29
	.byte	-4
	.byte	-42
	.byte	-47
	.byte	-1
	.byte	-1
	.byte	-128
	.byte	-128
	.byte	-128
	.byte	1
	.byte	98
	.byte	-8
	.byte	-1
	.byte	-20
	.byte	-30
	.byte	-1
	.byte	-1
	.byte	-128
	.byte	-128
	.byte	-128
	.byte	-75
	.byte	-123
	.byte	-18
	.byte	-2
	.byte	-35
	.byte	-22
	.byte	-1
	.byte	-102
	.byte	-128
	.byte	-128
	.byte	-128
	.byte	78
	.byte	-122
	.byte	-54
	.byte	-9
	.byte	-58
	.byte	-76
	.byte	-1
	.byte	-37
	.byte	-128
	.byte	-128
	.byte	-128
	.byte	1
	.byte	-71
	.byte	-7
	.byte	-1
	.byte	-13
	.byte	-1
	.byte	-128
	.byte	-128
	.byte	-128
	.byte	-128
	.byte	-128
	.byte	-72
	.byte	-106
	.byte	-9
	.byte	-1
	.byte	-20
	.byte	-32
	.byte	-128
	.byte	-128
	.byte	-128
	.byte	-128
	.byte	-128
	.byte	77
	.byte	110
	.byte	-40
	.byte	-1
	.byte	-20
	.byte	-26
	.byte	-128
	.byte	-128
	.byte	-128
	.byte	-128
	.byte	-128
	.byte	1
	.byte	101
	.byte	-5
	.byte	-1
	.byte	-15
	.byte	-1
	.byte	-128
	.byte	-128
	.byte	-128
	.byte	-128
	.byte	-128
	.byte	-86
	.byte	-117
	.byte	-15
	.byte	-4
	.byte	-20
	.byte	-47
	.byte	-1
	.byte	-1
	.byte	-128
	.byte	-128
	.byte	-128
	.byte	37
	.byte	116
	.byte	-60
	.byte	-13
	.byte	-28
	.byte	-1
	.byte	-1
	.byte	-1
	.byte	-128
	.byte	-128
	.byte	-128
	.byte	1
	.byte	-52
	.byte	-2
	.byte	-1
	.byte	-11
	.byte	-1
	.byte	-128
	.byte	-128
	.byte	-128
	.byte	-128
	.byte	-128
	.byte	-49
	.byte	-96
	.byte	-6
	.byte	-1
	.byte	-18
	.byte	-128
	.byte	-128
	.byte	-128
	.byte	-128
	.byte	-128
	.byte	-128
	.byte	102
	.byte	103
	.byte	-25
	.byte	-1
	.byte	-45
	.byte	-85
	.byte	-128
	.byte	-128
	.byte	-128
	.byte	-128
	.byte	-128
	.byte	1
	.byte	-104
	.byte	-4
	.byte	-1
	.byte	-16
	.byte	-1
	.byte	-128
	.byte	-128
	.byte	-128
	.byte	-128
	.byte	-128
	.byte	-79
	.byte	-121
	.byte	-13
	.byte	-1
	.byte	-22
	.byte	-31
	.byte	-128
	.byte	-128
	.byte	-128
	.byte	-128
	.byte	-128
	.byte	80
	.byte	-127
	.byte	-45
	.byte	-1
	.byte	-62
	.byte	-32
	.byte	-128
	.byte	-128
	.byte	-128
	.byte	-128
	.byte	-128
	.byte	1
	.byte	1
	.byte	-1
	.byte	-128
	.byte	-128
	.byte	-128
	.byte	-128
	.byte	-128
	.byte	-128
	.byte	-128
	.byte	-128
	.byte	-10
	.byte	1
	.byte	-1
	.byte	-128
	.byte	-128
	.byte	-128
	.byte	-128
	.byte	-128
	.byte	-128
	.byte	-128
	.byte	-128
	.byte	-1
	.byte	-128
	.byte	-128
	.byte	-128
	.byte	-128
	.byte	-128
	.byte	-128
	.byte	-128
	.byte	-128
	.byte	-128
	.byte	-128
	.byte	-58
	.byte	35
	.byte	-19
	.byte	-33
	.byte	-63
	.byte	-69
	.byte	-94
	.byte	-96
	.byte	-111
	.byte	-101
	.byte	62
	.byte	-125
	.byte	45
	.byte	-58
	.byte	-35
	.byte	-84
	.byte	-80
	.byte	-36
	.byte	-99
	.byte	-4
	.byte	-35
	.byte	1
	.byte	68
	.byte	47
	.byte	-110
	.byte	-48
	.byte	-107
	.byte	-89
	.byte	-35
	.byte	-94
	.byte	-1
	.byte	-33
	.byte	-128
	.byte	1
	.byte	-107
	.byte	-15
	.byte	-1
	.byte	-35
	.byte	-32
	.byte	-1
	.byte	-1
	.byte	-128
	.byte	-128
	.byte	-128
	.byte	-72
	.byte	-115
	.byte	-22
	.byte	-3
	.byte	-34
	.byte	-36
	.byte	-1
	.byte	-57
	.byte	-128
	.byte	-128
	.byte	-128
	.byte	81
	.byte	99
	.byte	-75
	.byte	-14
	.byte	-80
	.byte	-66
	.byte	-7
	.byte	-54
	.byte	-1
	.byte	-1
	.byte	-128
	.byte	1
	.byte	-127
	.byte	-24
	.byte	-3
	.byte	-42
	.byte	-59
	.byte	-14
	.byte	-60
	.byte	-1
	.byte	-1
	.byte	-128
	.byte	99
	.byte	121
	.byte	-46
	.byte	-6
	.byte	-55
	.byte	-58
	.byte	-1
	.byte	-54
	.byte	-128
	.byte	-128
	.byte	-128
	.byte	23
	.byte	91
	.byte	-93
	.byte	-14
	.byte	-86
	.byte	-69
	.byte	-9
	.byte	-46
	.byte	-1
	.byte	-1
	.byte	-128
	.byte	1
	.byte	-56
	.byte	-10
	.byte	-1
	.byte	-22
	.byte	-1
	.byte	-128
	.byte	-128
	.byte	-128
	.byte	-128
	.byte	-128
	.byte	109
	.byte	-78
	.byte	-15
	.byte	-1
	.byte	-25
	.byte	-11
	.byte	-1
	.byte	-1
	.byte	-128
	.byte	-128
	.byte	-128
	.byte	44
	.byte	-126
	.byte	-55
	.byte	-3
	.byte	-51
	.byte	-64
	.byte	-1
	.byte	-1
	.byte	-128
	.byte	-128
	.byte	-128
	.byte	1
	.byte	-124
	.byte	-17
	.byte	-5
	.byte	-37
	.byte	-47
	.byte	-1
	.byte	-91
	.byte	-128
	.byte	-128
	.byte	-128
	.byte	94
	.byte	-120
	.byte	-31
	.byte	-5
	.byte	-38
	.byte	-66
	.byte	-1
	.byte	-1
	.byte	-128
	.byte	-128
	.byte	-128
	.byte	22
	.byte	100
	.byte	-82
	.byte	-11
	.byte	-70
	.byte	-95
	.byte	-1
	.byte	-57
	.byte	-128
	.byte	-128
	.byte	-128
	.byte	1
	.byte	-74
	.byte	-7
	.byte	-1
	.byte	-24
	.byte	-21
	.byte	-128
	.byte	-128
	.byte	-128
	.byte	-128
	.byte	-128
	.byte	124
	.byte	-113
	.byte	-15
	.byte	-1
	.byte	-29
	.byte	-22
	.byte	-128
	.byte	-128
	.byte	-128
	.byte	-128
	.byte	-128
	.byte	35
	.byte	77
	.byte	-75
	.byte	-5
	.byte	-63
	.byte	-45
	.byte	-1
	.byte	-51
	.byte	-128
	.byte	-128
	.byte	-128
	.byte	1
	.byte	-99
	.byte	-9
	.byte	-1
	.byte	-20
	.byte	-25
	.byte	-1
	.byte	-1
	.byte	-128
	.byte	-128
	.byte	-128
	.byte	121
	.byte	-115
	.byte	-21
	.byte	-1
	.byte	-31
	.byte	-29
	.byte	-1
	.byte	-1
	.byte	-128
	.byte	-128
	.byte	-128
	.byte	45
	.byte	99
	.byte	-68
	.byte	-5
	.byte	-61
	.byte	-39
	.byte	-1
	.byte	-32
	.byte	-128
	.byte	-128
	.byte	-128
	.byte	1
	.byte	1
	.byte	-5
	.byte	-1
	.byte	-43
	.byte	-1
	.byte	-128
	.byte	-128
	.byte	-128
	.byte	-128
	.byte	-128
	.byte	-53
	.byte	1
	.byte	-8
	.byte	-1
	.byte	-1
	.byte	-128
	.byte	-128
	.byte	-128
	.byte	-128
	.byte	-128
	.byte	-128
	.byte	-119
	.byte	1
	.byte	-79
	.byte	-1
	.byte	-32
	.byte	-1
	.byte	-128
	.byte	-128
	.byte	-128
	.byte	-128
	.byte	-128
	.byte	-3
	.byte	9
	.byte	-8
	.byte	-5
	.byte	-49
	.byte	-48
	.byte	-1
	.byte	-64
	.byte	-128
	.byte	-128
	.byte	-128
	.byte	-81
	.byte	13
	.byte	-32
	.byte	-13
	.byte	-63
	.byte	-71
	.byte	-7
	.byte	-58
	.byte	-1
	.byte	-1
	.byte	-128
	.byte	73
	.byte	17
	.byte	-85
	.byte	-35
	.byte	-95
	.byte	-77
	.byte	-20
	.byte	-89
	.byte	-1
	.byte	-22
	.byte	-128
	.byte	1
	.byte	95
	.byte	-9
	.byte	-3
	.byte	-44
	.byte	-73
	.byte	-1
	.byte	-1
	.byte	-128
	.byte	-128
	.byte	-128
	.byte	-17
	.byte	90
	.byte	-12
	.byte	-6
	.byte	-45
	.byte	-47
	.byte	-1
	.byte	-1
	.byte	-128
	.byte	-128
	.byte	-128
	.byte	-101
	.byte	77
	.byte	-61
	.byte	-8
	.byte	-68
	.byte	-61
	.byte	-1
	.byte	-1
	.byte	-128
	.byte	-128
	.byte	-128
	.byte	1
	.byte	24
	.byte	-17
	.byte	-5
	.byte	-38
	.byte	-37
	.byte	-1
	.byte	-51
	.byte	-128
	.byte	-128
	.byte	-128
	.byte	-55
	.byte	51
	.byte	-37
	.byte	-1
	.byte	-60
	.byte	-70
	.byte	-128
	.byte	-128
	.byte	-128
	.byte	-128
	.byte	-128
	.byte	69
	.byte	46
	.byte	-66
	.byte	-17
	.byte	-55
	.byte	-38
	.byte	-1
	.byte	-28
	.byte	-128
	.byte	-128
	.byte	-128
	.byte	1
	.byte	-65
	.byte	-5
	.byte	-1
	.byte	-1
	.byte	-128
	.byte	-128
	.byte	-128
	.byte	-128
	.byte	-128
	.byte	-128
	.byte	-33
	.byte	-91
	.byte	-7
	.byte	-1
	.byte	-43
	.byte	-1
	.byte	-128
	.byte	-128
	.byte	-128
	.byte	-128
	.byte	-128
	.byte	-115
	.byte	124
	.byte	-8
	.byte	-1
	.byte	-1
	.byte	-128
	.byte	-128
	.byte	-128
	.byte	-128
	.byte	-128
	.byte	-128
	.byte	1
	.byte	16
	.byte	-8
	.byte	-1
	.byte	-1
	.byte	-128
	.byte	-128
	.byte	-128
	.byte	-128
	.byte	-128
	.byte	-128
	.byte	-66
	.byte	36
	.byte	-26
	.byte	-1
	.byte	-20
	.byte	-1
	.byte	-128
	.byte	-128
	.byte	-128
	.byte	-128
	.byte	-128
	.byte	-107
	.byte	1
	.byte	-1
	.byte	-128
	.byte	-128
	.byte	-128
	.byte	-128
	.byte	-128
	.byte	-128
	.byte	-128
	.byte	-128
	.byte	1
	.byte	-30
	.byte	-1
	.byte	-128
	.byte	-128
	.byte	-128
	.byte	-128
	.byte	-128
	.byte	-128
	.byte	-128
	.byte	-128
	.byte	-9
	.byte	-64
	.byte	-1
	.byte	-128
	.byte	-128
	.byte	-128
	.byte	-128
	.byte	-128
	.byte	-128
	.byte	-128
	.byte	-128
	.byte	-16
	.byte	-128
	.byte	-1
	.byte	-128
	.byte	-128
	.byte	-128
	.byte	-128
	.byte	-128
	.byte	-128
	.byte	-128
	.byte	-128
	.byte	1
	.byte	-122
	.byte	-4
	.byte	-1
	.byte	-1
	.byte	-128
	.byte	-128
	.byte	-128
	.byte	-128
	.byte	-128
	.byte	-128
	.byte	-43
	.byte	62
	.byte	-6
	.byte	-1
	.byte	-1
	.byte	-128
	.byte	-128
	.byte	-128
	.byte	-128
	.byte	-128
	.byte	-128
	.byte	55
	.byte	93
	.byte	-1
	.byte	-128
	.byte	-128
	.byte	-128
	.byte	-128
	.byte	-128
	.byte	-128
	.byte	-128
	.byte	-128
	.byte	-128
	.byte	-128
	.byte	-128
	.byte	-128
	.byte	-128
	.byte	-128
	.byte	-128
	.byte	-128
	.byte	-128
	.byte	-128
	.byte	-128
	.byte	-128
	.byte	-128
	.byte	-128
	.byte	-128
	.byte	-128
	.byte	-128
	.byte	-128
	.byte	-128
	.byte	-128
	.byte	-128
	.byte	-128
	.byte	-128
	.byte	-128
	.byte	-128
	.byte	-128
	.byte	-128
	.byte	-128
	.byte	-128
	.byte	-128
	.byte	-128
	.byte	-128
	.byte	-128
	.byte	-54
	.byte	24
	.byte	-43
	.byte	-21
	.byte	-70
	.byte	-65
	.byte	-36
	.byte	-96
	.byte	-16
	.byte	-81
	.byte	-1
	.byte	126
	.byte	38
	.byte	-74
	.byte	-24
	.byte	-87
	.byte	-72
	.byte	-28
	.byte	-82
	.byte	-1
	.byte	-69
	.byte	-128
	.byte	61
	.byte	46
	.byte	-118
	.byte	-37
	.byte	-105
	.byte	-78
	.byte	-16
	.byte	-86
	.byte	-1
	.byte	-40
	.byte	-128
	.byte	1
	.byte	112
	.byte	-26
	.byte	-6
	.byte	-57
	.byte	-65
	.byte	-9
	.byte	-97
	.byte	-1
	.byte	-1
	.byte	-128
	.byte	-90
	.byte	109
	.byte	-28
	.byte	-4
	.byte	-45
	.byte	-41
	.byte	-1
	.byte	-82
	.byte	-128
	.byte	-128
	.byte	-128
	.byte	39
	.byte	77
	.byte	-94
	.byte	-24
	.byte	-84
	.byte	-76
	.byte	-11
	.byte	-78
	.byte	-1
	.byte	-1
	.byte	-128
	.byte	1
	.byte	52
	.byte	-36
	.byte	-10
	.byte	-58
	.byte	-57
	.byte	-7
	.byte	-36
	.byte	-1
	.byte	-1
	.byte	-128
	.byte	124
	.byte	74
	.byte	-65
	.byte	-13
	.byte	-73
	.byte	-63
	.byte	-6
	.byte	-35
	.byte	-1
	.byte	-1
	.byte	-128
	.byte	24
	.byte	71
	.byte	-126
	.byte	-37
	.byte	-102
	.byte	-86
	.byte	-13
	.byte	-74
	.byte	-1
	.byte	-1
	.byte	-128
	.byte	1
	.byte	-74
	.byte	-31
	.byte	-7
	.byte	-37
	.byte	-16
	.byte	-1
	.byte	-32
	.byte	-128
	.byte	-128
	.byte	-128
	.byte	-107
	.byte	-106
	.byte	-30
	.byte	-4
	.byte	-40
	.byte	-51
	.byte	-1
	.byte	-85
	.byte	-128
	.byte	-128
	.byte	-128
	.byte	28
	.byte	108
	.byte	-86
	.byte	-14
	.byte	-73
	.byte	-62
	.byte	-2
	.byte	-33
	.byte	-1
	.byte	-1
	.byte	-128
	.byte	1
	.byte	81
	.byte	-26
	.byte	-4
	.byte	-52
	.byte	-53
	.byte	-1
	.byte	-64
	.byte	-128
	.byte	-128
	.byte	-128
	.byte	123
	.byte	102
	.byte	-47
	.byte	-9
	.byte	-68
	.byte	-60
	.byte	-1
	.byte	-23
	.byte	-128
	.byte	-128
	.byte	-128
	.byte	20
	.byte	95
	.byte	-103
	.byte	-13
	.byte	-92
	.byte	-83
	.byte	-1
	.byte	-53
	.byte	-128
	.byte	-128
	.byte	-128
	.byte	1
	.byte	-34
	.byte	-8
	.byte	-1
	.byte	-40
	.byte	-43
	.byte	-128
	.byte	-128
	.byte	-128
	.byte	-128
	.byte	-128
	.byte	-88
	.byte	-81
	.byte	-10
	.byte	-4
	.byte	-21
	.byte	-51
	.byte	-1
	.byte	-1
	.byte	-128
	.byte	-128
	.byte	-128
	.byte	47
	.byte	116
	.byte	-41
	.byte	-1
	.byte	-45
	.byte	-44
	.byte	-1
	.byte	-1
	.byte	-128
	.byte	-128
	.byte	-128
	.byte	1
	.byte	121
	.byte	-20
	.byte	-3
	.byte	-44
	.byte	-42
	.byte	-1
	.byte	-1
	.byte	-128
	.byte	-128
	.byte	-128
	.byte	-115
	.byte	84
	.byte	-43
	.byte	-4
	.byte	-55
	.byte	-54
	.byte	-1
	.byte	-37
	.byte	-128
	.byte	-128
	.byte	-128
	.byte	42
	.byte	80
	.byte	-96
	.byte	-16
	.byte	-94
	.byte	-71
	.byte	-1
	.byte	-51
	.byte	-128
	.byte	-128
	.byte	-128
	.byte	1
	.byte	1
	.byte	-1
	.byte	-128
	.byte	-128
	.byte	-128
	.byte	-128
	.byte	-128
	.byte	-128
	.byte	-128
	.byte	-128
	.byte	-12
	.byte	1
	.byte	-1
	.byte	-128
	.byte	-128
	.byte	-128
	.byte	-128
	.byte	-128
	.byte	-128
	.byte	-128
	.byte	-128
	.byte	-18
	.byte	1
	.byte	-1
	.byte	-128
	.byte	-128
	.byte	-128
	.byte	-128
	.byte	-128
	.byte	-128
	.byte	-128
	.byte	-128
	.type	VP8_VFMWBITREADER_NORM, %object
	.size	VP8_VFMWBITREADER_NORM, 256
VP8_VFMWBITREADER_NORM:
	.byte	0
	.byte	7
	.byte	6
	.byte	6
	.byte	5
	.byte	5
	.byte	5
	.byte	5
	.byte	4
	.byte	4
	.byte	4
	.byte	4
	.byte	4
	.byte	4
	.byte	4
	.byte	4
	.byte	3
	.byte	3
	.byte	3
	.byte	3
	.byte	3
	.byte	3
	.byte	3
	.byte	3
	.byte	3
	.byte	3
	.byte	3
	.byte	3
	.byte	3
	.byte	3
	.byte	3
	.byte	3
	.byte	2
	.byte	2
	.byte	2
	.byte	2
	.byte	2
	.byte	2
	.byte	2
	.byte	2
	.byte	2
	.byte	2
	.byte	2
	.byte	2
	.byte	2
	.byte	2
	.byte	2
	.byte	2
	.byte	2
	.byte	2
	.byte	2
	.byte	2
	.byte	2
	.byte	2
	.byte	2
	.byte	2
	.byte	2
	.byte	2
	.byte	2
	.byte	2
	.byte	2
	.byte	2
	.byte	2
	.byte	2
	.byte	1
	.byte	1
	.byte	1
	.byte	1
	.byte	1
	.byte	1
	.byte	1
	.byte	1
	.byte	1
	.byte	1
	.byte	1
	.byte	1
	.byte	1
	.byte	1
	.byte	1
	.byte	1
	.byte	1
	.byte	1
	.byte	1
	.byte	1
	.byte	1
	.byte	1
	.byte	1
	.byte	1
	.byte	1
	.byte	1
	.byte	1
	.byte	1
	.byte	1
	.byte	1
	.byte	1
	.byte	1
	.byte	1
	.byte	1
	.byte	1
	.byte	1
	.byte	1
	.byte	1
	.byte	1
	.byte	1
	.byte	1
	.byte	1
	.byte	1
	.byte	1
	.byte	1
	.byte	1
	.byte	1
	.byte	1
	.byte	1
	.byte	1
	.byte	1
	.byte	1
	.byte	1
	.byte	1
	.byte	1
	.byte	1
	.byte	1
	.byte	1
	.byte	1
	.byte	1
	.byte	1
	.byte	1
	.byte	1
	.byte	1
	.byte	0
	.byte	0
	.byte	0
	.byte	0
	.byte	0
	.byte	0
	.byte	0
	.byte	0
	.byte	0
	.byte	0
	.byte	0
	.byte	0
	.byte	0
	.byte	0
	.byte	0
	.byte	0
	.byte	0
	.byte	0
	.byte	0
	.byte	0
	.byte	0
	.byte	0
	.byte	0
	.byte	0
	.byte	0
	.byte	0
	.byte	0
	.byte	0
	.byte	0
	.byte	0
	.byte	0
	.byte	0
	.byte	0
	.byte	0
	.byte	0
	.byte	0
	.byte	0
	.byte	0
	.byte	0
	.byte	0
	.byte	0
	.byte	0
	.byte	0
	.byte	0
	.byte	0
	.byte	0
	.byte	0
	.byte	0
	.byte	0
	.byte	0
	.byte	0
	.byte	0
	.byte	0
	.byte	0
	.byte	0
	.byte	0
	.byte	0
	.byte	0
	.byte	0
	.byte	0
	.byte	0
	.byte	0
	.byte	0
	.byte	0
	.byte	0
	.byte	0
	.byte	0
	.byte	0
	.byte	0
	.byte	0
	.byte	0
	.byte	0
	.byte	0
	.byte	0
	.byte	0
	.byte	0
	.byte	0
	.byte	0
	.byte	0
	.byte	0
	.byte	0
	.byte	0
	.byte	0
	.byte	0
	.byte	0
	.byte	0
	.byte	0
	.byte	0
	.byte	0
	.byte	0
	.byte	0
	.byte	0
	.byte	0
	.byte	0
	.byte	0
	.byte	0
	.byte	0
	.byte	0
	.byte	0
	.byte	0
	.byte	0
	.byte	0
	.byte	0
	.byte	0
	.byte	0
	.byte	0
	.byte	0
	.byte	0
	.byte	0
	.byte	0
	.byte	0
	.byte	0
	.byte	0
	.byte	0
	.byte	0
	.byte	0
	.byte	0
	.byte	0
	.byte	0
	.byte	0
	.byte	0
	.byte	0
	.byte	0
	.byte	0
	.byte	0
	.byte	0
	.byte	0
	.byte	0
	.align	3
.LANCHOR2 = . + 0
	.type	vp8_mv_update_probs, %object
	.size	vp8_mv_update_probs, 38
vp8_mv_update_probs:
	.byte	-19
	.byte	-10
	.byte	-3
	.byte	-3
	.byte	-2
	.byte	-2
	.byte	-2
	.byte	-2
	.byte	-2
	.byte	-2
	.byte	-2
	.byte	-2
	.byte	-2
	.byte	-2
	.byte	-6
	.byte	-6
	.byte	-4
	.byte	-2
	.byte	-2
	.byte	-25
	.byte	-13
	.byte	-11
	.byte	-3
	.byte	-2
	.byte	-2
	.byte	-2
	.byte	-2
	.byte	-2
	.byte	-2
	.byte	-2
	.byte	-2
	.byte	-2
	.byte	-2
	.byte	-5
	.byte	-5
	.byte	-2
	.byte	-2
	.byte	-2
	.zero	2
	.type	vp8_coef_update_probs, %object
	.size	vp8_coef_update_probs, 1056
vp8_coef_update_probs:
	.byte	-1
	.byte	-1
	.byte	-1
	.byte	-1
	.byte	-1
	.byte	-1
	.byte	-1
	.byte	-1
	.byte	-1
	.byte	-1
	.byte	-1
	.byte	-1
	.byte	-1
	.byte	-1
	.byte	-1
	.byte	-1
	.byte	-1
	.byte	-1
	.byte	-1
	.byte	-1
	.byte	-1
	.byte	-1
	.byte	-1
	.byte	-1
	.byte	-1
	.byte	-1
	.byte	-1
	.byte	-1
	.byte	-1
	.byte	-1
	.byte	-1
	.byte	-1
	.byte	-1
	.byte	-80
	.byte	-10
	.byte	-1
	.byte	-1
	.byte	-1
	.byte	-1
	.byte	-1
	.byte	-1
	.byte	-1
	.byte	-1
	.byte	-1
	.byte	-33
	.byte	-15
	.byte	-4
	.byte	-1
	.byte	-1
	.byte	-1
	.byte	-1
	.byte	-1
	.byte	-1
	.byte	-1
	.byte	-1
	.byte	-7
	.byte	-3
	.byte	-3
	.byte	-1
	.byte	-1
	.byte	-1
	.byte	-1
	.byte	-1
	.byte	-1
	.byte	-1
	.byte	-1
	.byte	-1
	.byte	-12
	.byte	-4
	.byte	-1
	.byte	-1
	.byte	-1
	.byte	-1
	.byte	-1
	.byte	-1
	.byte	-1
	.byte	-1
	.byte	-22
	.byte	-2
	.byte	-2
	.byte	-1
	.byte	-1
	.byte	-1
	.byte	-1
	.byte	-1
	.byte	-1
	.byte	-1
	.byte	-1
	.byte	-3
	.byte	-1
	.byte	-1
	.byte	-1
	.byte	-1
	.byte	-1
	.byte	-1
	.byte	-1
	.byte	-1
	.byte	-1
	.byte	-1
	.byte	-1
	.byte	-10
	.byte	-2
	.byte	-1
	.byte	-1
	.byte	-1
	.byte	-1
	.byte	-1
	.byte	-1
	.byte	-1
	.byte	-1
	.byte	-17
	.byte	-3
	.byte	-2
	.byte	-1
	.byte	-1
	.byte	-1
	.byte	-1
	.byte	-1
	.byte	-1
	.byte	-1
	.byte	-1
	.byte	-2
	.byte	-1
	.byte	-2
	.byte	-1
	.byte	-1
	.byte	-1
	.byte	-1
	.byte	-1
	.byte	-1
	.byte	-1
	.byte	-1
	.byte	-1
	.byte	-8
	.byte	-2
	.byte	-1
	.byte	-1
	.byte	-1
	.byte	-1
	.byte	-1
	.byte	-1
	.byte	-1
	.byte	-1
	.byte	-5
	.byte	-1
	.byte	-2
	.byte	-1
	.byte	-1
	.byte	-1
	.byte	-1
	.byte	-1
	.byte	-1
	.byte	-1
	.byte	-1
	.byte	-1
	.byte	-1
	.byte	-1
	.byte	-1
	.byte	-1
	.byte	-1
	.byte	-1
	.byte	-1
	.byte	-1
	.byte	-1
	.byte	-1
	.byte	-1
	.byte	-3
	.byte	-2
	.byte	-1
	.byte	-1
	.byte	-1
	.byte	-1
	.byte	-1
	.byte	-1
	.byte	-1
	.byte	-1
	.byte	-5
	.byte	-2
	.byte	-2
	.byte	-1
	.byte	-1
	.byte	-1
	.byte	-1
	.byte	-1
	.byte	-1
	.byte	-1
	.byte	-1
	.byte	-2
	.byte	-1
	.byte	-2
	.byte	-1
	.byte	-1
	.byte	-1
	.byte	-1
	.byte	-1
	.byte	-1
	.byte	-1
	.byte	-1
	.byte	-1
	.byte	-2
	.byte	-3
	.byte	-1
	.byte	-2
	.byte	-1
	.byte	-1
	.byte	-1
	.byte	-1
	.byte	-1
	.byte	-1
	.byte	-6
	.byte	-1
	.byte	-2
	.byte	-1
	.byte	-2
	.byte	-1
	.byte	-1
	.byte	-1
	.byte	-1
	.byte	-1
	.byte	-1
	.byte	-2
	.byte	-1
	.byte	-1
	.byte	-1
	.byte	-1
	.byte	-1
	.byte	-1
	.byte	-1
	.byte	-1
	.byte	-1
	.byte	-1
	.byte	-1
	.byte	-1
	.byte	-1
	.byte	-1
	.byte	-1
	.byte	-1
	.byte	-1
	.byte	-1
	.byte	-1
	.byte	-1
	.byte	-1
	.byte	-1
	.byte	-1
	.byte	-1
	.byte	-1
	.byte	-1
	.byte	-1
	.byte	-1
	.byte	-1
	.byte	-1
	.byte	-1
	.byte	-1
	.byte	-1
	.byte	-1
	.byte	-1
	.byte	-1
	.byte	-1
	.byte	-1
	.byte	-1
	.byte	-1
	.byte	-1
	.byte	-1
	.byte	-1
	.byte	-39
	.byte	-1
	.byte	-1
	.byte	-1
	.byte	-1
	.byte	-1
	.byte	-1
	.byte	-1
	.byte	-1
	.byte	-1
	.byte	-1
	.byte	-31
	.byte	-4
	.byte	-15
	.byte	-3
	.byte	-1
	.byte	-1
	.byte	-2
	.byte	-1
	.byte	-1
	.byte	-1
	.byte	-1
	.byte	-22
	.byte	-6
	.byte	-15
	.byte	-6
	.byte	-3
	.byte	-1
	.byte	-3
	.byte	-2
	.byte	-1
	.byte	-1
	.byte	-1
	.byte	-1
	.byte	-2
	.byte	-1
	.byte	-1
	.byte	-1
	.byte	-1
	.byte	-1
	.byte	-1
	.byte	-1
	.byte	-1
	.byte	-1
	.byte	-33
	.byte	-2
	.byte	-2
	.byte	-1
	.byte	-1
	.byte	-1
	.byte	-1
	.byte	-1
	.byte	-1
	.byte	-1
	.byte	-1
	.byte	-18
	.byte	-3
	.byte	-2
	.byte	-2
	.byte	-1
	.byte	-1
	.byte	-1
	.byte	-1
	.byte	-1
	.byte	-1
	.byte	-1
	.byte	-1
	.byte	-8
	.byte	-2
	.byte	-1
	.byte	-1
	.byte	-1
	.byte	-1
	.byte	-1
	.byte	-1
	.byte	-1
	.byte	-1
	.byte	-7
	.byte	-2
	.byte	-1
	.byte	-1
	.byte	-1
	.byte	-1
	.byte	-1
	.byte	-1
	.byte	-1
	.byte	-1
	.byte	-1
	.byte	-1
	.byte	-1
	.byte	-1
	.byte	-1
	.byte	-1
	.byte	-1
	.byte	-1
	.byte	-1
	.byte	-1
	.byte	-1
	.byte	-1
	.byte	-1
	.byte	-3
	.byte	-1
	.byte	-1
	.byte	-1
	.byte	-1
	.byte	-1
	.byte	-1
	.byte	-1
	.byte	-1
	.byte	-1
	.byte	-9
	.byte	-2
	.byte	-1
	.byte	-1
	.byte	-1
	.byte	-1
	.byte	-1
	.byte	-1
	.byte	-1
	.byte	-1
	.byte	-1
	.byte	-1
	.byte	-1
	.byte	-1
	.byte	-1
	.byte	-1
	.byte	-1
	.byte	-1
	.byte	-1
	.byte	-1
	.byte	-1
	.byte	-1
	.byte	-1
	.byte	-3
	.byte	-2
	.byte	-1
	.byte	-1
	.byte	-1
	.byte	-1
	.byte	-1
	.byte	-1
	.byte	-1
	.byte	-1
	.byte	-4
	.byte	-1
	.byte	-1
	.byte	-1
	.byte	-1
	.byte	-1
	.byte	-1
	.byte	-1
	.byte	-1
	.byte	-1
	.byte	-1
	.byte	-1
	.byte	-1
	.byte	-1
	.byte	-1
	.byte	-1
	.byte	-1
	.byte	-1
	.byte	-1
	.byte	-1
	.byte	-1
	.byte	-1
	.byte	-1
	.byte	-2
	.byte	-2
	.byte	-1
	.byte	-1
	.byte	-1
	.byte	-1
	.byte	-1
	.byte	-1
	.byte	-1
	.byte	-1
	.byte	-3
	.byte	-1
	.byte	-1
	.byte	-1
	.byte	-1
	.byte	-1
	.byte	-1
	.byte	-1
	.byte	-1
	.byte	-1
	.byte	-1
	.byte	-1
	.byte	-1
	.byte	-1
	.byte	-1
	.byte	-1
	.byte	-1
	.byte	-1
	.byte	-1
	.byte	-1
	.byte	-1
	.byte	-1
	.byte	-1
	.byte	-2
	.byte	-3
	.byte	-1
	.byte	-1
	.byte	-1
	.byte	-1
	.byte	-1
	.byte	-1
	.byte	-1
	.byte	-1
	.byte	-6
	.byte	-1
	.byte	-1
	.byte	-1
	.byte	-1
	.byte	-1
	.byte	-1
	.byte	-1
	.byte	-1
	.byte	-1
	.byte	-1
	.byte	-2
	.byte	-1
	.byte	-1
	.byte	-1
	.byte	-1
	.byte	-1
	.byte	-1
	.byte	-1
	.byte	-1
	.byte	-1
	.byte	-1
	.byte	-1
	.byte	-1
	.byte	-1
	.byte	-1
	.byte	-1
	.byte	-1
	.byte	-1
	.byte	-1
	.byte	-1
	.byte	-1
	.byte	-1
	.byte	-1
	.byte	-1
	.byte	-1
	.byte	-1
	.byte	-1
	.byte	-1
	.byte	-1
	.byte	-1
	.byte	-1
	.byte	-1
	.byte	-1
	.byte	-1
	.byte	-1
	.byte	-1
	.byte	-1
	.byte	-1
	.byte	-1
	.byte	-1
	.byte	-1
	.byte	-1
	.byte	-1
	.byte	-1
	.byte	-70
	.byte	-5
	.byte	-6
	.byte	-1
	.byte	-1
	.byte	-1
	.byte	-1
	.byte	-1
	.byte	-1
	.byte	-1
	.byte	-1
	.byte	-22
	.byte	-5
	.byte	-12
	.byte	-2
	.byte	-1
	.byte	-1
	.byte	-1
	.byte	-1
	.byte	-1
	.byte	-1
	.byte	-1
	.byte	-5
	.byte	-5
	.byte	-13
	.byte	-3
	.byte	-2
	.byte	-1
	.byte	-2
	.byte	-1
	.byte	-1
	.byte	-1
	.byte	-1
	.byte	-1
	.byte	-3
	.byte	-2
	.byte	-1
	.byte	-1
	.byte	-1
	.byte	-1
	.byte	-1
	.byte	-1
	.byte	-1
	.byte	-1
	.byte	-20
	.byte	-3
	.byte	-2
	.byte	-1
	.byte	-1
	.byte	-1
	.byte	-1
	.byte	-1
	.byte	-1
	.byte	-1
	.byte	-1
	.byte	-5
	.byte	-3
	.byte	-3
	.byte	-2
	.byte	-2
	.byte	-1
	.byte	-1
	.byte	-1
	.byte	-1
	.byte	-1
	.byte	-1
	.byte	-1
	.byte	-2
	.byte	-2
	.byte	-1
	.byte	-1
	.byte	-1
	.byte	-1
	.byte	-1
	.byte	-1
	.byte	-1
	.byte	-1
	.byte	-2
	.byte	-2
	.byte	-2
	.byte	-1
	.byte	-1
	.byte	-1
	.byte	-1
	.byte	-1
	.byte	-1
	.byte	-1
	.byte	-1
	.byte	-1
	.byte	-1
	.byte	-1
	.byte	-1
	.byte	-1
	.byte	-1
	.byte	-1
	.byte	-1
	.byte	-1
	.byte	-1
	.byte	-1
	.byte	-1
	.byte	-2
	.byte	-1
	.byte	-1
	.byte	-1
	.byte	-1
	.byte	-1
	.byte	-1
	.byte	-1
	.byte	-1
	.byte	-1
	.byte	-2
	.byte	-2
	.byte	-1
	.byte	-1
	.byte	-1
	.byte	-1
	.byte	-1
	.byte	-1
	.byte	-1
	.byte	-1
	.byte	-1
	.byte	-2
	.byte	-1
	.byte	-1
	.byte	-1
	.byte	-1
	.byte	-1
	.byte	-1
	.byte	-1
	.byte	-1
	.byte	-1
	.byte	-1
	.byte	-1
	.byte	-1
	.byte	-1
	.byte	-1
	.byte	-1
	.byte	-1
	.byte	-1
	.byte	-1
	.byte	-1
	.byte	-1
	.byte	-1
	.byte	-2
	.byte	-1
	.byte	-1
	.byte	-1
	.byte	-1
	.byte	-1
	.byte	-1
	.byte	-1
	.byte	-1
	.byte	-1
	.byte	-1
	.byte	-1
	.byte	-1
	.byte	-1
	.byte	-1
	.byte	-1
	.byte	-1
	.byte	-1
	.byte	-1
	.byte	-1
	.byte	-1
	.byte	-1
	.byte	-1
	.byte	-1
	.byte	-1
	.byte	-1
	.byte	-1
	.byte	-1
	.byte	-1
	.byte	-1
	.byte	-1
	.byte	-1
	.byte	-1
	.byte	-1
	.byte	-1
	.byte	-1
	.byte	-1
	.byte	-1
	.byte	-1
	.byte	-1
	.byte	-1
	.byte	-1
	.byte	-1
	.byte	-1
	.byte	-1
	.byte	-1
	.byte	-1
	.byte	-1
	.byte	-1
	.byte	-1
	.byte	-1
	.byte	-1
	.byte	-1
	.byte	-1
	.byte	-1
	.byte	-1
	.byte	-1
	.byte	-1
	.byte	-1
	.byte	-1
	.byte	-1
	.byte	-1
	.byte	-1
	.byte	-1
	.byte	-1
	.byte	-1
	.byte	-1
	.byte	-1
	.byte	-1
	.byte	-1
	.byte	-1
	.byte	-1
	.byte	-1
	.byte	-1
	.byte	-1
	.byte	-1
	.byte	-1
	.byte	-1
	.byte	-1
	.byte	-1
	.byte	-1
	.byte	-1
	.byte	-1
	.byte	-1
	.byte	-1
	.byte	-1
	.byte	-1
	.byte	-1
	.byte	-1
	.byte	-1
	.byte	-1
	.byte	-1
	.byte	-1
	.byte	-1
	.byte	-1
	.byte	-1
	.byte	-1
	.byte	-1
	.byte	-1
	.byte	-1
	.byte	-1
	.byte	-1
	.byte	-1
	.byte	-1
	.byte	-1
	.byte	-1
	.byte	-1
	.byte	-1
	.byte	-1
	.byte	-1
	.byte	-1
	.byte	-1
	.byte	-1
	.byte	-1
	.byte	-1
	.byte	-1
	.byte	-1
	.byte	-1
	.byte	-1
	.byte	-1
	.byte	-1
	.byte	-8
	.byte	-1
	.byte	-1
	.byte	-1
	.byte	-1
	.byte	-1
	.byte	-1
	.byte	-1
	.byte	-1
	.byte	-1
	.byte	-1
	.byte	-6
	.byte	-2
	.byte	-4
	.byte	-2
	.byte	-1
	.byte	-1
	.byte	-1
	.byte	-1
	.byte	-1
	.byte	-1
	.byte	-1
	.byte	-8
	.byte	-2
	.byte	-7
	.byte	-3
	.byte	-1
	.byte	-1
	.byte	-1
	.byte	-1
	.byte	-1
	.byte	-1
	.byte	-1
	.byte	-1
	.byte	-3
	.byte	-3
	.byte	-1
	.byte	-1
	.byte	-1
	.byte	-1
	.byte	-1
	.byte	-1
	.byte	-1
	.byte	-1
	.byte	-10
	.byte	-3
	.byte	-3
	.byte	-1
	.byte	-1
	.byte	-1
	.byte	-1
	.byte	-1
	.byte	-1
	.byte	-1
	.byte	-1
	.byte	-4
	.byte	-2
	.byte	-5
	.byte	-2
	.byte	-2
	.byte	-1
	.byte	-1
	.byte	-1
	.byte	-1
	.byte	-1
	.byte	-1
	.byte	-1
	.byte	-2
	.byte	-4
	.byte	-1
	.byte	-1
	.byte	-1
	.byte	-1
	.byte	-1
	.byte	-1
	.byte	-1
	.byte	-1
	.byte	-8
	.byte	-2
	.byte	-3
	.byte	-1
	.byte	-1
	.byte	-1
	.byte	-1
	.byte	-1
	.byte	-1
	.byte	-1
	.byte	-1
	.byte	-3
	.byte	-1
	.byte	-2
	.byte	-2
	.byte	-1
	.byte	-1
	.byte	-1
	.byte	-1
	.byte	-1
	.byte	-1
	.byte	-1
	.byte	-1
	.byte	-5
	.byte	-2
	.byte	-1
	.byte	-1
	.byte	-1
	.byte	-1
	.byte	-1
	.byte	-1
	.byte	-1
	.byte	-1
	.byte	-11
	.byte	-5
	.byte	-2
	.byte	-1
	.byte	-1
	.byte	-1
	.byte	-1
	.byte	-1
	.byte	-1
	.byte	-1
	.byte	-1
	.byte	-3
	.byte	-3
	.byte	-2
	.byte	-1
	.byte	-1
	.byte	-1
	.byte	-1
	.byte	-1
	.byte	-1
	.byte	-1
	.byte	-1
	.byte	-1
	.byte	-5
	.byte	-3
	.byte	-1
	.byte	-1
	.byte	-1
	.byte	-1
	.byte	-1
	.byte	-1
	.byte	-1
	.byte	-1
	.byte	-4
	.byte	-3
	.byte	-2
	.byte	-1
	.byte	-1
	.byte	-1
	.byte	-1
	.byte	-1
	.byte	-1
	.byte	-1
	.byte	-1
	.byte	-1
	.byte	-2
	.byte	-1
	.byte	-1
	.byte	-1
	.byte	-1
	.byte	-1
	.byte	-1
	.byte	-1
	.byte	-1
	.byte	-1
	.byte	-1
	.byte	-4
	.byte	-1
	.byte	-1
	.byte	-1
	.byte	-1
	.byte	-1
	.byte	-1
	.byte	-1
	.byte	-1
	.byte	-1
	.byte	-7
	.byte	-1
	.byte	-2
	.byte	-1
	.byte	-1
	.byte	-1
	.byte	-1
	.byte	-1
	.byte	-1
	.byte	-1
	.byte	-1
	.byte	-1
	.byte	-1
	.byte	-2
	.byte	-1
	.byte	-1
	.byte	-1
	.byte	-1
	.byte	-1
	.byte	-1
	.byte	-1
	.byte	-1
	.byte	-1
	.byte	-1
	.byte	-3
	.byte	-1
	.byte	-1
	.byte	-1
	.byte	-1
	.byte	-1
	.byte	-1
	.byte	-1
	.byte	-1
	.byte	-6
	.byte	-1
	.byte	-1
	.byte	-1
	.byte	-1
	.byte	-1
	.byte	-1
	.byte	-1
	.byte	-1
	.byte	-1
	.byte	-1
	.byte	-1
	.byte	-1
	.byte	-1
	.byte	-1
	.byte	-1
	.byte	-1
	.byte	-1
	.byte	-1
	.byte	-1
	.byte	-1
	.byte	-1
	.byte	-1
	.byte	-1
	.byte	-1
	.byte	-1
	.byte	-1
	.byte	-1
	.byte	-1
	.byte	-1
	.byte	-1
	.byte	-1
	.byte	-1
	.byte	-2
	.byte	-1
	.byte	-1
	.byte	-1
	.byte	-1
	.byte	-1
	.byte	-1
	.byte	-1
	.byte	-1
	.byte	-1
	.byte	-1
	.byte	-1
	.byte	-1
	.byte	-1
	.byte	-1
	.byte	-1
	.byte	-1
	.byte	-1
	.byte	-1
	.byte	-1
	.byte	-1
	.byte	-1
	.type	__FUNCTION__.39016, %object
	.size	__FUNCTION__.39016, 17
__FUNCTION__.39016:
	.string	"VP8_DecodeDecide"
	.data
	.align	3
.LANCHOR1 = . + 0
	.type	default_ymode_prob, %object
	.size	default_ymode_prob, 4
default_ymode_prob:
	.byte	112
	.byte	86
	.byte	-116
	.byte	37
	.zero	4
	.type	default_uv_mode_prob, %object
	.size	default_uv_mode_prob, 3
default_uv_mode_prob:
	.byte	-94
	.byte	101
	.byte	-52
	.section	.rodata.str1.8,"aMS",%progbits,1
	.align	3
.LC0:
	.string	"pCurImg is null\n"
	.zero	7
.LC1:
	.string	"err_level(%d) over ref_thr(%d)\n"
.LC2:
	.string	"line: %d pToQueImg is null\n"
	.zero	4
.LC3:
	.string	"insert img to Voqueue failed!\n"
	.zero	1
.LC4:
	.string	"-1 == VCTRL_GetChanIDByCtx() Err! \n"
	.zero	4
.LC5:
	.string	"Error!partition 0 length > streamlength!\n"
	.zero	6
.LC6:
	.string	"Invalid frame sync code,data[0-1]:%02x,%02x,%02x\n"
	.zero	6
.LC7:
	.string	"Invalid frame width %d and Height %d!\n"
	.zero	1
.LC8:
	.string	"We have a new size image!\n"
	.zero	5
.LC9:
	.string	"The old size is %d x %d,the new is %d x %d\n"
	.zero	4
.LC10:
	.string	"image size abnormal(%dx%d)\n"
	.zero	4
.LC11:
	.string	"vp8 actual frame size(%dx%d) exeed max config(%dx%d)\n"
	.zero	2
.LC12:
	.string	"FSP_ConfigInstance fail!\n"
	.zero	6
.LC13:
	.string	"ERROR: No Img buffer is allocated\n"
	.zero	5
.LC14:
	.string	"----------------- vp8 Imode -> %d ------------------\n"
	.zero	2
.LC15:
	.string	"-----I_MODE, but FrameType is %d-----\n"
	.zero	1
.LC16:
	.string	"-----cur framtype is %s, but refnum=%d-----\n"
	.zero	3
.LC17:
	.string	"P-frm"
	.zero	2
.LC18:
	.string	"error: DecMode illegal\n"
.LC19:
	.string	"%s %d NULL == pFwdImg!!\n"
	.zero	7
.LC20:
	.string	"dec P frame, fwd ref err(%d) > ref_thr(%d)\n"
	.zero	4
.LC21:
	.string	"get frame store fail!\n"
	.zero	1
.LC22:
	.string	"line: %d, pImage is NULL!\n"
	.zero	5
.LC23:
	.string	"get image buffer ok: LogicFsID = %d\n"
	.zero	3
.LC24:
	.string	"decode %pK, disp %pK, tf %pK\n"
	.zero	2
.LC25:
	.string	"VP8_Set_DecParam but logic fs is null!\n"
.LC26:
	.string	"VP8_Set_DecParam but cur logic pstDecodeFs is null!\n"
	.zero	3
.LC27:
	.string	"Error!Truncated packet\n"
.LC28:
	.string	"VP8_CB_GetPictureHeader Error!\n"
.LC29:
	.string	"pic width/height to large,MbWidth = %d, MbHeight = %d"
	.zero	2
.LC30:
	.string	"VP8_ArrangeVHBMem error\n"
	.zero	7
.LC31:
	.string	"VP8_DecodeDecide err\n"
	.zero	2
.LC32:
	.string	"VP8_GetBufFromQueue err\n"
	.zero	7
.LC33:
	.string	"dec_pts: %lld Usertag = %lld\n"
	.text
.Letext0:
	.file 2 "/home/jenkins1/slave_49/workspace/CHICAGO_B100_chipset_component/opensource/component_code/vendor/huawei/extra/build/build_script/kirin_kernel_release/kernel/drivers/vcodec/hi_vcodec/vdec/include/hi_type.h"
	.file 3 "/home/jenkins1/slave_49/workspace/CHICAGO_B100_chipset_component/opensource/component_code/vendor/huawei/extra/build/build_script/kirin_kernel_release/kernel/drivers/vcodec/hi_vcodec/vdec/vfmw/vfmw_v4.0/vfmw.h"
	.file 4 "/home/jenkins1/slave_49/workspace/CHICAGO_B100_chipset_component/opensource/component_code/vendor/huawei/extra/build/build_script/kirin_kernel_release/kernel/include/uapi/asm-generic/int-ll64.h"
	.file 5 "/home/jenkins1/slave_49/workspace/CHICAGO_B100_chipset_component/opensource/component_code/vendor/huawei/extra/build/build_script/kirin_kernel_release/kernel/include/asm-generic/int-ll64.h"
	.file 6 "/home/jenkins1/slave_49/workspace/CHICAGO_B100_chipset_component/opensource/component_code/vendor/huawei/extra/build/build_script/kirin_kernel_release/kernel/include/uapi/asm-generic/posix_types.h"
	.file 7 "/home/jenkins1/slave_49/workspace/CHICAGO_B100_chipset_component/opensource/component_code/vendor/huawei/extra/build/build_script/kirin_kernel_release/kernel/include/linux/export.h"
	.file 8 "/home/jenkins1/slave_49/workspace/CHICAGO_B100_chipset_component/opensource/component_code/vendor/huawei/extra/build/build_script/kirin_kernel_release/kernel/include/linux/types.h"
	.file 9 "/home/jenkins1/slave_49/workspace/CHICAGO_B100_chipset_component/opensource/component_code/vendor/huawei/extra/build/build_script/kirin_kernel_release/kernel/include/asm-generic/bug.h"
	.file 10 "/home/jenkins1/slave_49/workspace/CHICAGO_B100_chipset_component/opensource/component_code/vendor/huawei/extra/build/build_script/kirin_kernel_release/kernel/include/linux/thread_info.h"
	.file 11 "/home/jenkins1/slave_49/workspace/CHICAGO_B100_chipset_component/opensource/component_code/vendor/huawei/extra/build/build_script/kirin_kernel_release/kernel/include/uapi/linux/time.h"
	.file 12 "/home/jenkins1/slave_49/workspace/CHICAGO_B100_chipset_component/opensource/component_code/vendor/huawei/extra/build/build_script/kirin_kernel_release/kernel/arch/arm64/include/asm/compat.h"
	.file 13 "/home/jenkins1/slave_49/workspace/CHICAGO_B100_chipset_component/opensource/component_code/vendor/huawei/extra/build/build_script/kirin_kernel_release/kernel/include/uapi/asm-generic/poll.h"
	.file 14 "/home/jenkins1/slave_49/workspace/CHICAGO_B100_chipset_component/opensource/component_code/vendor/huawei/extra/build/build_script/kirin_kernel_release/kernel/include/linux/sched.h"
	.file 15 "/home/jenkins1/slave_49/workspace/CHICAGO_B100_chipset_component/opensource/component_code/vendor/huawei/extra/build/build_script/kirin_kernel_release/kernel/arch/arm64/include/uapi/asm/ptrace.h"
	.file 16 "/home/jenkins1/slave_49/workspace/CHICAGO_B100_chipset_component/opensource/component_code/vendor/huawei/extra/build/build_script/kirin_kernel_release/kernel/arch/arm64/include/asm/ptrace.h"
	.file 17 "/home/jenkins1/slave_49/workspace/CHICAGO_B100_chipset_component/opensource/component_code/vendor/huawei/extra/build/build_script/kirin_kernel_release/kernel/arch/arm64/include/asm/spinlock_types.h"
	.file 18 "/home/jenkins1/slave_49/workspace/CHICAGO_B100_chipset_component/opensource/component_code/vendor/huawei/extra/build/build_script/kirin_kernel_release/kernel/include/linux/spinlock_types.h"
	.file 19 "/home/jenkins1/slave_49/workspace/CHICAGO_B100_chipset_component/opensource/component_code/vendor/huawei/extra/build/build_script/kirin_kernel_release/kernel/include/linux/rwlock_types.h"
	.file 20 "/home/jenkins1/slave_49/workspace/CHICAGO_B100_chipset_component/opensource/component_code/vendor/huawei/extra/build/build_script/kirin_kernel_release/kernel/arch/arm64/include/asm/fpsimd.h"
	.file 21 "/home/jenkins1/slave_49/workspace/CHICAGO_B100_chipset_component/opensource/component_code/vendor/huawei/extra/build/build_script/kirin_kernel_release/kernel/arch/arm64/include/asm/hw_breakpoint.h"
	.file 22 "/home/jenkins1/slave_49/workspace/CHICAGO_B100_chipset_component/opensource/component_code/vendor/huawei/extra/build/build_script/kirin_kernel_release/kernel/arch/arm64/include/asm/processor.h"
	.file 23 "/home/jenkins1/slave_49/workspace/CHICAGO_B100_chipset_component/opensource/component_code/vendor/huawei/extra/build/build_script/kirin_kernel_release/kernel/include/linux/perf_event.h"
	.file 24 "/home/jenkins1/slave_49/workspace/CHICAGO_B100_chipset_component/opensource/component_code/vendor/huawei/extra/build/build_script/kirin_kernel_release/kernel/include/asm-generic/atomic-long.h"
	.file 25 "/home/jenkins1/slave_49/workspace/CHICAGO_B100_chipset_component/opensource/component_code/vendor/huawei/extra/build/build_script/kirin_kernel_release/kernel/include/linux/wait.h"
	.file 26 "/home/jenkins1/slave_49/workspace/CHICAGO_B100_chipset_component/opensource/component_code/vendor/huawei/extra/build/build_script/kirin_kernel_release/kernel/include/linux/seqlock.h"
	.file 27 "/home/jenkins1/slave_49/workspace/CHICAGO_B100_chipset_component/opensource/component_code/vendor/huawei/extra/build/build_script/kirin_kernel_release/kernel/include/linux/nodemask.h"
	.file 28 "/home/jenkins1/slave_49/workspace/CHICAGO_B100_chipset_component/opensource/component_code/vendor/huawei/extra/build/build_script/kirin_kernel_release/kernel/include/linux/cpumask.h"
	.file 29 "/home/jenkins1/slave_49/workspace/CHICAGO_B100_chipset_component/opensource/component_code/vendor/huawei/extra/build/build_script/kirin_kernel_release/kernel/include/linux/completion.h"
	.file 30 "/home/jenkins1/slave_49/workspace/CHICAGO_B100_chipset_component/opensource/component_code/vendor/huawei/extra/build/build_script/kirin_kernel_release/kernel/include/linux/ktime.h"
	.file 31 "/home/jenkins1/slave_49/workspace/CHICAGO_B100_chipset_component/opensource/component_code/vendor/huawei/extra/build/build_script/kirin_kernel_release/kernel/include/linux/rbtree.h"
	.file 32 "/home/jenkins1/slave_49/workspace/CHICAGO_B100_chipset_component/opensource/component_code/vendor/huawei/extra/build/build_script/kirin_kernel_release/kernel/include/linux/osq_lock.h"
	.file 33 "/home/jenkins1/slave_49/workspace/CHICAGO_B100_chipset_component/opensource/component_code/vendor/huawei/extra/build/build_script/kirin_kernel_release/kernel/include/linux/rwsem.h"
	.file 34 "/home/jenkins1/slave_49/workspace/CHICAGO_B100_chipset_component/opensource/component_code/vendor/huawei/extra/build/build_script/kirin_kernel_release/kernel/include/linux/mm_types.h"
	.file 35 "/home/jenkins1/slave_49/workspace/CHICAGO_B100_chipset_component/opensource/component_code/vendor/huawei/extra/build/build_script/kirin_kernel_release/kernel/include/linux/lockdep.h"
	.file 36 "/home/jenkins1/slave_49/workspace/CHICAGO_B100_chipset_component/opensource/component_code/vendor/huawei/extra/build/build_script/kirin_kernel_release/kernel/include/linux/uprobes.h"
	.file 37 "/home/jenkins1/slave_49/workspace/CHICAGO_B100_chipset_component/opensource/component_code/vendor/huawei/extra/build/build_script/kirin_kernel_release/kernel/arch/arm64/include/asm/pgtable-types.h"
	.file 38 "/home/jenkins1/slave_49/workspace/CHICAGO_B100_chipset_component/opensource/component_code/vendor/huawei/extra/build/build_script/kirin_kernel_release/kernel/arch/arm64/include/asm/mmu.h"
	.file 39 "/home/jenkins1/slave_49/workspace/CHICAGO_B100_chipset_component/opensource/component_code/vendor/huawei/extra/build/build_script/kirin_kernel_release/kernel/include/linux/fs.h"
	.file 40 "/home/jenkins1/slave_49/workspace/CHICAGO_B100_chipset_component/opensource/component_code/vendor/huawei/extra/build/build_script/kirin_kernel_release/kernel/include/linux/mm.h"
	.file 41 "/home/jenkins1/slave_49/workspace/CHICAGO_B100_chipset_component/opensource/component_code/vendor/huawei/extra/build/build_script/kirin_kernel_release/kernel/include/linux/mmzone.h"
	.file 42 "/home/jenkins1/slave_49/workspace/CHICAGO_B100_chipset_component/opensource/component_code/vendor/huawei/extra/build/build_script/kirin_kernel_release/kernel/include/linux/mutex.h"
	.file 43 "/home/jenkins1/slave_49/workspace/CHICAGO_B100_chipset_component/opensource/component_code/vendor/huawei/extra/build/build_script/kirin_kernel_release/kernel/include/linux/timer.h"
	.file 44 "/home/jenkins1/slave_49/workspace/CHICAGO_B100_chipset_component/opensource/component_code/vendor/huawei/extra/build/build_script/kirin_kernel_release/kernel/include/linux/nsproxy.h"
	.file 45 "/home/jenkins1/slave_49/workspace/CHICAGO_B100_chipset_component/opensource/component_code/vendor/huawei/extra/build/build_script/kirin_kernel_release/kernel/include/linux/workqueue.h"
	.file 46 "/home/jenkins1/slave_49/workspace/CHICAGO_B100_chipset_component/opensource/component_code/vendor/huawei/extra/build/build_script/kirin_kernel_release/kernel/include/linux/llist.h"
	.file 47 "/home/jenkins1/slave_49/workspace/CHICAGO_B100_chipset_component/opensource/component_code/vendor/huawei/extra/build/build_script/kirin_kernel_release/kernel/arch/arm64/include/asm/smp.h"
	.file 48 "/home/jenkins1/slave_49/workspace/CHICAGO_B100_chipset_component/opensource/component_code/vendor/huawei/extra/build/build_script/kirin_kernel_release/kernel/include/linux/percpu.h"
	.file 49 "/home/jenkins1/slave_49/workspace/CHICAGO_B100_chipset_component/opensource/component_code/vendor/huawei/extra/build/build_script/kirin_kernel_release/kernel/include/linux/shrinker.h"
	.file 50 "/home/jenkins1/slave_49/workspace/CHICAGO_B100_chipset_component/opensource/component_code/vendor/huawei/extra/build/build_script/kirin_kernel_release/kernel/include/uapi/linux/resource.h"
	.file 51 "/home/jenkins1/slave_49/workspace/CHICAGO_B100_chipset_component/opensource/component_code/vendor/huawei/extra/build/build_script/kirin_kernel_release/kernel/include/linux/vm_event_item.h"
	.file 52 "/home/jenkins1/slave_49/workspace/CHICAGO_B100_chipset_component/opensource/component_code/vendor/huawei/extra/build/build_script/kirin_kernel_release/kernel/include/linux/vmstat.h"
	.file 53 "/home/jenkins1/slave_49/workspace/CHICAGO_B100_chipset_component/opensource/component_code/vendor/huawei/extra/build/build_script/kirin_kernel_release/kernel/include/linux/capability.h"
	.file 54 "/home/jenkins1/slave_49/workspace/CHICAGO_B100_chipset_component/opensource/component_code/vendor/huawei/extra/build/build_script/kirin_kernel_release/kernel/include/linux/plist.h"
	.file 55 "/home/jenkins1/slave_49/workspace/CHICAGO_B100_chipset_component/opensource/component_code/vendor/huawei/extra/build/build_script/kirin_kernel_release/kernel/include/asm-generic/cputime_jiffies.h"
	.file 56 "/home/jenkins1/slave_49/workspace/CHICAGO_B100_chipset_component/opensource/component_code/vendor/huawei/extra/build/build_script/kirin_kernel_release/kernel/include/linux/uidgid.h"
	.file 57 "/home/jenkins1/slave_49/workspace/CHICAGO_B100_chipset_component/opensource/component_code/vendor/huawei/extra/build/build_script/kirin_kernel_release/kernel/include/uapi/asm-generic/signal.h"
	.file 58 "/home/jenkins1/slave_49/workspace/CHICAGO_B100_chipset_component/opensource/component_code/vendor/huawei/extra/build/build_script/kirin_kernel_release/kernel/include/uapi/asm-generic/signal-defs.h"
	.file 59 "/home/jenkins1/slave_49/workspace/CHICAGO_B100_chipset_component/opensource/component_code/vendor/huawei/extra/build/build_script/kirin_kernel_release/kernel/include/uapi/asm-generic/siginfo.h"
	.file 60 "/home/jenkins1/slave_49/workspace/CHICAGO_B100_chipset_component/opensource/component_code/vendor/huawei/extra/build/build_script/kirin_kernel_release/kernel/include/linux/signal.h"
	.file 61 "/home/jenkins1/slave_49/workspace/CHICAGO_B100_chipset_component/opensource/component_code/vendor/huawei/extra/build/build_script/kirin_kernel_release/kernel/include/linux/pid.h"
	.file 62 "/home/jenkins1/slave_49/workspace/CHICAGO_B100_chipset_component/opensource/component_code/vendor/huawei/extra/build/build_script/kirin_kernel_release/kernel/include/linux/pid_namespace.h"
	.file 63 "/home/jenkins1/slave_49/workspace/CHICAGO_B100_chipset_component/opensource/component_code/vendor/huawei/extra/build/build_script/kirin_kernel_release/kernel/include/linux/percpu_counter.h"
	.file 64 "/home/jenkins1/slave_49/workspace/CHICAGO_B100_chipset_component/opensource/component_code/vendor/huawei/extra/build/build_script/kirin_kernel_release/kernel/include/linux/seccomp.h"
	.file 65 "/home/jenkins1/slave_49/workspace/CHICAGO_B100_chipset_component/opensource/component_code/vendor/huawei/extra/build/build_script/kirin_kernel_release/kernel/include/linux/timerqueue.h"
	.file 66 "/home/jenkins1/slave_49/workspace/CHICAGO_B100_chipset_component/opensource/component_code/vendor/huawei/extra/build/build_script/kirin_kernel_release/kernel/include/linux/hrtimer.h"
	.file 67 "/home/jenkins1/slave_49/workspace/CHICAGO_B100_chipset_component/opensource/component_code/vendor/huawei/extra/build/build_script/kirin_kernel_release/kernel/include/linux/task_io_accounting.h"
	.file 68 "/home/jenkins1/slave_49/workspace/CHICAGO_B100_chipset_component/opensource/component_code/vendor/huawei/extra/build/build_script/kirin_kernel_release/kernel/include/linux/assoc_array.h"
	.file 69 "/home/jenkins1/slave_49/workspace/CHICAGO_B100_chipset_component/opensource/component_code/vendor/huawei/extra/build/build_script/kirin_kernel_release/kernel/include/linux/key.h"
	.file 70 "/home/jenkins1/slave_49/workspace/CHICAGO_B100_chipset_component/opensource/component_code/vendor/huawei/extra/build/build_script/kirin_kernel_release/kernel/include/linux/cred.h"
	.file 71 "/home/jenkins1/slave_49/workspace/CHICAGO_B100_chipset_component/opensource/component_code/vendor/huawei/extra/build/build_script/kirin_kernel_release/kernel/include/linux/idr.h"
	.file 72 "/home/jenkins1/slave_49/workspace/CHICAGO_B100_chipset_component/opensource/component_code/vendor/huawei/extra/build/build_script/kirin_kernel_release/kernel/include/linux/percpu-refcount.h"
	.file 73 "/home/jenkins1/slave_49/workspace/CHICAGO_B100_chipset_component/opensource/component_code/vendor/huawei/extra/build/build_script/kirin_kernel_release/kernel/include/linux/rcu_sync.h"
	.file 74 "/home/jenkins1/slave_49/workspace/CHICAGO_B100_chipset_component/opensource/component_code/vendor/huawei/extra/build/build_script/kirin_kernel_release/kernel/include/linux/percpu-rwsem.h"
	.file 75 "/home/jenkins1/slave_49/workspace/CHICAGO_B100_chipset_component/opensource/component_code/vendor/huawei/extra/build/build_script/kirin_kernel_release/kernel/include/linux/cgroup-defs.h"
	.file 76 "/home/jenkins1/slave_49/workspace/CHICAGO_B100_chipset_component/opensource/component_code/vendor/huawei/extra/build/build_script/kirin_kernel_release/kernel/include/linux/kernfs.h"
	.file 77 "/home/jenkins1/slave_49/workspace/CHICAGO_B100_chipset_component/opensource/component_code/vendor/huawei/extra/build/build_script/kirin_kernel_release/kernel/include/linux/seq_file.h"
	.file 78 "/home/jenkins1/slave_49/workspace/CHICAGO_B100_chipset_component/opensource/component_code/vendor/huawei/extra/build/build_script/kirin_kernel_release/kernel/include/uapi/linux/taskstats.h"
	.file 79 "/home/jenkins1/slave_49/workspace/CHICAGO_B100_chipset_component/opensource/component_code/vendor/huawei/extra/build/build_script/kirin_kernel_release/kernel/include/linux/compat.h"
	.file 80 "/home/jenkins1/slave_49/workspace/CHICAGO_B100_chipset_component/opensource/component_code/vendor/huawei/extra/build/build_script/kirin_kernel_release/kernel/include/linux/stat.h"
	.file 81 "/home/jenkins1/slave_49/workspace/CHICAGO_B100_chipset_component/opensource/component_code/vendor/huawei/extra/build/build_script/kirin_kernel_release/kernel/include/uapi/linux/elf.h"
	.file 82 "/home/jenkins1/slave_49/workspace/CHICAGO_B100_chipset_component/opensource/component_code/vendor/huawei/extra/build/build_script/kirin_kernel_release/kernel/include/linux/kobject_ns.h"
	.file 83 "/home/jenkins1/slave_49/workspace/CHICAGO_B100_chipset_component/opensource/component_code/vendor/huawei/extra/build/build_script/kirin_kernel_release/kernel/include/linux/sysfs.h"
	.file 84 "/home/jenkins1/slave_49/workspace/CHICAGO_B100_chipset_component/opensource/component_code/vendor/huawei/extra/build/build_script/kirin_kernel_release/kernel/include/linux/kobject.h"
	.file 85 "/home/jenkins1/slave_49/workspace/CHICAGO_B100_chipset_component/opensource/component_code/vendor/huawei/extra/build/build_script/kirin_kernel_release/kernel/include/linux/kref.h"
	.file 86 "/home/jenkins1/slave_49/workspace/CHICAGO_B100_chipset_component/opensource/component_code/vendor/huawei/extra/build/build_script/kirin_kernel_release/kernel/include/linux/moduleparam.h"
	.file 87 "/home/jenkins1/slave_49/workspace/CHICAGO_B100_chipset_component/opensource/component_code/vendor/huawei/extra/build/build_script/kirin_kernel_release/kernel/include/linux/module.h"
	.file 88 "/home/jenkins1/slave_49/workspace/CHICAGO_B100_chipset_component/opensource/component_code/vendor/huawei/extra/build/build_script/kirin_kernel_release/kernel/include/linux/jump_label.h"
	.file 89 "/home/jenkins1/slave_49/workspace/CHICAGO_B100_chipset_component/opensource/component_code/vendor/huawei/extra/build/build_script/kirin_kernel_release/kernel/include/linux/rbtree_latch.h"
	.file 90 "/home/jenkins1/slave_49/workspace/CHICAGO_B100_chipset_component/opensource/component_code/vendor/huawei/extra/build/build_script/kirin_kernel_release/kernel/arch/arm64/include/asm/module.h"
	.file 91 "/home/jenkins1/slave_49/workspace/CHICAGO_B100_chipset_component/opensource/component_code/vendor/huawei/extra/build/build_script/kirin_kernel_release/kernel/arch/arm64/include/asm/uaccess.h"
	.file 92 "/home/jenkins1/slave_49/workspace/CHICAGO_B100_chipset_component/opensource/component_code/vendor/huawei/extra/build/build_script/kirin_kernel_release/kernel/include/linux/tracepoint.h"
	.file 93 "/home/jenkins1/slave_49/workspace/CHICAGO_B100_chipset_component/opensource/component_code/vendor/huawei/extra/build/build_script/kirin_kernel_release/kernel/include/linux/trace_events.h"
	.file 94 "/home/jenkins1/slave_49/workspace/CHICAGO_B100_chipset_component/opensource/component_code/vendor/huawei/extra/build/build_script/kirin_kernel_release/kernel/include/linux/quota.h"
	.file 95 "/home/jenkins1/slave_49/workspace/CHICAGO_B100_chipset_component/opensource/component_code/vendor/huawei/extra/build/build_script/kirin_kernel_release/kernel/include/linux/projid.h"
	.file 96 "/home/jenkins1/slave_49/workspace/CHICAGO_B100_chipset_component/opensource/component_code/vendor/huawei/extra/build/build_script/kirin_kernel_release/kernel/include/uapi/linux/quota.h"
	.file 97 "/home/jenkins1/slave_49/workspace/CHICAGO_B100_chipset_component/opensource/component_code/vendor/huawei/extra/build/build_script/kirin_kernel_release/kernel/include/linux/path.h"
	.file 98 "/home/jenkins1/slave_49/workspace/CHICAGO_B100_chipset_component/opensource/component_code/vendor/huawei/extra/build/build_script/kirin_kernel_release/kernel/include/linux/list_bl.h"
	.file 99 "/home/jenkins1/slave_49/workspace/CHICAGO_B100_chipset_component/opensource/component_code/vendor/huawei/extra/build/build_script/kirin_kernel_release/kernel/include/linux/lockref.h"
	.file 100 "/home/jenkins1/slave_49/workspace/CHICAGO_B100_chipset_component/opensource/component_code/vendor/huawei/extra/build/build_script/kirin_kernel_release/kernel/include/linux/dcache.h"
	.file 101 "/home/jenkins1/slave_49/workspace/CHICAGO_B100_chipset_component/opensource/component_code/vendor/huawei/extra/build/build_script/kirin_kernel_release/kernel/include/linux/list_lru.h"
	.file 102 "/home/jenkins1/slave_49/workspace/CHICAGO_B100_chipset_component/opensource/component_code/vendor/huawei/extra/build/build_script/kirin_kernel_release/kernel/include/linux/radix-tree.h"
	.file 103 "/home/jenkins1/slave_49/workspace/CHICAGO_B100_chipset_component/opensource/component_code/vendor/huawei/extra/build/build_script/kirin_kernel_release/kernel/include/uapi/linux/fiemap.h"
	.file 104 "/home/jenkins1/slave_49/workspace/CHICAGO_B100_chipset_component/opensource/component_code/vendor/huawei/extra/build/build_script/kirin_kernel_release/kernel/include/linux/migrate_mode.h"
	.file 105 "/home/jenkins1/slave_49/workspace/CHICAGO_B100_chipset_component/opensource/component_code/vendor/huawei/extra/build/build_script/kirin_kernel_release/kernel/include/linux/blk_types.h"
	.file 106 "/home/jenkins1/slave_49/workspace/CHICAGO_B100_chipset_component/opensource/component_code/vendor/huawei/extra/build/build_script/kirin_kernel_release/kernel/include/linux/uio.h"
	.file 107 "/home/jenkins1/slave_49/workspace/CHICAGO_B100_chipset_component/opensource/component_code/vendor/huawei/extra/build/build_script/kirin_kernel_release/kernel/include/linux/nfs_fs_i.h"
	.file 108 "/home/jenkins1/slave_49/workspace/CHICAGO_B100_chipset_component/opensource/component_code/vendor/huawei/extra/build/build_script/kirin_kernel_release/kernel/include/linux/poll.h"
	.file 109 "/home/jenkins1/slave_49/workspace/CHICAGO_B100_chipset_component/opensource/component_code/vendor/huawei/extra/build/build_script/kirin_kernel_release/kernel/include/linux/seq_buf.h"
	.file 110 "/home/jenkins1/slave_49/workspace/CHICAGO_B100_chipset_component/opensource/component_code/vendor/huawei/extra/build/build_script/kirin_kernel_release/kernel/include/linux/trace_seq.h"
	.file 111 "/home/jenkins1/slave_49/workspace/CHICAGO_B100_chipset_component/opensource/component_code/vendor/huawei/extra/build/build_script/kirin_kernel_release/kernel/include/uapi/linux/perf_event.h"
	.file 112 "/home/jenkins1/slave_49/workspace/CHICAGO_B100_chipset_component/opensource/component_code/vendor/huawei/extra/build/build_script/kirin_kernel_release/kernel/include/asm-generic/local.h"
	.file 113 "/home/jenkins1/slave_49/workspace/CHICAGO_B100_chipset_component/opensource/component_code/vendor/huawei/extra/build/build_script/kirin_kernel_release/kernel/include/asm-generic/local64.h"
	.file 114 "/home/jenkins1/slave_49/workspace/CHICAGO_B100_chipset_component/opensource/component_code/vendor/huawei/extra/build/build_script/kirin_kernel_release/kernel/include/linux/ns_common.h"
	.file 115 "/home/jenkins1/slave_49/workspace/CHICAGO_B100_chipset_component/opensource/component_code/vendor/huawei/extra/build/build_script/kirin_kernel_release/kernel/include/uapi/linux/uio.h"
	.file 116 "/home/jenkins1/slave_49/workspace/CHICAGO_B100_chipset_component/opensource/component_code/vendor/huawei/extra/build/build_script/kirin_kernel_release/kernel/include/linux/ftrace.h"
	.file 117 "/home/jenkins1/slave_49/workspace/CHICAGO_B100_chipset_component/opensource/component_code/vendor/huawei/extra/build/build_script/kirin_kernel_release/kernel/include/linux/klist.h"
	.file 118 "/home/jenkins1/slave_49/workspace/CHICAGO_B100_chipset_component/opensource/component_code/vendor/huawei/extra/build/build_script/kirin_kernel_release/kernel/include/linux/pinctrl/devinfo.h"
	.file 119 "/home/jenkins1/slave_49/workspace/CHICAGO_B100_chipset_component/opensource/component_code/vendor/huawei/extra/build/build_script/kirin_kernel_release/kernel/include/linux/pm.h"
	.file 120 "/home/jenkins1/slave_49/workspace/CHICAGO_B100_chipset_component/opensource/component_code/vendor/huawei/extra/build/build_script/kirin_kernel_release/kernel/include/linux/device.h"
	.file 121 "/home/jenkins1/slave_49/workspace/CHICAGO_B100_chipset_component/opensource/component_code/vendor/huawei/extra/build/build_script/kirin_kernel_release/kernel/include/linux/pm_wakeup.h"
	.file 122 "/home/jenkins1/slave_49/workspace/CHICAGO_B100_chipset_component/opensource/component_code/vendor/huawei/extra/build/build_script/kirin_kernel_release/kernel/arch/arm64/include/asm/device.h"
	.file 123 "/home/jenkins1/slave_49/workspace/CHICAGO_B100_chipset_component/opensource/component_code/vendor/huawei/extra/build/build_script/kirin_kernel_release/kernel/include/linux/irq_work.h"
	.file 124 "/home/jenkins1/slave_49/workspace/CHICAGO_B100_chipset_component/opensource/component_code/vendor/huawei/extra/build/build_script/kirin_kernel_release/kernel/include/linux/jump_label_ratelimit.h"
	.file 125 "/home/jenkins1/slave_49/workspace/CHICAGO_B100_chipset_component/opensource/component_code/vendor/huawei/extra/build/build_script/kirin_kernel_release/kernel/include/linux/perf_regs.h"
	.file 126 "/home/jenkins1/slave_49/workspace/CHICAGO_B100_chipset_component/opensource/component_code/vendor/huawei/extra/build/build_script/kirin_kernel_release/kernel/include/linux/interrupt.h"
	.file 127 "/home/jenkins1/slave_49/workspace/CHICAGO_B100_chipset_component/opensource/component_code/vendor/huawei/extra/build/build_script/kirin_kernel_release/kernel/drivers/vcodec/hi_vcodec/vdec/vfmw/vfmw_v4.0/firmware/driver/HiSCDV200/scd_drv.h"
	.file 128 "/home/jenkins1/slave_49/workspace/CHICAGO_B100_chipset_component/opensource/component_code/vendor/huawei/extra/build/build_script/kirin_kernel_release/kernel/drivers/vcodec/hi_vcodec/vdec/vfmw/vfmw_v4.0/firmware/common/decparam.h"
	.file 129 "/home/jenkins1/slave_49/workspace/CHICAGO_B100_chipset_component/opensource/component_code/vendor/huawei/extra/build/build_script/kirin_kernel_release/kernel/drivers/vcodec/hi_vcodec/vdec/vfmw/vfmw_v4.0/firmware/common/public.h"
	.file 130 "/home/jenkins1/slave_49/workspace/CHICAGO_B100_chipset_component/opensource/component_code/vendor/huawei/extra/build/build_script/kirin_kernel_release/kernel/drivers/vcodec/hi_vcodec/vdec/vfmw/vfmw_v4.0/firmware/common/bitstream.h"
	.file 131 "/home/jenkins1/slave_49/workspace/CHICAGO_B100_chipset_component/opensource/component_code/vendor/huawei/extra/build/build_script/kirin_kernel_release/kernel/drivers/vcodec/hi_vcodec/vdec/vfmw/vfmw_v4.0/firmware/common/syn_cmn.h"
	.file 132 "/home/jenkins1/slave_49/workspace/CHICAGO_B100_chipset_component/opensource/component_code/vendor/huawei/extra/build/build_script/kirin_kernel_release/kernel/drivers/vcodec/hi_vcodec/vdec/vfmw/vfmw_v4.0/firmware/common/syntax/vp8.h"
	.file 133 "/home/jenkins1/slave_49/workspace/CHICAGO_B100_chipset_component/opensource/component_code/vendor/huawei/extra/build/build_script/kirin_kernel_release/kernel/drivers/vcodec/hi_vcodec/vdec/vfmw/vfmw_v4.0/firmware/common/syntax/hevc.h"
	.file 134 "/home/jenkins1/slave_49/workspace/CHICAGO_B100_chipset_component/opensource/component_code/vendor/huawei/extra/build/build_script/kirin_kernel_release/kernel/drivers/vcodec/hi_vcodec/vdec/vfmw/vfmw_v4.0/firmware/common/fsp.h"
	.file 135 "/home/jenkins1/slave_49/workspace/CHICAGO_B100_chipset_component/opensource/component_code/vendor/huawei/extra/build/build_script/kirin_kernel_release/kernel/arch/arm64/include/asm/cachetype.h"
	.file 136 "/home/jenkins1/slave_49/workspace/CHICAGO_B100_chipset_component/opensource/component_code/vendor/huawei/extra/build/build_script/kirin_kernel_release/kernel/include/linux/printk.h"
	.file 137 "/home/jenkins1/slave_49/workspace/CHICAGO_B100_chipset_component/opensource/component_code/vendor/huawei/extra/build/build_script/kirin_kernel_release/kernel/include/linux/kernel.h"
	.file 138 "/home/jenkins1/slave_49/workspace/CHICAGO_B100_chipset_component/opensource/component_code/vendor/huawei/extra/build/build_script/kirin_kernel_release/kernel/arch/arm64/include/asm/thread_info.h"
	.file 139 "/home/jenkins1/slave_49/workspace/CHICAGO_B100_chipset_component/opensource/component_code/vendor/huawei/extra/build/build_script/kirin_kernel_release/kernel/include/chipset_common/kernel_harden/kaslr.h"
	.file 140 "/home/jenkins1/slave_49/workspace/CHICAGO_B100_chipset_component/opensource/component_code/vendor/huawei/extra/build/build_script/kirin_kernel_release/kernel/arch/arm64/include/asm/hwcap.h"
	.file 141 "/home/jenkins1/slave_49/workspace/CHICAGO_B100_chipset_component/opensource/component_code/vendor/huawei/extra/build/build_script/kirin_kernel_release/kernel/arch/arm64/include/asm/cpufeature.h"
	.file 142 "/home/jenkins1/slave_49/workspace/CHICAGO_B100_chipset_component/opensource/component_code/vendor/huawei/extra/build/build_script/kirin_kernel_release/kernel/include/linux/jiffies.h"
	.file 143 "/home/jenkins1/slave_49/workspace/CHICAGO_B100_chipset_component/opensource/component_code/vendor/huawei/extra/build/build_script/kirin_kernel_release/kernel/arch/arm64/include/asm/memory.h"
	.file 144 "/home/jenkins1/slave_49/workspace/CHICAGO_B100_chipset_component/opensource/component_code/vendor/huawei/extra/build/build_script/kirin_kernel_release/kernel/include/asm-generic/percpu.h"
	.file 145 "/home/jenkins1/slave_49/workspace/CHICAGO_B100_chipset_component/opensource/component_code/vendor/huawei/extra/build/build_script/kirin_kernel_release/kernel/include/linux/debug_locks.h"
	.file 146 "/home/jenkins1/slave_49/workspace/CHICAGO_B100_chipset_component/opensource/component_code/vendor/huawei/extra/build/build_script/kirin_kernel_release/kernel/include/asm-generic/pgtable.h"
	.file 147 "/home/jenkins1/slave_49/workspace/CHICAGO_B100_chipset_component/opensource/component_code/vendor/huawei/extra/build/build_script/kirin_kernel_release/kernel/include/linux/highuid.h"
	.file 148 "/home/jenkins1/slave_49/workspace/CHICAGO_B100_chipset_component/opensource/component_code/vendor/huawei/extra/build/build_script/kirin_kernel_release/kernel/arch/arm64/include/asm/irq.h"
	.file 149 "/home/jenkins1/slave_49/workspace/CHICAGO_B100_chipset_component/opensource/component_code/vendor/huawei/extra/build/build_script/kirin_kernel_release/kernel/arch/arm64/include/asm/hardirq.h"
	.file 150 "/home/jenkins1/slave_49/workspace/CHICAGO_B100_chipset_component/opensource/component_code/vendor/huawei/extra/build/build_script/kirin_kernel_release/kernel/include/linux/cgroup.h"
	.file 151 "/home/jenkins1/slave_49/workspace/CHICAGO_B100_chipset_component/opensource/component_code/vendor/huawei/extra/build/build_script/kirin_kernel_release/kernel/include/linux/slab.h"
	.file 152 "/home/jenkins1/slave_49/workspace/CHICAGO_B100_chipset_component/opensource/component_code/vendor/huawei/extra/build/build_script/kirin_kernel_release/kernel/drivers/vcodec/hi_vcodec/vdec/vfmw/vfmw_v4.0/firmware/common/syntax/syntax.h"
	.file 153 "/home/jenkins1/slave_49/workspace/CHICAGO_B100_chipset_component/opensource/component_code/vendor/huawei/extra/build/build_script/kirin_kernel_release/kernel/drivers/vcodec/hi_vcodec/vdec/vfmw/vfmw_v4.0/firmware/common/vfmw_ctrl.h"
	.section	.note.GNU-stack,"",%progbits
